
aes_slave2.elf:     file format elf32-littleriscv


Disassembly of section .text:

80000000 <__internal_syscall>:
80000000:	fd010113 	addi	sp,sp,-48
80000004:	02812623 	sw	s0,44(sp)
80000008:	03010413 	addi	s0,sp,48
8000000c:	fea42623 	sw	a0,-20(s0)
80000010:	feb42423 	sw	a1,-24(s0)
80000014:	fec42223 	sw	a2,-28(s0)
80000018:	fed42023 	sw	a3,-32(s0)
8000001c:	fce42e23 	sw	a4,-36(s0)
80000020:	fcf42c23 	sw	a5,-40(s0)
80000024:	fd042a23 	sw	a6,-44(s0)
80000028:	fe842503 	lw	a0,-24(s0)
8000002c:	fe442583 	lw	a1,-28(s0)
80000030:	fe042603 	lw	a2,-32(s0)
80000034:	fdc42683 	lw	a3,-36(s0)
80000038:	fd842703 	lw	a4,-40(s0)
8000003c:	fd442783 	lw	a5,-44(s0)
80000040:	fec42883 	lw	a7,-20(s0)
80000044:	00000073 	ecall
80000048:	00000013 	nop
8000004c:	02c12403 	lw	s0,44(sp)
80000050:	03010113 	addi	sp,sp,48
80000054:	00008067 	ret

80000058 <sys_Receive>:
80000058:	fe010113 	addi	sp,sp,-32
8000005c:	00112e23 	sw	ra,28(sp)
80000060:	00812c23 	sw	s0,24(sp)
80000064:	02010413 	addi	s0,sp,32
80000068:	fea42623 	sw	a0,-20(s0)
8000006c:	feb42423 	sw	a1,-24(s0)
80000070:	fec42583 	lw	a1,-20(s0)
80000074:	fe842603 	lw	a2,-24(s0)
80000078:	00000813 	li	a6,0
8000007c:	00000793 	li	a5,0
80000080:	00000713 	li	a4,0
80000084:	00000693 	li	a3,0
80000088:	01e00513 	li	a0,30
8000008c:	f75ff0ef 	jal	ra,80000000 <__internal_syscall>
80000090:	00100793 	li	a5,1
80000094:	00078513 	mv	a0,a5
80000098:	01c12083 	lw	ra,28(sp)
8000009c:	01812403 	lw	s0,24(sp)
800000a0:	02010113 	addi	sp,sp,32
800000a4:	00008067 	ret

800000a8 <sys_Send>:
800000a8:	fe010113 	addi	sp,sp,-32
800000ac:	00112e23 	sw	ra,28(sp)
800000b0:	00812c23 	sw	s0,24(sp)
800000b4:	02010413 	addi	s0,sp,32
800000b8:	fea42623 	sw	a0,-20(s0)
800000bc:	feb42423 	sw	a1,-24(s0)
800000c0:	fec42583 	lw	a1,-20(s0)
800000c4:	fe842603 	lw	a2,-24(s0)
800000c8:	00000813 	li	a6,0
800000cc:	00000793 	li	a5,0
800000d0:	00000713 	li	a4,0
800000d4:	00000693 	li	a3,0
800000d8:	01400513 	li	a0,20
800000dc:	f25ff0ef 	jal	ra,80000000 <__internal_syscall>
800000e0:	00100793 	li	a5,1
800000e4:	00078513 	mv	a0,a5
800000e8:	01c12083 	lw	ra,28(sp)
800000ec:	01812403 	lw	s0,24(sp)
800000f0:	02010113 	addi	sp,sp,32
800000f4:	00008067 	ret

800000f8 <sys_Printi>:
800000f8:	fe010113 	addi	sp,sp,-32
800000fc:	00112e23 	sw	ra,28(sp)
80000100:	00812c23 	sw	s0,24(sp)
80000104:	02010413 	addi	s0,sp,32
80000108:	fea42623 	sw	a0,-20(s0)
8000010c:	fec42583 	lw	a1,-20(s0)
80000110:	00000813 	li	a6,0
80000114:	00000793 	li	a5,0
80000118:	00000713 	li	a4,0
8000011c:	00000693 	li	a3,0
80000120:	00000613 	li	a2,0
80000124:	02800513 	li	a0,40
80000128:	ed9ff0ef 	jal	ra,80000000 <__internal_syscall>
8000012c:	00100793 	li	a5,1
80000130:	00078513 	mv	a0,a5
80000134:	01c12083 	lw	ra,28(sp)
80000138:	01812403 	lw	s0,24(sp)
8000013c:	02010113 	addi	sp,sp,32
80000140:	00008067 	ret

80000144 <sys_Prints>:
80000144:	fe010113 	addi	sp,sp,-32
80000148:	00112e23 	sw	ra,28(sp)
8000014c:	00812c23 	sw	s0,24(sp)
80000150:	02010413 	addi	s0,sp,32
80000154:	fea42623 	sw	a0,-20(s0)
80000158:	fec42583 	lw	a1,-20(s0)
8000015c:	00000813 	li	a6,0
80000160:	00000793 	li	a5,0
80000164:	00000713 	li	a4,0
80000168:	00000693 	li	a3,0
8000016c:	00000613 	li	a2,0
80000170:	03200513 	li	a0,50
80000174:	e8dff0ef 	jal	ra,80000000 <__internal_syscall>
80000178:	00100793 	li	a5,1
8000017c:	00078513 	mv	a0,a5
80000180:	01c12083 	lw	ra,28(sp)
80000184:	01812403 	lw	s0,24(sp)
80000188:	02010113 	addi	sp,sp,32
8000018c:	00008067 	ret

80000190 <sys_Finish>:
80000190:	ff010113 	addi	sp,sp,-16
80000194:	00112623 	sw	ra,12(sp)
80000198:	00812423 	sw	s0,8(sp)
8000019c:	01010413 	addi	s0,sp,16
800001a0:	00000813 	li	a6,0
800001a4:	00000793 	li	a5,0
800001a8:	00000713 	li	a4,0
800001ac:	00000693 	li	a3,0
800001b0:	00000613 	li	a2,0
800001b4:	00000593 	li	a1,0
800001b8:	00a00513 	li	a0,10
800001bc:	e45ff0ef 	jal	ra,80000000 <__internal_syscall>
800001c0:	00100793 	li	a5,1
800001c4:	00078513 	mv	a0,a5
800001c8:	00c12083 	lw	ra,12(sp)
800001cc:	00812403 	lw	s0,8(sp)
800001d0:	01010113 	addi	sp,sp,16
800001d4:	00008067 	ret

800001d8 <sys_Testing>:
800001d8:	fd010113 	addi	sp,sp,-48
800001dc:	02112623 	sw	ra,44(sp)
800001e0:	02812423 	sw	s0,40(sp)
800001e4:	03010413 	addi	s0,sp,48
800001e8:	fea42623 	sw	a0,-20(s0)
800001ec:	feb42423 	sw	a1,-24(s0)
800001f0:	fec42223 	sw	a2,-28(s0)
800001f4:	fed42023 	sw	a3,-32(s0)
800001f8:	fce42e23 	sw	a4,-36(s0)
800001fc:	fcf42c23 	sw	a5,-40(s0)
80000200:	fec42583 	lw	a1,-20(s0)
80000204:	fe842603 	lw	a2,-24(s0)
80000208:	fe442683 	lw	a3,-28(s0)
8000020c:	fe042703 	lw	a4,-32(s0)
80000210:	fdc42783 	lw	a5,-36(s0)
80000214:	fd842503 	lw	a0,-40(s0)
80000218:	00050813 	mv	a6,a0
8000021c:	04200513 	li	a0,66
80000220:	de1ff0ef 	jal	ra,80000000 <__internal_syscall>
80000224:	00100793 	li	a5,1
80000228:	00078513 	mv	a0,a5
8000022c:	02c12083 	lw	ra,44(sp)
80000230:	02812403 	lw	s0,40(sp)
80000234:	03010113 	addi	sp,sp,48
80000238:	00008067 	ret

8000023c <memcpy>:
8000023c:	fd010113 	addi	sp,sp,-48
80000240:	02812623 	sw	s0,44(sp)
80000244:	03010413 	addi	s0,sp,48
80000248:	fca42e23 	sw	a0,-36(s0)
8000024c:	fcb42c23 	sw	a1,-40(s0)
80000250:	fcc42a23 	sw	a2,-44(s0)
80000254:	fd842783 	lw	a5,-40(s0)
80000258:	fef42423 	sw	a5,-24(s0)
8000025c:	fdc42783 	lw	a5,-36(s0)
80000260:	fef42223 	sw	a5,-28(s0)
80000264:	fe042623 	sw	zero,-20(s0)
80000268:	0300006f 	j	80000298 <memcpy+0x5c>
8000026c:	fec42783 	lw	a5,-20(s0)
80000270:	fe842703 	lw	a4,-24(s0)
80000274:	00f70733 	add	a4,a4,a5
80000278:	fec42783 	lw	a5,-20(s0)
8000027c:	fe442683 	lw	a3,-28(s0)
80000280:	00f687b3 	add	a5,a3,a5
80000284:	00074703 	lbu	a4,0(a4)
80000288:	00e78023 	sb	a4,0(a5)
8000028c:	fec42783 	lw	a5,-20(s0)
80000290:	00178793 	addi	a5,a5,1
80000294:	fef42623 	sw	a5,-20(s0)
80000298:	fec42783 	lw	a5,-20(s0)
8000029c:	fd442703 	lw	a4,-44(s0)
800002a0:	fce7e6e3 	bltu	a5,a4,8000026c <memcpy+0x30>
800002a4:	00000013 	nop
800002a8:	02c12403 	lw	s0,44(sp)
800002ac:	03010113 	addi	sp,sp,48
800002b0:	00008067 	ret

800002b4 <xor_buf>:
800002b4:	fd010113 	addi	sp,sp,-48
800002b8:	02812623 	sw	s0,44(sp)
800002bc:	03010413 	addi	s0,sp,48
800002c0:	fca42e23 	sw	a0,-36(s0)
800002c4:	fcb42c23 	sw	a1,-40(s0)
800002c8:	fcc42a23 	sw	a2,-44(s0)
800002cc:	fe042623 	sw	zero,-20(s0)
800002d0:	0500006f 	j	80000320 <xor_buf+0x6c>
800002d4:	fec42783 	lw	a5,-20(s0)
800002d8:	00279793 	slli	a5,a5,0x2
800002dc:	fd842703 	lw	a4,-40(s0)
800002e0:	00f707b3 	add	a5,a4,a5
800002e4:	0007a683 	lw	a3,0(a5)
800002e8:	fec42783 	lw	a5,-20(s0)
800002ec:	00279793 	slli	a5,a5,0x2
800002f0:	fdc42703 	lw	a4,-36(s0)
800002f4:	00f707b3 	add	a5,a4,a5
800002f8:	0007a703 	lw	a4,0(a5)
800002fc:	fec42783 	lw	a5,-20(s0)
80000300:	00279793 	slli	a5,a5,0x2
80000304:	fd842603 	lw	a2,-40(s0)
80000308:	00f607b3 	add	a5,a2,a5
8000030c:	00e6c733 	xor	a4,a3,a4
80000310:	00e7a023 	sw	a4,0(a5)
80000314:	fec42783 	lw	a5,-20(s0)
80000318:	00178793 	addi	a5,a5,1
8000031c:	fef42623 	sw	a5,-20(s0)
80000320:	fec42703 	lw	a4,-20(s0)
80000324:	fd442783 	lw	a5,-44(s0)
80000328:	faf746e3 	blt	a4,a5,800002d4 <xor_buf+0x20>
8000032c:	00000013 	nop
80000330:	02c12403 	lw	s0,44(sp)
80000334:	03010113 	addi	sp,sp,48
80000338:	00008067 	ret

8000033c <SubWord>:
8000033c:	fd010113 	addi	sp,sp,-48
80000340:	02812623 	sw	s0,44(sp)
80000344:	03010413 	addi	s0,sp,48
80000348:	fca42e23 	sw	a0,-36(s0)
8000034c:	fdc42783 	lw	a5,-36(s0)
80000350:	0047d793 	srli	a5,a5,0x4
80000354:	00f7f693 	andi	a3,a5,15
80000358:	fdc42783 	lw	a5,-36(s0)
8000035c:	00f7f793 	andi	a5,a5,15
80000360:	00004717 	auipc	a4,0x4
80000364:	55c70713 	addi	a4,a4,1372 # 800048bc <aes_sbox>
80000368:	00469693 	slli	a3,a3,0x4
8000036c:	00f687b3 	add	a5,a3,a5
80000370:	00279793 	slli	a5,a5,0x2
80000374:	00f707b3 	add	a5,a4,a5
80000378:	0007a783 	lw	a5,0(a5)
8000037c:	fef42623 	sw	a5,-20(s0)
80000380:	fdc42783 	lw	a5,-36(s0)
80000384:	00c7d793 	srli	a5,a5,0xc
80000388:	00f7f693 	andi	a3,a5,15
8000038c:	fdc42783 	lw	a5,-36(s0)
80000390:	0087d793 	srli	a5,a5,0x8
80000394:	00f7f793 	andi	a5,a5,15
80000398:	00004717 	auipc	a4,0x4
8000039c:	52470713 	addi	a4,a4,1316 # 800048bc <aes_sbox>
800003a0:	00469693 	slli	a3,a3,0x4
800003a4:	00f687b3 	add	a5,a3,a5
800003a8:	00279793 	slli	a5,a5,0x2
800003ac:	00f707b3 	add	a5,a4,a5
800003b0:	0007a783 	lw	a5,0(a5)
800003b4:	00879793 	slli	a5,a5,0x8
800003b8:	00078713 	mv	a4,a5
800003bc:	fec42783 	lw	a5,-20(s0)
800003c0:	00e787b3 	add	a5,a5,a4
800003c4:	fef42623 	sw	a5,-20(s0)
800003c8:	fdc42783 	lw	a5,-36(s0)
800003cc:	0147d793 	srli	a5,a5,0x14
800003d0:	00f7f693 	andi	a3,a5,15
800003d4:	fdc42783 	lw	a5,-36(s0)
800003d8:	0107d793 	srli	a5,a5,0x10
800003dc:	00f7f793 	andi	a5,a5,15
800003e0:	00004717 	auipc	a4,0x4
800003e4:	4dc70713 	addi	a4,a4,1244 # 800048bc <aes_sbox>
800003e8:	00469693 	slli	a3,a3,0x4
800003ec:	00f687b3 	add	a5,a3,a5
800003f0:	00279793 	slli	a5,a5,0x2
800003f4:	00f707b3 	add	a5,a4,a5
800003f8:	0007a783 	lw	a5,0(a5)
800003fc:	01079793 	slli	a5,a5,0x10
80000400:	00078713 	mv	a4,a5
80000404:	fec42783 	lw	a5,-20(s0)
80000408:	00e787b3 	add	a5,a5,a4
8000040c:	fef42623 	sw	a5,-20(s0)
80000410:	fdc42783 	lw	a5,-36(s0)
80000414:	01c7d693 	srli	a3,a5,0x1c
80000418:	fdc42783 	lw	a5,-36(s0)
8000041c:	0187d793 	srli	a5,a5,0x18
80000420:	00f7f793 	andi	a5,a5,15
80000424:	00004717 	auipc	a4,0x4
80000428:	49870713 	addi	a4,a4,1176 # 800048bc <aes_sbox>
8000042c:	00469693 	slli	a3,a3,0x4
80000430:	00f687b3 	add	a5,a3,a5
80000434:	00279793 	slli	a5,a5,0x2
80000438:	00f707b3 	add	a5,a4,a5
8000043c:	0007a783 	lw	a5,0(a5)
80000440:	01879793 	slli	a5,a5,0x18
80000444:	00078713 	mv	a4,a5
80000448:	fec42783 	lw	a5,-20(s0)
8000044c:	00e787b3 	add	a5,a5,a4
80000450:	fef42623 	sw	a5,-20(s0)
80000454:	fec42783 	lw	a5,-20(s0)
80000458:	00078513 	mv	a0,a5
8000045c:	02c12403 	lw	s0,44(sp)
80000460:	03010113 	addi	sp,sp,48
80000464:	00008067 	ret

80000468 <aes_key_setup>:
80000468:	fd010113 	addi	sp,sp,-48
8000046c:	02112623 	sw	ra,44(sp)
80000470:	02812423 	sw	s0,40(sp)
80000474:	03010413 	addi	s0,sp,48
80000478:	fca42e23 	sw	a0,-36(s0)
8000047c:	fcb42c23 	sw	a1,-40(s0)
80000480:	fcc42a23 	sw	a2,-44(s0)
80000484:	00400793 	li	a5,4
80000488:	fef42023 	sw	a5,-32(s0)
8000048c:	fd442703 	lw	a4,-44(s0)
80000490:	0c000793 	li	a5,192
80000494:	02f70863 	beq	a4,a5,800004c4 <aes_key_setup+0x5c>
80000498:	fd442703 	lw	a4,-44(s0)
8000049c:	10000793 	li	a5,256
800004a0:	02f70c63 	beq	a4,a5,800004d8 <aes_key_setup+0x70>
800004a4:	fd442703 	lw	a4,-44(s0)
800004a8:	08000793 	li	a5,128
800004ac:	24f71263 	bne	a4,a5,800006f0 <aes_key_setup+0x288>
800004b0:	00a00793 	li	a5,10
800004b4:	fef42623 	sw	a5,-20(s0)
800004b8:	00400793 	li	a5,4
800004bc:	fef42423 	sw	a5,-24(s0)
800004c0:	02c0006f 	j	800004ec <aes_key_setup+0x84>
800004c4:	00c00793 	li	a5,12
800004c8:	fef42623 	sw	a5,-20(s0)
800004cc:	00600793 	li	a5,6
800004d0:	fef42423 	sw	a5,-24(s0)
800004d4:	0180006f 	j	800004ec <aes_key_setup+0x84>
800004d8:	00e00793 	li	a5,14
800004dc:	fef42623 	sw	a5,-20(s0)
800004e0:	00800793 	li	a5,8
800004e4:	fef42423 	sw	a5,-24(s0)
800004e8:	00000013 	nop
800004ec:	fe042223 	sw	zero,-28(s0)
800004f0:	0980006f 	j	80000588 <aes_key_setup+0x120>
800004f4:	fe442783 	lw	a5,-28(s0)
800004f8:	00479793 	slli	a5,a5,0x4
800004fc:	fdc42703 	lw	a4,-36(s0)
80000500:	00f707b3 	add	a5,a4,a5
80000504:	0007a783 	lw	a5,0(a5)
80000508:	01879713 	slli	a4,a5,0x18
8000050c:	fe442783 	lw	a5,-28(s0)
80000510:	00479793 	slli	a5,a5,0x4
80000514:	00478793 	addi	a5,a5,4
80000518:	fdc42683 	lw	a3,-36(s0)
8000051c:	00f687b3 	add	a5,a3,a5
80000520:	0007a783 	lw	a5,0(a5)
80000524:	01079793 	slli	a5,a5,0x10
80000528:	00f76733 	or	a4,a4,a5
8000052c:	fe442783 	lw	a5,-28(s0)
80000530:	00479793 	slli	a5,a5,0x4
80000534:	00878793 	addi	a5,a5,8
80000538:	fdc42683 	lw	a3,-36(s0)
8000053c:	00f687b3 	add	a5,a3,a5
80000540:	0007a783 	lw	a5,0(a5)
80000544:	00879793 	slli	a5,a5,0x8
80000548:	00f766b3 	or	a3,a4,a5
8000054c:	fe442783 	lw	a5,-28(s0)
80000550:	00479793 	slli	a5,a5,0x4
80000554:	00c78793 	addi	a5,a5,12
80000558:	fdc42703 	lw	a4,-36(s0)
8000055c:	00f707b3 	add	a5,a4,a5
80000560:	0007a703 	lw	a4,0(a5)
80000564:	fe442783 	lw	a5,-28(s0)
80000568:	00279793 	slli	a5,a5,0x2
8000056c:	fd842603 	lw	a2,-40(s0)
80000570:	00f607b3 	add	a5,a2,a5
80000574:	00e6e733 	or	a4,a3,a4
80000578:	00e7a023 	sw	a4,0(a5)
8000057c:	fe442783 	lw	a5,-28(s0)
80000580:	00178793 	addi	a5,a5,1
80000584:	fef42223 	sw	a5,-28(s0)
80000588:	fe442703 	lw	a4,-28(s0)
8000058c:	fe842783 	lw	a5,-24(s0)
80000590:	f6f742e3 	blt	a4,a5,800004f4 <aes_key_setup+0x8c>
80000594:	fe842783 	lw	a5,-24(s0)
80000598:	fef42223 	sw	a5,-28(s0)
8000059c:	1380006f 	j	800006d4 <aes_key_setup+0x26c>
800005a0:	fe442703 	lw	a4,-28(s0)
800005a4:	400007b7 	lui	a5,0x40000
800005a8:	fff78793 	addi	a5,a5,-1 # 3fffffff <__internal_syscall-0x40000001>
800005ac:	00f707b3 	add	a5,a4,a5
800005b0:	00279793 	slli	a5,a5,0x2
800005b4:	fd842703 	lw	a4,-40(s0)
800005b8:	00f707b3 	add	a5,a4,a5
800005bc:	0007a703 	lw	a4,0(a5)
800005c0:	00006797 	auipc	a5,0x6
800005c4:	65478793 	addi	a5,a5,1620 # 80006c14 <temp.1066>
800005c8:	00e7a023 	sw	a4,0(a5)
800005cc:	fe442703 	lw	a4,-28(s0)
800005d0:	fe842783 	lw	a5,-24(s0)
800005d4:	02f767b3 	rem	a5,a4,a5
800005d8:	06079663 	bnez	a5,80000644 <aes_key_setup+0x1dc>
800005dc:	00006797 	auipc	a5,0x6
800005e0:	63878793 	addi	a5,a5,1592 # 80006c14 <temp.1066>
800005e4:	0007a783 	lw	a5,0(a5)
800005e8:	00879713 	slli	a4,a5,0x8
800005ec:	00006797 	auipc	a5,0x6
800005f0:	62878793 	addi	a5,a5,1576 # 80006c14 <temp.1066>
800005f4:	0007a783 	lw	a5,0(a5)
800005f8:	0187d793 	srli	a5,a5,0x18
800005fc:	00f767b3 	or	a5,a4,a5
80000600:	00078513 	mv	a0,a5
80000604:	d39ff0ef 	jal	ra,8000033c <SubWord>
80000608:	00050693 	mv	a3,a0
8000060c:	fe442783 	lw	a5,-28(s0)
80000610:	fff78713 	addi	a4,a5,-1
80000614:	fe842783 	lw	a5,-24(s0)
80000618:	02f747b3 	div	a5,a4,a5
8000061c:	00006717 	auipc	a4,0x6
80000620:	33070713 	addi	a4,a4,816 # 8000694c <Rcon.1067>
80000624:	00279793 	slli	a5,a5,0x2
80000628:	00f707b3 	add	a5,a4,a5
8000062c:	0007a783 	lw	a5,0(a5)
80000630:	00f6c733 	xor	a4,a3,a5
80000634:	00006797 	auipc	a5,0x6
80000638:	5e078793 	addi	a5,a5,1504 # 80006c14 <temp.1066>
8000063c:	00e7a023 	sw	a4,0(a5)
80000640:	0480006f 	j	80000688 <aes_key_setup+0x220>
80000644:	fe842703 	lw	a4,-24(s0)
80000648:	00600793 	li	a5,6
8000064c:	02e7de63 	ble	a4,a5,80000688 <aes_key_setup+0x220>
80000650:	fe442703 	lw	a4,-28(s0)
80000654:	fe842783 	lw	a5,-24(s0)
80000658:	02f76733 	rem	a4,a4,a5
8000065c:	00400793 	li	a5,4
80000660:	02f71463 	bne	a4,a5,80000688 <aes_key_setup+0x220>
80000664:	00006797 	auipc	a5,0x6
80000668:	5b078793 	addi	a5,a5,1456 # 80006c14 <temp.1066>
8000066c:	0007a783 	lw	a5,0(a5)
80000670:	00078513 	mv	a0,a5
80000674:	cc9ff0ef 	jal	ra,8000033c <SubWord>
80000678:	00050713 	mv	a4,a0
8000067c:	00006797 	auipc	a5,0x6
80000680:	59878793 	addi	a5,a5,1432 # 80006c14 <temp.1066>
80000684:	00e7a023 	sw	a4,0(a5)
80000688:	fe442703 	lw	a4,-28(s0)
8000068c:	fe842783 	lw	a5,-24(s0)
80000690:	40f707b3 	sub	a5,a4,a5
80000694:	00279793 	slli	a5,a5,0x2
80000698:	fd842703 	lw	a4,-40(s0)
8000069c:	00f707b3 	add	a5,a4,a5
800006a0:	0007a683 	lw	a3,0(a5)
800006a4:	00006797 	auipc	a5,0x6
800006a8:	57078793 	addi	a5,a5,1392 # 80006c14 <temp.1066>
800006ac:	0007a703 	lw	a4,0(a5)
800006b0:	fe442783 	lw	a5,-28(s0)
800006b4:	00279793 	slli	a5,a5,0x2
800006b8:	fd842603 	lw	a2,-40(s0)
800006bc:	00f607b3 	add	a5,a2,a5
800006c0:	00e6c733 	xor	a4,a3,a4
800006c4:	00e7a023 	sw	a4,0(a5)
800006c8:	fe442783 	lw	a5,-28(s0)
800006cc:	00178793 	addi	a5,a5,1
800006d0:	fef42223 	sw	a5,-28(s0)
800006d4:	fec42783 	lw	a5,-20(s0)
800006d8:	00178713 	addi	a4,a5,1
800006dc:	fe042783 	lw	a5,-32(s0)
800006e0:	02f707b3 	mul	a5,a4,a5
800006e4:	fe442703 	lw	a4,-28(s0)
800006e8:	eaf74ce3 	blt	a4,a5,800005a0 <aes_key_setup+0x138>
800006ec:	0080006f 	j	800006f4 <aes_key_setup+0x28c>
800006f0:	00000013 	nop
800006f4:	02c12083 	lw	ra,44(sp)
800006f8:	02812403 	lw	s0,40(sp)
800006fc:	03010113 	addi	sp,sp,48
80000700:	00008067 	ret

80000704 <AddRoundKey>:
80000704:	fd010113 	addi	sp,sp,-48
80000708:	02812623 	sw	s0,44(sp)
8000070c:	03010413 	addi	s0,sp,48
80000710:	fca42e23 	sw	a0,-36(s0)
80000714:	fcb42c23 	sw	a1,-40(s0)
80000718:	fd842783 	lw	a5,-40(s0)
8000071c:	0007a783 	lw	a5,0(a5)
80000720:	0187d793 	srli	a5,a5,0x18
80000724:	fef42023 	sw	a5,-32(s0)
80000728:	fd842783 	lw	a5,-40(s0)
8000072c:	0007a783 	lw	a5,0(a5)
80000730:	0107d793 	srli	a5,a5,0x10
80000734:	0ff7f793 	andi	a5,a5,255
80000738:	fef42223 	sw	a5,-28(s0)
8000073c:	fd842783 	lw	a5,-40(s0)
80000740:	0007a783 	lw	a5,0(a5)
80000744:	0087d793 	srli	a5,a5,0x8
80000748:	0ff7f793 	andi	a5,a5,255
8000074c:	fef42423 	sw	a5,-24(s0)
80000750:	fd842783 	lw	a5,-40(s0)
80000754:	0007a783 	lw	a5,0(a5)
80000758:	0ff7f793 	andi	a5,a5,255
8000075c:	fef42623 	sw	a5,-20(s0)
80000760:	fdc42783 	lw	a5,-36(s0)
80000764:	0007a703 	lw	a4,0(a5)
80000768:	fe042783 	lw	a5,-32(s0)
8000076c:	00f74733 	xor	a4,a4,a5
80000770:	fdc42783 	lw	a5,-36(s0)
80000774:	00e7a023 	sw	a4,0(a5)
80000778:	fdc42783 	lw	a5,-36(s0)
8000077c:	01078793 	addi	a5,a5,16
80000780:	0007a683 	lw	a3,0(a5)
80000784:	fe442703 	lw	a4,-28(s0)
80000788:	fdc42783 	lw	a5,-36(s0)
8000078c:	01078793 	addi	a5,a5,16
80000790:	00e6c733 	xor	a4,a3,a4
80000794:	00e7a023 	sw	a4,0(a5)
80000798:	fdc42783 	lw	a5,-36(s0)
8000079c:	02078793 	addi	a5,a5,32
800007a0:	0007a683 	lw	a3,0(a5)
800007a4:	fe842703 	lw	a4,-24(s0)
800007a8:	fdc42783 	lw	a5,-36(s0)
800007ac:	02078793 	addi	a5,a5,32
800007b0:	00e6c733 	xor	a4,a3,a4
800007b4:	00e7a023 	sw	a4,0(a5)
800007b8:	fdc42783 	lw	a5,-36(s0)
800007bc:	03078793 	addi	a5,a5,48
800007c0:	0007a683 	lw	a3,0(a5)
800007c4:	fec42703 	lw	a4,-20(s0)
800007c8:	fdc42783 	lw	a5,-36(s0)
800007cc:	03078793 	addi	a5,a5,48
800007d0:	00e6c733 	xor	a4,a3,a4
800007d4:	00e7a023 	sw	a4,0(a5)
800007d8:	fd842783 	lw	a5,-40(s0)
800007dc:	00478793 	addi	a5,a5,4
800007e0:	0007a783 	lw	a5,0(a5)
800007e4:	0187d793 	srli	a5,a5,0x18
800007e8:	fef42023 	sw	a5,-32(s0)
800007ec:	fd842783 	lw	a5,-40(s0)
800007f0:	00478793 	addi	a5,a5,4
800007f4:	0007a783 	lw	a5,0(a5)
800007f8:	0107d793 	srli	a5,a5,0x10
800007fc:	0ff7f793 	andi	a5,a5,255
80000800:	fef42223 	sw	a5,-28(s0)
80000804:	fd842783 	lw	a5,-40(s0)
80000808:	00478793 	addi	a5,a5,4
8000080c:	0007a783 	lw	a5,0(a5)
80000810:	0087d793 	srli	a5,a5,0x8
80000814:	0ff7f793 	andi	a5,a5,255
80000818:	fef42423 	sw	a5,-24(s0)
8000081c:	fd842783 	lw	a5,-40(s0)
80000820:	00478793 	addi	a5,a5,4
80000824:	0007a783 	lw	a5,0(a5)
80000828:	0ff7f793 	andi	a5,a5,255
8000082c:	fef42623 	sw	a5,-20(s0)
80000830:	fdc42783 	lw	a5,-36(s0)
80000834:	0047a703 	lw	a4,4(a5)
80000838:	fe042783 	lw	a5,-32(s0)
8000083c:	00f74733 	xor	a4,a4,a5
80000840:	fdc42783 	lw	a5,-36(s0)
80000844:	00e7a223 	sw	a4,4(a5)
80000848:	fdc42783 	lw	a5,-36(s0)
8000084c:	01078793 	addi	a5,a5,16
80000850:	0047a683 	lw	a3,4(a5)
80000854:	fe442703 	lw	a4,-28(s0)
80000858:	fdc42783 	lw	a5,-36(s0)
8000085c:	01078793 	addi	a5,a5,16
80000860:	00e6c733 	xor	a4,a3,a4
80000864:	00e7a223 	sw	a4,4(a5)
80000868:	fdc42783 	lw	a5,-36(s0)
8000086c:	02078793 	addi	a5,a5,32
80000870:	0047a683 	lw	a3,4(a5)
80000874:	fe842703 	lw	a4,-24(s0)
80000878:	fdc42783 	lw	a5,-36(s0)
8000087c:	02078793 	addi	a5,a5,32
80000880:	00e6c733 	xor	a4,a3,a4
80000884:	00e7a223 	sw	a4,4(a5)
80000888:	fdc42783 	lw	a5,-36(s0)
8000088c:	03078793 	addi	a5,a5,48
80000890:	0047a683 	lw	a3,4(a5)
80000894:	fec42703 	lw	a4,-20(s0)
80000898:	fdc42783 	lw	a5,-36(s0)
8000089c:	03078793 	addi	a5,a5,48
800008a0:	00e6c733 	xor	a4,a3,a4
800008a4:	00e7a223 	sw	a4,4(a5)
800008a8:	fd842783 	lw	a5,-40(s0)
800008ac:	00878793 	addi	a5,a5,8
800008b0:	0007a783 	lw	a5,0(a5)
800008b4:	0187d793 	srli	a5,a5,0x18
800008b8:	fef42023 	sw	a5,-32(s0)
800008bc:	fd842783 	lw	a5,-40(s0)
800008c0:	00878793 	addi	a5,a5,8
800008c4:	0007a783 	lw	a5,0(a5)
800008c8:	0107d793 	srli	a5,a5,0x10
800008cc:	0ff7f793 	andi	a5,a5,255
800008d0:	fef42223 	sw	a5,-28(s0)
800008d4:	fd842783 	lw	a5,-40(s0)
800008d8:	00878793 	addi	a5,a5,8
800008dc:	0007a783 	lw	a5,0(a5)
800008e0:	0087d793 	srli	a5,a5,0x8
800008e4:	0ff7f793 	andi	a5,a5,255
800008e8:	fef42423 	sw	a5,-24(s0)
800008ec:	fd842783 	lw	a5,-40(s0)
800008f0:	00878793 	addi	a5,a5,8
800008f4:	0007a783 	lw	a5,0(a5)
800008f8:	0ff7f793 	andi	a5,a5,255
800008fc:	fef42623 	sw	a5,-20(s0)
80000900:	fdc42783 	lw	a5,-36(s0)
80000904:	0087a703 	lw	a4,8(a5)
80000908:	fe042783 	lw	a5,-32(s0)
8000090c:	00f74733 	xor	a4,a4,a5
80000910:	fdc42783 	lw	a5,-36(s0)
80000914:	00e7a423 	sw	a4,8(a5)
80000918:	fdc42783 	lw	a5,-36(s0)
8000091c:	01078793 	addi	a5,a5,16
80000920:	0087a683 	lw	a3,8(a5)
80000924:	fe442703 	lw	a4,-28(s0)
80000928:	fdc42783 	lw	a5,-36(s0)
8000092c:	01078793 	addi	a5,a5,16
80000930:	00e6c733 	xor	a4,a3,a4
80000934:	00e7a423 	sw	a4,8(a5)
80000938:	fdc42783 	lw	a5,-36(s0)
8000093c:	02078793 	addi	a5,a5,32
80000940:	0087a683 	lw	a3,8(a5)
80000944:	fe842703 	lw	a4,-24(s0)
80000948:	fdc42783 	lw	a5,-36(s0)
8000094c:	02078793 	addi	a5,a5,32
80000950:	00e6c733 	xor	a4,a3,a4
80000954:	00e7a423 	sw	a4,8(a5)
80000958:	fdc42783 	lw	a5,-36(s0)
8000095c:	03078793 	addi	a5,a5,48
80000960:	0087a683 	lw	a3,8(a5)
80000964:	fec42703 	lw	a4,-20(s0)
80000968:	fdc42783 	lw	a5,-36(s0)
8000096c:	03078793 	addi	a5,a5,48
80000970:	00e6c733 	xor	a4,a3,a4
80000974:	00e7a423 	sw	a4,8(a5)
80000978:	fd842783 	lw	a5,-40(s0)
8000097c:	00c78793 	addi	a5,a5,12
80000980:	0007a783 	lw	a5,0(a5)
80000984:	0187d793 	srli	a5,a5,0x18
80000988:	fef42023 	sw	a5,-32(s0)
8000098c:	fd842783 	lw	a5,-40(s0)
80000990:	00c78793 	addi	a5,a5,12
80000994:	0007a783 	lw	a5,0(a5)
80000998:	0107d793 	srli	a5,a5,0x10
8000099c:	0ff7f793 	andi	a5,a5,255
800009a0:	fef42223 	sw	a5,-28(s0)
800009a4:	fd842783 	lw	a5,-40(s0)
800009a8:	00c78793 	addi	a5,a5,12
800009ac:	0007a783 	lw	a5,0(a5)
800009b0:	0087d793 	srli	a5,a5,0x8
800009b4:	0ff7f793 	andi	a5,a5,255
800009b8:	fef42423 	sw	a5,-24(s0)
800009bc:	fd842783 	lw	a5,-40(s0)
800009c0:	00c78793 	addi	a5,a5,12
800009c4:	0007a783 	lw	a5,0(a5)
800009c8:	0ff7f793 	andi	a5,a5,255
800009cc:	fef42623 	sw	a5,-20(s0)
800009d0:	fdc42783 	lw	a5,-36(s0)
800009d4:	00c7a703 	lw	a4,12(a5)
800009d8:	fe042783 	lw	a5,-32(s0)
800009dc:	00f74733 	xor	a4,a4,a5
800009e0:	fdc42783 	lw	a5,-36(s0)
800009e4:	00e7a623 	sw	a4,12(a5)
800009e8:	fdc42783 	lw	a5,-36(s0)
800009ec:	01078793 	addi	a5,a5,16
800009f0:	00c7a683 	lw	a3,12(a5)
800009f4:	fe442703 	lw	a4,-28(s0)
800009f8:	fdc42783 	lw	a5,-36(s0)
800009fc:	01078793 	addi	a5,a5,16
80000a00:	00e6c733 	xor	a4,a3,a4
80000a04:	00e7a623 	sw	a4,12(a5)
80000a08:	fdc42783 	lw	a5,-36(s0)
80000a0c:	02078793 	addi	a5,a5,32
80000a10:	00c7a683 	lw	a3,12(a5)
80000a14:	fe842703 	lw	a4,-24(s0)
80000a18:	fdc42783 	lw	a5,-36(s0)
80000a1c:	02078793 	addi	a5,a5,32
80000a20:	00e6c733 	xor	a4,a3,a4
80000a24:	00e7a623 	sw	a4,12(a5)
80000a28:	fdc42783 	lw	a5,-36(s0)
80000a2c:	03078793 	addi	a5,a5,48
80000a30:	00c7a683 	lw	a3,12(a5)
80000a34:	fec42703 	lw	a4,-20(s0)
80000a38:	fdc42783 	lw	a5,-36(s0)
80000a3c:	03078793 	addi	a5,a5,48
80000a40:	00e6c733 	xor	a4,a3,a4
80000a44:	00e7a623 	sw	a4,12(a5)
80000a48:	00000013 	nop
80000a4c:	02c12403 	lw	s0,44(sp)
80000a50:	03010113 	addi	sp,sp,48
80000a54:	00008067 	ret

80000a58 <SubBytes>:
80000a58:	fe010113 	addi	sp,sp,-32
80000a5c:	00812e23 	sw	s0,28(sp)
80000a60:	02010413 	addi	s0,sp,32
80000a64:	fea42623 	sw	a0,-20(s0)
80000a68:	fec42783 	lw	a5,-20(s0)
80000a6c:	0007a783 	lw	a5,0(a5)
80000a70:	0047d693 	srli	a3,a5,0x4
80000a74:	fec42783 	lw	a5,-20(s0)
80000a78:	0007a783 	lw	a5,0(a5)
80000a7c:	00f7f793 	andi	a5,a5,15
80000a80:	00004717 	auipc	a4,0x4
80000a84:	e3c70713 	addi	a4,a4,-452 # 800048bc <aes_sbox>
80000a88:	00469693 	slli	a3,a3,0x4
80000a8c:	00f687b3 	add	a5,a3,a5
80000a90:	00279793 	slli	a5,a5,0x2
80000a94:	00f707b3 	add	a5,a4,a5
80000a98:	0007a703 	lw	a4,0(a5)
80000a9c:	fec42783 	lw	a5,-20(s0)
80000aa0:	00e7a023 	sw	a4,0(a5)
80000aa4:	fec42783 	lw	a5,-20(s0)
80000aa8:	0047a783 	lw	a5,4(a5)
80000aac:	0047d693 	srli	a3,a5,0x4
80000ab0:	fec42783 	lw	a5,-20(s0)
80000ab4:	0047a783 	lw	a5,4(a5)
80000ab8:	00f7f793 	andi	a5,a5,15
80000abc:	00004717 	auipc	a4,0x4
80000ac0:	e0070713 	addi	a4,a4,-512 # 800048bc <aes_sbox>
80000ac4:	00469693 	slli	a3,a3,0x4
80000ac8:	00f687b3 	add	a5,a3,a5
80000acc:	00279793 	slli	a5,a5,0x2
80000ad0:	00f707b3 	add	a5,a4,a5
80000ad4:	0007a703 	lw	a4,0(a5)
80000ad8:	fec42783 	lw	a5,-20(s0)
80000adc:	00e7a223 	sw	a4,4(a5)
80000ae0:	fec42783 	lw	a5,-20(s0)
80000ae4:	0087a783 	lw	a5,8(a5)
80000ae8:	0047d693 	srli	a3,a5,0x4
80000aec:	fec42783 	lw	a5,-20(s0)
80000af0:	0087a783 	lw	a5,8(a5)
80000af4:	00f7f793 	andi	a5,a5,15
80000af8:	00004717 	auipc	a4,0x4
80000afc:	dc470713 	addi	a4,a4,-572 # 800048bc <aes_sbox>
80000b00:	00469693 	slli	a3,a3,0x4
80000b04:	00f687b3 	add	a5,a3,a5
80000b08:	00279793 	slli	a5,a5,0x2
80000b0c:	00f707b3 	add	a5,a4,a5
80000b10:	0007a703 	lw	a4,0(a5)
80000b14:	fec42783 	lw	a5,-20(s0)
80000b18:	00e7a423 	sw	a4,8(a5)
80000b1c:	fec42783 	lw	a5,-20(s0)
80000b20:	00c7a783 	lw	a5,12(a5)
80000b24:	0047d693 	srli	a3,a5,0x4
80000b28:	fec42783 	lw	a5,-20(s0)
80000b2c:	00c7a783 	lw	a5,12(a5)
80000b30:	00f7f793 	andi	a5,a5,15
80000b34:	00004717 	auipc	a4,0x4
80000b38:	d8870713 	addi	a4,a4,-632 # 800048bc <aes_sbox>
80000b3c:	00469693 	slli	a3,a3,0x4
80000b40:	00f687b3 	add	a5,a3,a5
80000b44:	00279793 	slli	a5,a5,0x2
80000b48:	00f707b3 	add	a5,a4,a5
80000b4c:	0007a703 	lw	a4,0(a5)
80000b50:	fec42783 	lw	a5,-20(s0)
80000b54:	00e7a623 	sw	a4,12(a5)
80000b58:	fec42783 	lw	a5,-20(s0)
80000b5c:	01078793 	addi	a5,a5,16
80000b60:	0007a783 	lw	a5,0(a5)
80000b64:	0047d613 	srli	a2,a5,0x4
80000b68:	fec42783 	lw	a5,-20(s0)
80000b6c:	01078793 	addi	a5,a5,16
80000b70:	0007a783 	lw	a5,0(a5)
80000b74:	00f7f713 	andi	a4,a5,15
80000b78:	fec42783 	lw	a5,-20(s0)
80000b7c:	01078793 	addi	a5,a5,16
80000b80:	00004697 	auipc	a3,0x4
80000b84:	d3c68693 	addi	a3,a3,-708 # 800048bc <aes_sbox>
80000b88:	00461613 	slli	a2,a2,0x4
80000b8c:	00e60733 	add	a4,a2,a4
80000b90:	00271713 	slli	a4,a4,0x2
80000b94:	00e68733 	add	a4,a3,a4
80000b98:	00072703 	lw	a4,0(a4)
80000b9c:	00e7a023 	sw	a4,0(a5)
80000ba0:	fec42783 	lw	a5,-20(s0)
80000ba4:	01078793 	addi	a5,a5,16
80000ba8:	0047a783 	lw	a5,4(a5)
80000bac:	0047d613 	srli	a2,a5,0x4
80000bb0:	fec42783 	lw	a5,-20(s0)
80000bb4:	01078793 	addi	a5,a5,16
80000bb8:	0047a783 	lw	a5,4(a5)
80000bbc:	00f7f713 	andi	a4,a5,15
80000bc0:	fec42783 	lw	a5,-20(s0)
80000bc4:	01078793 	addi	a5,a5,16
80000bc8:	00004697 	auipc	a3,0x4
80000bcc:	cf468693 	addi	a3,a3,-780 # 800048bc <aes_sbox>
80000bd0:	00461613 	slli	a2,a2,0x4
80000bd4:	00e60733 	add	a4,a2,a4
80000bd8:	00271713 	slli	a4,a4,0x2
80000bdc:	00e68733 	add	a4,a3,a4
80000be0:	00072703 	lw	a4,0(a4)
80000be4:	00e7a223 	sw	a4,4(a5)
80000be8:	fec42783 	lw	a5,-20(s0)
80000bec:	01078793 	addi	a5,a5,16
80000bf0:	0087a783 	lw	a5,8(a5)
80000bf4:	0047d613 	srli	a2,a5,0x4
80000bf8:	fec42783 	lw	a5,-20(s0)
80000bfc:	01078793 	addi	a5,a5,16
80000c00:	0087a783 	lw	a5,8(a5)
80000c04:	00f7f713 	andi	a4,a5,15
80000c08:	fec42783 	lw	a5,-20(s0)
80000c0c:	01078793 	addi	a5,a5,16
80000c10:	00004697 	auipc	a3,0x4
80000c14:	cac68693 	addi	a3,a3,-852 # 800048bc <aes_sbox>
80000c18:	00461613 	slli	a2,a2,0x4
80000c1c:	00e60733 	add	a4,a2,a4
80000c20:	00271713 	slli	a4,a4,0x2
80000c24:	00e68733 	add	a4,a3,a4
80000c28:	00072703 	lw	a4,0(a4)
80000c2c:	00e7a423 	sw	a4,8(a5)
80000c30:	fec42783 	lw	a5,-20(s0)
80000c34:	01078793 	addi	a5,a5,16
80000c38:	00c7a783 	lw	a5,12(a5)
80000c3c:	0047d613 	srli	a2,a5,0x4
80000c40:	fec42783 	lw	a5,-20(s0)
80000c44:	01078793 	addi	a5,a5,16
80000c48:	00c7a783 	lw	a5,12(a5)
80000c4c:	00f7f713 	andi	a4,a5,15
80000c50:	fec42783 	lw	a5,-20(s0)
80000c54:	01078793 	addi	a5,a5,16
80000c58:	00004697 	auipc	a3,0x4
80000c5c:	c6468693 	addi	a3,a3,-924 # 800048bc <aes_sbox>
80000c60:	00461613 	slli	a2,a2,0x4
80000c64:	00e60733 	add	a4,a2,a4
80000c68:	00271713 	slli	a4,a4,0x2
80000c6c:	00e68733 	add	a4,a3,a4
80000c70:	00072703 	lw	a4,0(a4)
80000c74:	00e7a623 	sw	a4,12(a5)
80000c78:	fec42783 	lw	a5,-20(s0)
80000c7c:	02078793 	addi	a5,a5,32
80000c80:	0007a783 	lw	a5,0(a5)
80000c84:	0047d613 	srli	a2,a5,0x4
80000c88:	fec42783 	lw	a5,-20(s0)
80000c8c:	02078793 	addi	a5,a5,32
80000c90:	0007a783 	lw	a5,0(a5)
80000c94:	00f7f713 	andi	a4,a5,15
80000c98:	fec42783 	lw	a5,-20(s0)
80000c9c:	02078793 	addi	a5,a5,32
80000ca0:	00004697 	auipc	a3,0x4
80000ca4:	c1c68693 	addi	a3,a3,-996 # 800048bc <aes_sbox>
80000ca8:	00461613 	slli	a2,a2,0x4
80000cac:	00e60733 	add	a4,a2,a4
80000cb0:	00271713 	slli	a4,a4,0x2
80000cb4:	00e68733 	add	a4,a3,a4
80000cb8:	00072703 	lw	a4,0(a4)
80000cbc:	00e7a023 	sw	a4,0(a5)
80000cc0:	fec42783 	lw	a5,-20(s0)
80000cc4:	02078793 	addi	a5,a5,32
80000cc8:	0047a783 	lw	a5,4(a5)
80000ccc:	0047d613 	srli	a2,a5,0x4
80000cd0:	fec42783 	lw	a5,-20(s0)
80000cd4:	02078793 	addi	a5,a5,32
80000cd8:	0047a783 	lw	a5,4(a5)
80000cdc:	00f7f713 	andi	a4,a5,15
80000ce0:	fec42783 	lw	a5,-20(s0)
80000ce4:	02078793 	addi	a5,a5,32
80000ce8:	00004697 	auipc	a3,0x4
80000cec:	bd468693 	addi	a3,a3,-1068 # 800048bc <aes_sbox>
80000cf0:	00461613 	slli	a2,a2,0x4
80000cf4:	00e60733 	add	a4,a2,a4
80000cf8:	00271713 	slli	a4,a4,0x2
80000cfc:	00e68733 	add	a4,a3,a4
80000d00:	00072703 	lw	a4,0(a4)
80000d04:	00e7a223 	sw	a4,4(a5)
80000d08:	fec42783 	lw	a5,-20(s0)
80000d0c:	02078793 	addi	a5,a5,32
80000d10:	0087a783 	lw	a5,8(a5)
80000d14:	0047d613 	srli	a2,a5,0x4
80000d18:	fec42783 	lw	a5,-20(s0)
80000d1c:	02078793 	addi	a5,a5,32
80000d20:	0087a783 	lw	a5,8(a5)
80000d24:	00f7f713 	andi	a4,a5,15
80000d28:	fec42783 	lw	a5,-20(s0)
80000d2c:	02078793 	addi	a5,a5,32
80000d30:	00004697 	auipc	a3,0x4
80000d34:	b8c68693 	addi	a3,a3,-1140 # 800048bc <aes_sbox>
80000d38:	00461613 	slli	a2,a2,0x4
80000d3c:	00e60733 	add	a4,a2,a4
80000d40:	00271713 	slli	a4,a4,0x2
80000d44:	00e68733 	add	a4,a3,a4
80000d48:	00072703 	lw	a4,0(a4)
80000d4c:	00e7a423 	sw	a4,8(a5)
80000d50:	fec42783 	lw	a5,-20(s0)
80000d54:	02078793 	addi	a5,a5,32
80000d58:	00c7a783 	lw	a5,12(a5)
80000d5c:	0047d613 	srli	a2,a5,0x4
80000d60:	fec42783 	lw	a5,-20(s0)
80000d64:	02078793 	addi	a5,a5,32
80000d68:	00c7a783 	lw	a5,12(a5)
80000d6c:	00f7f713 	andi	a4,a5,15
80000d70:	fec42783 	lw	a5,-20(s0)
80000d74:	02078793 	addi	a5,a5,32
80000d78:	00004697 	auipc	a3,0x4
80000d7c:	b4468693 	addi	a3,a3,-1212 # 800048bc <aes_sbox>
80000d80:	00461613 	slli	a2,a2,0x4
80000d84:	00e60733 	add	a4,a2,a4
80000d88:	00271713 	slli	a4,a4,0x2
80000d8c:	00e68733 	add	a4,a3,a4
80000d90:	00072703 	lw	a4,0(a4)
80000d94:	00e7a623 	sw	a4,12(a5)
80000d98:	fec42783 	lw	a5,-20(s0)
80000d9c:	03078793 	addi	a5,a5,48
80000da0:	0007a783 	lw	a5,0(a5)
80000da4:	0047d613 	srli	a2,a5,0x4
80000da8:	fec42783 	lw	a5,-20(s0)
80000dac:	03078793 	addi	a5,a5,48
80000db0:	0007a783 	lw	a5,0(a5)
80000db4:	00f7f713 	andi	a4,a5,15
80000db8:	fec42783 	lw	a5,-20(s0)
80000dbc:	03078793 	addi	a5,a5,48
80000dc0:	00004697 	auipc	a3,0x4
80000dc4:	afc68693 	addi	a3,a3,-1284 # 800048bc <aes_sbox>
80000dc8:	00461613 	slli	a2,a2,0x4
80000dcc:	00e60733 	add	a4,a2,a4
80000dd0:	00271713 	slli	a4,a4,0x2
80000dd4:	00e68733 	add	a4,a3,a4
80000dd8:	00072703 	lw	a4,0(a4)
80000ddc:	00e7a023 	sw	a4,0(a5)
80000de0:	fec42783 	lw	a5,-20(s0)
80000de4:	03078793 	addi	a5,a5,48
80000de8:	0047a783 	lw	a5,4(a5)
80000dec:	0047d613 	srli	a2,a5,0x4
80000df0:	fec42783 	lw	a5,-20(s0)
80000df4:	03078793 	addi	a5,a5,48
80000df8:	0047a783 	lw	a5,4(a5)
80000dfc:	00f7f713 	andi	a4,a5,15
80000e00:	fec42783 	lw	a5,-20(s0)
80000e04:	03078793 	addi	a5,a5,48
80000e08:	00004697 	auipc	a3,0x4
80000e0c:	ab468693 	addi	a3,a3,-1356 # 800048bc <aes_sbox>
80000e10:	00461613 	slli	a2,a2,0x4
80000e14:	00e60733 	add	a4,a2,a4
80000e18:	00271713 	slli	a4,a4,0x2
80000e1c:	00e68733 	add	a4,a3,a4
80000e20:	00072703 	lw	a4,0(a4)
80000e24:	00e7a223 	sw	a4,4(a5)
80000e28:	fec42783 	lw	a5,-20(s0)
80000e2c:	03078793 	addi	a5,a5,48
80000e30:	0087a783 	lw	a5,8(a5)
80000e34:	0047d613 	srli	a2,a5,0x4
80000e38:	fec42783 	lw	a5,-20(s0)
80000e3c:	03078793 	addi	a5,a5,48
80000e40:	0087a783 	lw	a5,8(a5)
80000e44:	00f7f713 	andi	a4,a5,15
80000e48:	fec42783 	lw	a5,-20(s0)
80000e4c:	03078793 	addi	a5,a5,48
80000e50:	00004697 	auipc	a3,0x4
80000e54:	a6c68693 	addi	a3,a3,-1428 # 800048bc <aes_sbox>
80000e58:	00461613 	slli	a2,a2,0x4
80000e5c:	00e60733 	add	a4,a2,a4
80000e60:	00271713 	slli	a4,a4,0x2
80000e64:	00e68733 	add	a4,a3,a4
80000e68:	00072703 	lw	a4,0(a4)
80000e6c:	00e7a423 	sw	a4,8(a5)
80000e70:	fec42783 	lw	a5,-20(s0)
80000e74:	03078793 	addi	a5,a5,48
80000e78:	00c7a783 	lw	a5,12(a5)
80000e7c:	0047d613 	srli	a2,a5,0x4
80000e80:	fec42783 	lw	a5,-20(s0)
80000e84:	03078793 	addi	a5,a5,48
80000e88:	00c7a783 	lw	a5,12(a5)
80000e8c:	00f7f713 	andi	a4,a5,15
80000e90:	fec42783 	lw	a5,-20(s0)
80000e94:	03078793 	addi	a5,a5,48
80000e98:	00004697 	auipc	a3,0x4
80000e9c:	a2468693 	addi	a3,a3,-1500 # 800048bc <aes_sbox>
80000ea0:	00461613 	slli	a2,a2,0x4
80000ea4:	00e60733 	add	a4,a2,a4
80000ea8:	00271713 	slli	a4,a4,0x2
80000eac:	00e68733 	add	a4,a3,a4
80000eb0:	00072703 	lw	a4,0(a4)
80000eb4:	00e7a623 	sw	a4,12(a5)
80000eb8:	00000013 	nop
80000ebc:	01c12403 	lw	s0,28(sp)
80000ec0:	02010113 	addi	sp,sp,32
80000ec4:	00008067 	ret

80000ec8 <InvSubBytes>:
80000ec8:	fe010113 	addi	sp,sp,-32
80000ecc:	00812e23 	sw	s0,28(sp)
80000ed0:	02010413 	addi	s0,sp,32
80000ed4:	fea42623 	sw	a0,-20(s0)
80000ed8:	fec42783 	lw	a5,-20(s0)
80000edc:	0007a783 	lw	a5,0(a5)
80000ee0:	0047d693 	srli	a3,a5,0x4
80000ee4:	fec42783 	lw	a5,-20(s0)
80000ee8:	0007a783 	lw	a5,0(a5)
80000eec:	00f7f793 	andi	a5,a5,15
80000ef0:	00004717 	auipc	a4,0x4
80000ef4:	dcc70713 	addi	a4,a4,-564 # 80004cbc <aes_invsbox>
80000ef8:	00469693 	slli	a3,a3,0x4
80000efc:	00f687b3 	add	a5,a3,a5
80000f00:	00279793 	slli	a5,a5,0x2
80000f04:	00f707b3 	add	a5,a4,a5
80000f08:	0007a703 	lw	a4,0(a5)
80000f0c:	fec42783 	lw	a5,-20(s0)
80000f10:	00e7a023 	sw	a4,0(a5)
80000f14:	fec42783 	lw	a5,-20(s0)
80000f18:	0047a783 	lw	a5,4(a5)
80000f1c:	0047d693 	srli	a3,a5,0x4
80000f20:	fec42783 	lw	a5,-20(s0)
80000f24:	0047a783 	lw	a5,4(a5)
80000f28:	00f7f793 	andi	a5,a5,15
80000f2c:	00004717 	auipc	a4,0x4
80000f30:	d9070713 	addi	a4,a4,-624 # 80004cbc <aes_invsbox>
80000f34:	00469693 	slli	a3,a3,0x4
80000f38:	00f687b3 	add	a5,a3,a5
80000f3c:	00279793 	slli	a5,a5,0x2
80000f40:	00f707b3 	add	a5,a4,a5
80000f44:	0007a703 	lw	a4,0(a5)
80000f48:	fec42783 	lw	a5,-20(s0)
80000f4c:	00e7a223 	sw	a4,4(a5)
80000f50:	fec42783 	lw	a5,-20(s0)
80000f54:	0087a783 	lw	a5,8(a5)
80000f58:	0047d693 	srli	a3,a5,0x4
80000f5c:	fec42783 	lw	a5,-20(s0)
80000f60:	0087a783 	lw	a5,8(a5)
80000f64:	00f7f793 	andi	a5,a5,15
80000f68:	00004717 	auipc	a4,0x4
80000f6c:	d5470713 	addi	a4,a4,-684 # 80004cbc <aes_invsbox>
80000f70:	00469693 	slli	a3,a3,0x4
80000f74:	00f687b3 	add	a5,a3,a5
80000f78:	00279793 	slli	a5,a5,0x2
80000f7c:	00f707b3 	add	a5,a4,a5
80000f80:	0007a703 	lw	a4,0(a5)
80000f84:	fec42783 	lw	a5,-20(s0)
80000f88:	00e7a423 	sw	a4,8(a5)
80000f8c:	fec42783 	lw	a5,-20(s0)
80000f90:	00c7a783 	lw	a5,12(a5)
80000f94:	0047d693 	srli	a3,a5,0x4
80000f98:	fec42783 	lw	a5,-20(s0)
80000f9c:	00c7a783 	lw	a5,12(a5)
80000fa0:	00f7f793 	andi	a5,a5,15
80000fa4:	00004717 	auipc	a4,0x4
80000fa8:	d1870713 	addi	a4,a4,-744 # 80004cbc <aes_invsbox>
80000fac:	00469693 	slli	a3,a3,0x4
80000fb0:	00f687b3 	add	a5,a3,a5
80000fb4:	00279793 	slli	a5,a5,0x2
80000fb8:	00f707b3 	add	a5,a4,a5
80000fbc:	0007a703 	lw	a4,0(a5)
80000fc0:	fec42783 	lw	a5,-20(s0)
80000fc4:	00e7a623 	sw	a4,12(a5)
80000fc8:	fec42783 	lw	a5,-20(s0)
80000fcc:	01078793 	addi	a5,a5,16
80000fd0:	0007a783 	lw	a5,0(a5)
80000fd4:	0047d613 	srli	a2,a5,0x4
80000fd8:	fec42783 	lw	a5,-20(s0)
80000fdc:	01078793 	addi	a5,a5,16
80000fe0:	0007a783 	lw	a5,0(a5)
80000fe4:	00f7f713 	andi	a4,a5,15
80000fe8:	fec42783 	lw	a5,-20(s0)
80000fec:	01078793 	addi	a5,a5,16
80000ff0:	00004697 	auipc	a3,0x4
80000ff4:	ccc68693 	addi	a3,a3,-820 # 80004cbc <aes_invsbox>
80000ff8:	00461613 	slli	a2,a2,0x4
80000ffc:	00e60733 	add	a4,a2,a4
80001000:	00271713 	slli	a4,a4,0x2
80001004:	00e68733 	add	a4,a3,a4
80001008:	00072703 	lw	a4,0(a4)
8000100c:	00e7a023 	sw	a4,0(a5)
80001010:	fec42783 	lw	a5,-20(s0)
80001014:	01078793 	addi	a5,a5,16
80001018:	0047a783 	lw	a5,4(a5)
8000101c:	0047d613 	srli	a2,a5,0x4
80001020:	fec42783 	lw	a5,-20(s0)
80001024:	01078793 	addi	a5,a5,16
80001028:	0047a783 	lw	a5,4(a5)
8000102c:	00f7f713 	andi	a4,a5,15
80001030:	fec42783 	lw	a5,-20(s0)
80001034:	01078793 	addi	a5,a5,16
80001038:	00004697 	auipc	a3,0x4
8000103c:	c8468693 	addi	a3,a3,-892 # 80004cbc <aes_invsbox>
80001040:	00461613 	slli	a2,a2,0x4
80001044:	00e60733 	add	a4,a2,a4
80001048:	00271713 	slli	a4,a4,0x2
8000104c:	00e68733 	add	a4,a3,a4
80001050:	00072703 	lw	a4,0(a4)
80001054:	00e7a223 	sw	a4,4(a5)
80001058:	fec42783 	lw	a5,-20(s0)
8000105c:	01078793 	addi	a5,a5,16
80001060:	0087a783 	lw	a5,8(a5)
80001064:	0047d613 	srli	a2,a5,0x4
80001068:	fec42783 	lw	a5,-20(s0)
8000106c:	01078793 	addi	a5,a5,16
80001070:	0087a783 	lw	a5,8(a5)
80001074:	00f7f713 	andi	a4,a5,15
80001078:	fec42783 	lw	a5,-20(s0)
8000107c:	01078793 	addi	a5,a5,16
80001080:	00004697 	auipc	a3,0x4
80001084:	c3c68693 	addi	a3,a3,-964 # 80004cbc <aes_invsbox>
80001088:	00461613 	slli	a2,a2,0x4
8000108c:	00e60733 	add	a4,a2,a4
80001090:	00271713 	slli	a4,a4,0x2
80001094:	00e68733 	add	a4,a3,a4
80001098:	00072703 	lw	a4,0(a4)
8000109c:	00e7a423 	sw	a4,8(a5)
800010a0:	fec42783 	lw	a5,-20(s0)
800010a4:	01078793 	addi	a5,a5,16
800010a8:	00c7a783 	lw	a5,12(a5)
800010ac:	0047d613 	srli	a2,a5,0x4
800010b0:	fec42783 	lw	a5,-20(s0)
800010b4:	01078793 	addi	a5,a5,16
800010b8:	00c7a783 	lw	a5,12(a5)
800010bc:	00f7f713 	andi	a4,a5,15
800010c0:	fec42783 	lw	a5,-20(s0)
800010c4:	01078793 	addi	a5,a5,16
800010c8:	00004697 	auipc	a3,0x4
800010cc:	bf468693 	addi	a3,a3,-1036 # 80004cbc <aes_invsbox>
800010d0:	00461613 	slli	a2,a2,0x4
800010d4:	00e60733 	add	a4,a2,a4
800010d8:	00271713 	slli	a4,a4,0x2
800010dc:	00e68733 	add	a4,a3,a4
800010e0:	00072703 	lw	a4,0(a4)
800010e4:	00e7a623 	sw	a4,12(a5)
800010e8:	fec42783 	lw	a5,-20(s0)
800010ec:	02078793 	addi	a5,a5,32
800010f0:	0007a783 	lw	a5,0(a5)
800010f4:	0047d613 	srli	a2,a5,0x4
800010f8:	fec42783 	lw	a5,-20(s0)
800010fc:	02078793 	addi	a5,a5,32
80001100:	0007a783 	lw	a5,0(a5)
80001104:	00f7f713 	andi	a4,a5,15
80001108:	fec42783 	lw	a5,-20(s0)
8000110c:	02078793 	addi	a5,a5,32
80001110:	00004697 	auipc	a3,0x4
80001114:	bac68693 	addi	a3,a3,-1108 # 80004cbc <aes_invsbox>
80001118:	00461613 	slli	a2,a2,0x4
8000111c:	00e60733 	add	a4,a2,a4
80001120:	00271713 	slli	a4,a4,0x2
80001124:	00e68733 	add	a4,a3,a4
80001128:	00072703 	lw	a4,0(a4)
8000112c:	00e7a023 	sw	a4,0(a5)
80001130:	fec42783 	lw	a5,-20(s0)
80001134:	02078793 	addi	a5,a5,32
80001138:	0047a783 	lw	a5,4(a5)
8000113c:	0047d613 	srli	a2,a5,0x4
80001140:	fec42783 	lw	a5,-20(s0)
80001144:	02078793 	addi	a5,a5,32
80001148:	0047a783 	lw	a5,4(a5)
8000114c:	00f7f713 	andi	a4,a5,15
80001150:	fec42783 	lw	a5,-20(s0)
80001154:	02078793 	addi	a5,a5,32
80001158:	00004697 	auipc	a3,0x4
8000115c:	b6468693 	addi	a3,a3,-1180 # 80004cbc <aes_invsbox>
80001160:	00461613 	slli	a2,a2,0x4
80001164:	00e60733 	add	a4,a2,a4
80001168:	00271713 	slli	a4,a4,0x2
8000116c:	00e68733 	add	a4,a3,a4
80001170:	00072703 	lw	a4,0(a4)
80001174:	00e7a223 	sw	a4,4(a5)
80001178:	fec42783 	lw	a5,-20(s0)
8000117c:	02078793 	addi	a5,a5,32
80001180:	0087a783 	lw	a5,8(a5)
80001184:	0047d613 	srli	a2,a5,0x4
80001188:	fec42783 	lw	a5,-20(s0)
8000118c:	02078793 	addi	a5,a5,32
80001190:	0087a783 	lw	a5,8(a5)
80001194:	00f7f713 	andi	a4,a5,15
80001198:	fec42783 	lw	a5,-20(s0)
8000119c:	02078793 	addi	a5,a5,32
800011a0:	00004697 	auipc	a3,0x4
800011a4:	b1c68693 	addi	a3,a3,-1252 # 80004cbc <aes_invsbox>
800011a8:	00461613 	slli	a2,a2,0x4
800011ac:	00e60733 	add	a4,a2,a4
800011b0:	00271713 	slli	a4,a4,0x2
800011b4:	00e68733 	add	a4,a3,a4
800011b8:	00072703 	lw	a4,0(a4)
800011bc:	00e7a423 	sw	a4,8(a5)
800011c0:	fec42783 	lw	a5,-20(s0)
800011c4:	02078793 	addi	a5,a5,32
800011c8:	00c7a783 	lw	a5,12(a5)
800011cc:	0047d613 	srli	a2,a5,0x4
800011d0:	fec42783 	lw	a5,-20(s0)
800011d4:	02078793 	addi	a5,a5,32
800011d8:	00c7a783 	lw	a5,12(a5)
800011dc:	00f7f713 	andi	a4,a5,15
800011e0:	fec42783 	lw	a5,-20(s0)
800011e4:	02078793 	addi	a5,a5,32
800011e8:	00004697 	auipc	a3,0x4
800011ec:	ad468693 	addi	a3,a3,-1324 # 80004cbc <aes_invsbox>
800011f0:	00461613 	slli	a2,a2,0x4
800011f4:	00e60733 	add	a4,a2,a4
800011f8:	00271713 	slli	a4,a4,0x2
800011fc:	00e68733 	add	a4,a3,a4
80001200:	00072703 	lw	a4,0(a4)
80001204:	00e7a623 	sw	a4,12(a5)
80001208:	fec42783 	lw	a5,-20(s0)
8000120c:	03078793 	addi	a5,a5,48
80001210:	0007a783 	lw	a5,0(a5)
80001214:	0047d613 	srli	a2,a5,0x4
80001218:	fec42783 	lw	a5,-20(s0)
8000121c:	03078793 	addi	a5,a5,48
80001220:	0007a783 	lw	a5,0(a5)
80001224:	00f7f713 	andi	a4,a5,15
80001228:	fec42783 	lw	a5,-20(s0)
8000122c:	03078793 	addi	a5,a5,48
80001230:	00004697 	auipc	a3,0x4
80001234:	a8c68693 	addi	a3,a3,-1396 # 80004cbc <aes_invsbox>
80001238:	00461613 	slli	a2,a2,0x4
8000123c:	00e60733 	add	a4,a2,a4
80001240:	00271713 	slli	a4,a4,0x2
80001244:	00e68733 	add	a4,a3,a4
80001248:	00072703 	lw	a4,0(a4)
8000124c:	00e7a023 	sw	a4,0(a5)
80001250:	fec42783 	lw	a5,-20(s0)
80001254:	03078793 	addi	a5,a5,48
80001258:	0047a783 	lw	a5,4(a5)
8000125c:	0047d613 	srli	a2,a5,0x4
80001260:	fec42783 	lw	a5,-20(s0)
80001264:	03078793 	addi	a5,a5,48
80001268:	0047a783 	lw	a5,4(a5)
8000126c:	00f7f713 	andi	a4,a5,15
80001270:	fec42783 	lw	a5,-20(s0)
80001274:	03078793 	addi	a5,a5,48
80001278:	00004697 	auipc	a3,0x4
8000127c:	a4468693 	addi	a3,a3,-1468 # 80004cbc <aes_invsbox>
80001280:	00461613 	slli	a2,a2,0x4
80001284:	00e60733 	add	a4,a2,a4
80001288:	00271713 	slli	a4,a4,0x2
8000128c:	00e68733 	add	a4,a3,a4
80001290:	00072703 	lw	a4,0(a4)
80001294:	00e7a223 	sw	a4,4(a5)
80001298:	fec42783 	lw	a5,-20(s0)
8000129c:	03078793 	addi	a5,a5,48
800012a0:	0087a783 	lw	a5,8(a5)
800012a4:	0047d613 	srli	a2,a5,0x4
800012a8:	fec42783 	lw	a5,-20(s0)
800012ac:	03078793 	addi	a5,a5,48
800012b0:	0087a783 	lw	a5,8(a5)
800012b4:	00f7f713 	andi	a4,a5,15
800012b8:	fec42783 	lw	a5,-20(s0)
800012bc:	03078793 	addi	a5,a5,48
800012c0:	00004697 	auipc	a3,0x4
800012c4:	9fc68693 	addi	a3,a3,-1540 # 80004cbc <aes_invsbox>
800012c8:	00461613 	slli	a2,a2,0x4
800012cc:	00e60733 	add	a4,a2,a4
800012d0:	00271713 	slli	a4,a4,0x2
800012d4:	00e68733 	add	a4,a3,a4
800012d8:	00072703 	lw	a4,0(a4)
800012dc:	00e7a423 	sw	a4,8(a5)
800012e0:	fec42783 	lw	a5,-20(s0)
800012e4:	03078793 	addi	a5,a5,48
800012e8:	00c7a783 	lw	a5,12(a5)
800012ec:	0047d613 	srli	a2,a5,0x4
800012f0:	fec42783 	lw	a5,-20(s0)
800012f4:	03078793 	addi	a5,a5,48
800012f8:	00c7a783 	lw	a5,12(a5)
800012fc:	00f7f713 	andi	a4,a5,15
80001300:	fec42783 	lw	a5,-20(s0)
80001304:	03078793 	addi	a5,a5,48
80001308:	00004697 	auipc	a3,0x4
8000130c:	9b468693 	addi	a3,a3,-1612 # 80004cbc <aes_invsbox>
80001310:	00461613 	slli	a2,a2,0x4
80001314:	00e60733 	add	a4,a2,a4
80001318:	00271713 	slli	a4,a4,0x2
8000131c:	00e68733 	add	a4,a3,a4
80001320:	00072703 	lw	a4,0(a4)
80001324:	00e7a623 	sw	a4,12(a5)
80001328:	00000013 	nop
8000132c:	01c12403 	lw	s0,28(sp)
80001330:	02010113 	addi	sp,sp,32
80001334:	00008067 	ret

80001338 <ShiftRows>:
80001338:	fd010113 	addi	sp,sp,-48
8000133c:	02812623 	sw	s0,44(sp)
80001340:	03010413 	addi	s0,sp,48
80001344:	fca42e23 	sw	a0,-36(s0)
80001348:	fdc42783 	lw	a5,-36(s0)
8000134c:	01078793 	addi	a5,a5,16
80001350:	0007a783 	lw	a5,0(a5)
80001354:	fef42623 	sw	a5,-20(s0)
80001358:	fdc42783 	lw	a5,-36(s0)
8000135c:	01078713 	addi	a4,a5,16
80001360:	fdc42783 	lw	a5,-36(s0)
80001364:	01078793 	addi	a5,a5,16
80001368:	00472703 	lw	a4,4(a4)
8000136c:	00e7a023 	sw	a4,0(a5)
80001370:	fdc42783 	lw	a5,-36(s0)
80001374:	01078713 	addi	a4,a5,16
80001378:	fdc42783 	lw	a5,-36(s0)
8000137c:	01078793 	addi	a5,a5,16
80001380:	00872703 	lw	a4,8(a4)
80001384:	00e7a223 	sw	a4,4(a5)
80001388:	fdc42783 	lw	a5,-36(s0)
8000138c:	01078713 	addi	a4,a5,16
80001390:	fdc42783 	lw	a5,-36(s0)
80001394:	01078793 	addi	a5,a5,16
80001398:	00c72703 	lw	a4,12(a4)
8000139c:	00e7a423 	sw	a4,8(a5)
800013a0:	fdc42783 	lw	a5,-36(s0)
800013a4:	01078793 	addi	a5,a5,16
800013a8:	fec42703 	lw	a4,-20(s0)
800013ac:	00e7a623 	sw	a4,12(a5)
800013b0:	fdc42783 	lw	a5,-36(s0)
800013b4:	02078793 	addi	a5,a5,32
800013b8:	0007a783 	lw	a5,0(a5)
800013bc:	fef42623 	sw	a5,-20(s0)
800013c0:	fdc42783 	lw	a5,-36(s0)
800013c4:	02078713 	addi	a4,a5,32
800013c8:	fdc42783 	lw	a5,-36(s0)
800013cc:	02078793 	addi	a5,a5,32
800013d0:	00872703 	lw	a4,8(a4)
800013d4:	00e7a023 	sw	a4,0(a5)
800013d8:	fdc42783 	lw	a5,-36(s0)
800013dc:	02078793 	addi	a5,a5,32
800013e0:	fec42703 	lw	a4,-20(s0)
800013e4:	00e7a423 	sw	a4,8(a5)
800013e8:	fdc42783 	lw	a5,-36(s0)
800013ec:	02078793 	addi	a5,a5,32
800013f0:	0047a783 	lw	a5,4(a5)
800013f4:	fef42623 	sw	a5,-20(s0)
800013f8:	fdc42783 	lw	a5,-36(s0)
800013fc:	02078713 	addi	a4,a5,32
80001400:	fdc42783 	lw	a5,-36(s0)
80001404:	02078793 	addi	a5,a5,32
80001408:	00c72703 	lw	a4,12(a4)
8000140c:	00e7a223 	sw	a4,4(a5)
80001410:	fdc42783 	lw	a5,-36(s0)
80001414:	02078793 	addi	a5,a5,32
80001418:	fec42703 	lw	a4,-20(s0)
8000141c:	00e7a623 	sw	a4,12(a5)
80001420:	fdc42783 	lw	a5,-36(s0)
80001424:	03078793 	addi	a5,a5,48
80001428:	0007a783 	lw	a5,0(a5)
8000142c:	fef42623 	sw	a5,-20(s0)
80001430:	fdc42783 	lw	a5,-36(s0)
80001434:	03078713 	addi	a4,a5,48
80001438:	fdc42783 	lw	a5,-36(s0)
8000143c:	03078793 	addi	a5,a5,48
80001440:	00c72703 	lw	a4,12(a4)
80001444:	00e7a023 	sw	a4,0(a5)
80001448:	fdc42783 	lw	a5,-36(s0)
8000144c:	03078713 	addi	a4,a5,48
80001450:	fdc42783 	lw	a5,-36(s0)
80001454:	03078793 	addi	a5,a5,48
80001458:	00872703 	lw	a4,8(a4)
8000145c:	00e7a623 	sw	a4,12(a5)
80001460:	fdc42783 	lw	a5,-36(s0)
80001464:	03078713 	addi	a4,a5,48
80001468:	fdc42783 	lw	a5,-36(s0)
8000146c:	03078793 	addi	a5,a5,48
80001470:	00472703 	lw	a4,4(a4)
80001474:	00e7a423 	sw	a4,8(a5)
80001478:	fdc42783 	lw	a5,-36(s0)
8000147c:	03078793 	addi	a5,a5,48
80001480:	fec42703 	lw	a4,-20(s0)
80001484:	00e7a223 	sw	a4,4(a5)
80001488:	00000013 	nop
8000148c:	02c12403 	lw	s0,44(sp)
80001490:	03010113 	addi	sp,sp,48
80001494:	00008067 	ret

80001498 <InvShiftRows>:
80001498:	fd010113 	addi	sp,sp,-48
8000149c:	02812623 	sw	s0,44(sp)
800014a0:	03010413 	addi	s0,sp,48
800014a4:	fca42e23 	sw	a0,-36(s0)
800014a8:	fdc42783 	lw	a5,-36(s0)
800014ac:	01078793 	addi	a5,a5,16
800014b0:	00c7a783 	lw	a5,12(a5)
800014b4:	fef42623 	sw	a5,-20(s0)
800014b8:	fdc42783 	lw	a5,-36(s0)
800014bc:	01078713 	addi	a4,a5,16
800014c0:	fdc42783 	lw	a5,-36(s0)
800014c4:	01078793 	addi	a5,a5,16
800014c8:	00872703 	lw	a4,8(a4)
800014cc:	00e7a623 	sw	a4,12(a5)
800014d0:	fdc42783 	lw	a5,-36(s0)
800014d4:	01078713 	addi	a4,a5,16
800014d8:	fdc42783 	lw	a5,-36(s0)
800014dc:	01078793 	addi	a5,a5,16
800014e0:	00472703 	lw	a4,4(a4)
800014e4:	00e7a423 	sw	a4,8(a5)
800014e8:	fdc42783 	lw	a5,-36(s0)
800014ec:	01078713 	addi	a4,a5,16
800014f0:	fdc42783 	lw	a5,-36(s0)
800014f4:	01078793 	addi	a5,a5,16
800014f8:	00072703 	lw	a4,0(a4)
800014fc:	00e7a223 	sw	a4,4(a5)
80001500:	fdc42783 	lw	a5,-36(s0)
80001504:	01078793 	addi	a5,a5,16
80001508:	fec42703 	lw	a4,-20(s0)
8000150c:	00e7a023 	sw	a4,0(a5)
80001510:	fdc42783 	lw	a5,-36(s0)
80001514:	02078793 	addi	a5,a5,32
80001518:	00c7a783 	lw	a5,12(a5)
8000151c:	fef42623 	sw	a5,-20(s0)
80001520:	fdc42783 	lw	a5,-36(s0)
80001524:	02078713 	addi	a4,a5,32
80001528:	fdc42783 	lw	a5,-36(s0)
8000152c:	02078793 	addi	a5,a5,32
80001530:	00472703 	lw	a4,4(a4)
80001534:	00e7a623 	sw	a4,12(a5)
80001538:	fdc42783 	lw	a5,-36(s0)
8000153c:	02078793 	addi	a5,a5,32
80001540:	fec42703 	lw	a4,-20(s0)
80001544:	00e7a223 	sw	a4,4(a5)
80001548:	fdc42783 	lw	a5,-36(s0)
8000154c:	02078793 	addi	a5,a5,32
80001550:	0087a783 	lw	a5,8(a5)
80001554:	fef42623 	sw	a5,-20(s0)
80001558:	fdc42783 	lw	a5,-36(s0)
8000155c:	02078713 	addi	a4,a5,32
80001560:	fdc42783 	lw	a5,-36(s0)
80001564:	02078793 	addi	a5,a5,32
80001568:	00072703 	lw	a4,0(a4)
8000156c:	00e7a423 	sw	a4,8(a5)
80001570:	fdc42783 	lw	a5,-36(s0)
80001574:	02078793 	addi	a5,a5,32
80001578:	fec42703 	lw	a4,-20(s0)
8000157c:	00e7a023 	sw	a4,0(a5)
80001580:	fdc42783 	lw	a5,-36(s0)
80001584:	03078793 	addi	a5,a5,48
80001588:	00c7a783 	lw	a5,12(a5)
8000158c:	fef42623 	sw	a5,-20(s0)
80001590:	fdc42783 	lw	a5,-36(s0)
80001594:	03078713 	addi	a4,a5,48
80001598:	fdc42783 	lw	a5,-36(s0)
8000159c:	03078793 	addi	a5,a5,48
800015a0:	00072703 	lw	a4,0(a4)
800015a4:	00e7a623 	sw	a4,12(a5)
800015a8:	fdc42783 	lw	a5,-36(s0)
800015ac:	03078713 	addi	a4,a5,48
800015b0:	fdc42783 	lw	a5,-36(s0)
800015b4:	03078793 	addi	a5,a5,48
800015b8:	00472703 	lw	a4,4(a4)
800015bc:	00e7a023 	sw	a4,0(a5)
800015c0:	fdc42783 	lw	a5,-36(s0)
800015c4:	03078713 	addi	a4,a5,48
800015c8:	fdc42783 	lw	a5,-36(s0)
800015cc:	03078793 	addi	a5,a5,48
800015d0:	00872703 	lw	a4,8(a4)
800015d4:	00e7a223 	sw	a4,4(a5)
800015d8:	fdc42783 	lw	a5,-36(s0)
800015dc:	03078793 	addi	a5,a5,48
800015e0:	fec42703 	lw	a4,-20(s0)
800015e4:	00e7a423 	sw	a4,8(a5)
800015e8:	00000013 	nop
800015ec:	02c12403 	lw	s0,44(sp)
800015f0:	03010113 	addi	sp,sp,48
800015f4:	00008067 	ret

800015f8 <MixColumns>:
800015f8:	fe010113 	addi	sp,sp,-32
800015fc:	00812e23 	sw	s0,28(sp)
80001600:	02010413 	addi	s0,sp,32
80001604:	fea42623 	sw	a0,-20(s0)
80001608:	fec42783 	lw	a5,-20(s0)
8000160c:	0007a703 	lw	a4,0(a5)
80001610:	00005797 	auipc	a5,0x5
80001614:	60878793 	addi	a5,a5,1544 # 80006c18 <col.1101>
80001618:	00e7a023 	sw	a4,0(a5)
8000161c:	fec42783 	lw	a5,-20(s0)
80001620:	01078793 	addi	a5,a5,16
80001624:	0007a703 	lw	a4,0(a5)
80001628:	00005797 	auipc	a5,0x5
8000162c:	5f078793 	addi	a5,a5,1520 # 80006c18 <col.1101>
80001630:	00e7a223 	sw	a4,4(a5)
80001634:	fec42783 	lw	a5,-20(s0)
80001638:	02078793 	addi	a5,a5,32
8000163c:	0007a703 	lw	a4,0(a5)
80001640:	00005797 	auipc	a5,0x5
80001644:	5d878793 	addi	a5,a5,1496 # 80006c18 <col.1101>
80001648:	00e7a423 	sw	a4,8(a5)
8000164c:	fec42783 	lw	a5,-20(s0)
80001650:	03078793 	addi	a5,a5,48
80001654:	0007a703 	lw	a4,0(a5)
80001658:	00005797 	auipc	a5,0x5
8000165c:	5c078793 	addi	a5,a5,1472 # 80006c18 <col.1101>
80001660:	00e7a623 	sw	a4,12(a5)
80001664:	00005797 	auipc	a5,0x5
80001668:	5b478793 	addi	a5,a5,1460 # 80006c18 <col.1101>
8000166c:	0007a703 	lw	a4,0(a5)
80001670:	00004697 	auipc	a3,0x4
80001674:	a4c68693 	addi	a3,a3,-1460 # 800050bc <gf_mul>
80001678:	00070793 	mv	a5,a4
8000167c:	00179793 	slli	a5,a5,0x1
80001680:	00e787b3 	add	a5,a5,a4
80001684:	00379793 	slli	a5,a5,0x3
80001688:	00f687b3 	add	a5,a3,a5
8000168c:	0007a703 	lw	a4,0(a5)
80001690:	fec42783 	lw	a5,-20(s0)
80001694:	00e7a023 	sw	a4,0(a5)
80001698:	00005797 	auipc	a5,0x5
8000169c:	58078793 	addi	a5,a5,1408 # 80006c18 <col.1101>
800016a0:	0047a703 	lw	a4,4(a5)
800016a4:	00004697 	auipc	a3,0x4
800016a8:	a1868693 	addi	a3,a3,-1512 # 800050bc <gf_mul>
800016ac:	00070793 	mv	a5,a4
800016b0:	00179793 	slli	a5,a5,0x1
800016b4:	00e787b3 	add	a5,a5,a4
800016b8:	00379793 	slli	a5,a5,0x3
800016bc:	00f687b3 	add	a5,a3,a5
800016c0:	0047a703 	lw	a4,4(a5)
800016c4:	fec42783 	lw	a5,-20(s0)
800016c8:	0007a783 	lw	a5,0(a5)
800016cc:	00f74733 	xor	a4,a4,a5
800016d0:	fec42783 	lw	a5,-20(s0)
800016d4:	00e7a023 	sw	a4,0(a5)
800016d8:	fec42783 	lw	a5,-20(s0)
800016dc:	0007a703 	lw	a4,0(a5)
800016e0:	00005797 	auipc	a5,0x5
800016e4:	53878793 	addi	a5,a5,1336 # 80006c18 <col.1101>
800016e8:	0087a783 	lw	a5,8(a5)
800016ec:	00f74733 	xor	a4,a4,a5
800016f0:	fec42783 	lw	a5,-20(s0)
800016f4:	00e7a023 	sw	a4,0(a5)
800016f8:	fec42783 	lw	a5,-20(s0)
800016fc:	0007a703 	lw	a4,0(a5)
80001700:	00005797 	auipc	a5,0x5
80001704:	51878793 	addi	a5,a5,1304 # 80006c18 <col.1101>
80001708:	00c7a783 	lw	a5,12(a5)
8000170c:	00f74733 	xor	a4,a4,a5
80001710:	fec42783 	lw	a5,-20(s0)
80001714:	00e7a023 	sw	a4,0(a5)
80001718:	fec42783 	lw	a5,-20(s0)
8000171c:	01078793 	addi	a5,a5,16
80001720:	00005717 	auipc	a4,0x5
80001724:	4f870713 	addi	a4,a4,1272 # 80006c18 <col.1101>
80001728:	00072703 	lw	a4,0(a4)
8000172c:	00e7a023 	sw	a4,0(a5)
80001730:	00005797 	auipc	a5,0x5
80001734:	4e878793 	addi	a5,a5,1256 # 80006c18 <col.1101>
80001738:	0047a703 	lw	a4,4(a5)
8000173c:	00004697 	auipc	a3,0x4
80001740:	98068693 	addi	a3,a3,-1664 # 800050bc <gf_mul>
80001744:	00070793 	mv	a5,a4
80001748:	00179793 	slli	a5,a5,0x1
8000174c:	00e787b3 	add	a5,a5,a4
80001750:	00379793 	slli	a5,a5,0x3
80001754:	00f687b3 	add	a5,a3,a5
80001758:	0007a683 	lw	a3,0(a5)
8000175c:	fec42783 	lw	a5,-20(s0)
80001760:	01078793 	addi	a5,a5,16
80001764:	0007a703 	lw	a4,0(a5)
80001768:	fec42783 	lw	a5,-20(s0)
8000176c:	01078793 	addi	a5,a5,16
80001770:	00e6c733 	xor	a4,a3,a4
80001774:	00e7a023 	sw	a4,0(a5)
80001778:	00005797 	auipc	a5,0x5
8000177c:	4a078793 	addi	a5,a5,1184 # 80006c18 <col.1101>
80001780:	0087a703 	lw	a4,8(a5)
80001784:	00004697 	auipc	a3,0x4
80001788:	93868693 	addi	a3,a3,-1736 # 800050bc <gf_mul>
8000178c:	00070793 	mv	a5,a4
80001790:	00179793 	slli	a5,a5,0x1
80001794:	00e787b3 	add	a5,a5,a4
80001798:	00379793 	slli	a5,a5,0x3
8000179c:	00f687b3 	add	a5,a3,a5
800017a0:	0047a683 	lw	a3,4(a5)
800017a4:	fec42783 	lw	a5,-20(s0)
800017a8:	01078793 	addi	a5,a5,16
800017ac:	0007a703 	lw	a4,0(a5)
800017b0:	fec42783 	lw	a5,-20(s0)
800017b4:	01078793 	addi	a5,a5,16
800017b8:	00e6c733 	xor	a4,a3,a4
800017bc:	00e7a023 	sw	a4,0(a5)
800017c0:	fec42783 	lw	a5,-20(s0)
800017c4:	01078793 	addi	a5,a5,16
800017c8:	0007a683 	lw	a3,0(a5)
800017cc:	00005797 	auipc	a5,0x5
800017d0:	44c78793 	addi	a5,a5,1100 # 80006c18 <col.1101>
800017d4:	00c7a703 	lw	a4,12(a5)
800017d8:	fec42783 	lw	a5,-20(s0)
800017dc:	01078793 	addi	a5,a5,16
800017e0:	00e6c733 	xor	a4,a3,a4
800017e4:	00e7a023 	sw	a4,0(a5)
800017e8:	fec42783 	lw	a5,-20(s0)
800017ec:	02078793 	addi	a5,a5,32
800017f0:	00005717 	auipc	a4,0x5
800017f4:	42870713 	addi	a4,a4,1064 # 80006c18 <col.1101>
800017f8:	00072703 	lw	a4,0(a4)
800017fc:	00e7a023 	sw	a4,0(a5)
80001800:	fec42783 	lw	a5,-20(s0)
80001804:	02078793 	addi	a5,a5,32
80001808:	0007a683 	lw	a3,0(a5)
8000180c:	00005797 	auipc	a5,0x5
80001810:	40c78793 	addi	a5,a5,1036 # 80006c18 <col.1101>
80001814:	0047a703 	lw	a4,4(a5)
80001818:	fec42783 	lw	a5,-20(s0)
8000181c:	02078793 	addi	a5,a5,32
80001820:	00e6c733 	xor	a4,a3,a4
80001824:	00e7a023 	sw	a4,0(a5)
80001828:	00005797 	auipc	a5,0x5
8000182c:	3f078793 	addi	a5,a5,1008 # 80006c18 <col.1101>
80001830:	0087a703 	lw	a4,8(a5)
80001834:	00004697 	auipc	a3,0x4
80001838:	88868693 	addi	a3,a3,-1912 # 800050bc <gf_mul>
8000183c:	00070793 	mv	a5,a4
80001840:	00179793 	slli	a5,a5,0x1
80001844:	00e787b3 	add	a5,a5,a4
80001848:	00379793 	slli	a5,a5,0x3
8000184c:	00f687b3 	add	a5,a3,a5
80001850:	0007a683 	lw	a3,0(a5)
80001854:	fec42783 	lw	a5,-20(s0)
80001858:	02078793 	addi	a5,a5,32
8000185c:	0007a703 	lw	a4,0(a5)
80001860:	fec42783 	lw	a5,-20(s0)
80001864:	02078793 	addi	a5,a5,32
80001868:	00e6c733 	xor	a4,a3,a4
8000186c:	00e7a023 	sw	a4,0(a5)
80001870:	00005797 	auipc	a5,0x5
80001874:	3a878793 	addi	a5,a5,936 # 80006c18 <col.1101>
80001878:	00c7a703 	lw	a4,12(a5)
8000187c:	00004697 	auipc	a3,0x4
80001880:	84068693 	addi	a3,a3,-1984 # 800050bc <gf_mul>
80001884:	00070793 	mv	a5,a4
80001888:	00179793 	slli	a5,a5,0x1
8000188c:	00e787b3 	add	a5,a5,a4
80001890:	00379793 	slli	a5,a5,0x3
80001894:	00f687b3 	add	a5,a3,a5
80001898:	0047a683 	lw	a3,4(a5)
8000189c:	fec42783 	lw	a5,-20(s0)
800018a0:	02078793 	addi	a5,a5,32
800018a4:	0007a703 	lw	a4,0(a5)
800018a8:	fec42783 	lw	a5,-20(s0)
800018ac:	02078793 	addi	a5,a5,32
800018b0:	00e6c733 	xor	a4,a3,a4
800018b4:	00e7a023 	sw	a4,0(a5)
800018b8:	00005797 	auipc	a5,0x5
800018bc:	36078793 	addi	a5,a5,864 # 80006c18 <col.1101>
800018c0:	0007a703 	lw	a4,0(a5)
800018c4:	fec42783 	lw	a5,-20(s0)
800018c8:	03078693 	addi	a3,a5,48
800018cc:	00003617 	auipc	a2,0x3
800018d0:	7f060613 	addi	a2,a2,2032 # 800050bc <gf_mul>
800018d4:	00070793 	mv	a5,a4
800018d8:	00179793 	slli	a5,a5,0x1
800018dc:	00e787b3 	add	a5,a5,a4
800018e0:	00379793 	slli	a5,a5,0x3
800018e4:	00f607b3 	add	a5,a2,a5
800018e8:	0047a783 	lw	a5,4(a5)
800018ec:	00f6a023 	sw	a5,0(a3)
800018f0:	fec42783 	lw	a5,-20(s0)
800018f4:	03078793 	addi	a5,a5,48
800018f8:	0007a683 	lw	a3,0(a5)
800018fc:	00005797 	auipc	a5,0x5
80001900:	31c78793 	addi	a5,a5,796 # 80006c18 <col.1101>
80001904:	0047a703 	lw	a4,4(a5)
80001908:	fec42783 	lw	a5,-20(s0)
8000190c:	03078793 	addi	a5,a5,48
80001910:	00e6c733 	xor	a4,a3,a4
80001914:	00e7a023 	sw	a4,0(a5)
80001918:	fec42783 	lw	a5,-20(s0)
8000191c:	03078793 	addi	a5,a5,48
80001920:	0007a683 	lw	a3,0(a5)
80001924:	00005797 	auipc	a5,0x5
80001928:	2f478793 	addi	a5,a5,756 # 80006c18 <col.1101>
8000192c:	0087a703 	lw	a4,8(a5)
80001930:	fec42783 	lw	a5,-20(s0)
80001934:	03078793 	addi	a5,a5,48
80001938:	00e6c733 	xor	a4,a3,a4
8000193c:	00e7a023 	sw	a4,0(a5)
80001940:	00005797 	auipc	a5,0x5
80001944:	2d878793 	addi	a5,a5,728 # 80006c18 <col.1101>
80001948:	00c7a703 	lw	a4,12(a5)
8000194c:	00003697 	auipc	a3,0x3
80001950:	77068693 	addi	a3,a3,1904 # 800050bc <gf_mul>
80001954:	00070793 	mv	a5,a4
80001958:	00179793 	slli	a5,a5,0x1
8000195c:	00e787b3 	add	a5,a5,a4
80001960:	00379793 	slli	a5,a5,0x3
80001964:	00f687b3 	add	a5,a3,a5
80001968:	0007a683 	lw	a3,0(a5)
8000196c:	fec42783 	lw	a5,-20(s0)
80001970:	03078793 	addi	a5,a5,48
80001974:	0007a703 	lw	a4,0(a5)
80001978:	fec42783 	lw	a5,-20(s0)
8000197c:	03078793 	addi	a5,a5,48
80001980:	00e6c733 	xor	a4,a3,a4
80001984:	00e7a023 	sw	a4,0(a5)
80001988:	fec42783 	lw	a5,-20(s0)
8000198c:	0047a703 	lw	a4,4(a5)
80001990:	00005797 	auipc	a5,0x5
80001994:	28878793 	addi	a5,a5,648 # 80006c18 <col.1101>
80001998:	00e7a023 	sw	a4,0(a5)
8000199c:	fec42783 	lw	a5,-20(s0)
800019a0:	01078793 	addi	a5,a5,16
800019a4:	0047a703 	lw	a4,4(a5)
800019a8:	00005797 	auipc	a5,0x5
800019ac:	27078793 	addi	a5,a5,624 # 80006c18 <col.1101>
800019b0:	00e7a223 	sw	a4,4(a5)
800019b4:	fec42783 	lw	a5,-20(s0)
800019b8:	02078793 	addi	a5,a5,32
800019bc:	0047a703 	lw	a4,4(a5)
800019c0:	00005797 	auipc	a5,0x5
800019c4:	25878793 	addi	a5,a5,600 # 80006c18 <col.1101>
800019c8:	00e7a423 	sw	a4,8(a5)
800019cc:	fec42783 	lw	a5,-20(s0)
800019d0:	03078793 	addi	a5,a5,48
800019d4:	0047a703 	lw	a4,4(a5)
800019d8:	00005797 	auipc	a5,0x5
800019dc:	24078793 	addi	a5,a5,576 # 80006c18 <col.1101>
800019e0:	00e7a623 	sw	a4,12(a5)
800019e4:	00005797 	auipc	a5,0x5
800019e8:	23478793 	addi	a5,a5,564 # 80006c18 <col.1101>
800019ec:	0007a703 	lw	a4,0(a5)
800019f0:	00003697 	auipc	a3,0x3
800019f4:	6cc68693 	addi	a3,a3,1740 # 800050bc <gf_mul>
800019f8:	00070793 	mv	a5,a4
800019fc:	00179793 	slli	a5,a5,0x1
80001a00:	00e787b3 	add	a5,a5,a4
80001a04:	00379793 	slli	a5,a5,0x3
80001a08:	00f687b3 	add	a5,a3,a5
80001a0c:	0007a703 	lw	a4,0(a5)
80001a10:	fec42783 	lw	a5,-20(s0)
80001a14:	00e7a223 	sw	a4,4(a5)
80001a18:	00005797 	auipc	a5,0x5
80001a1c:	20078793 	addi	a5,a5,512 # 80006c18 <col.1101>
80001a20:	0047a703 	lw	a4,4(a5)
80001a24:	00003697 	auipc	a3,0x3
80001a28:	69868693 	addi	a3,a3,1688 # 800050bc <gf_mul>
80001a2c:	00070793 	mv	a5,a4
80001a30:	00179793 	slli	a5,a5,0x1
80001a34:	00e787b3 	add	a5,a5,a4
80001a38:	00379793 	slli	a5,a5,0x3
80001a3c:	00f687b3 	add	a5,a3,a5
80001a40:	0047a703 	lw	a4,4(a5)
80001a44:	fec42783 	lw	a5,-20(s0)
80001a48:	0047a783 	lw	a5,4(a5)
80001a4c:	00f74733 	xor	a4,a4,a5
80001a50:	fec42783 	lw	a5,-20(s0)
80001a54:	00e7a223 	sw	a4,4(a5)
80001a58:	fec42783 	lw	a5,-20(s0)
80001a5c:	0047a703 	lw	a4,4(a5)
80001a60:	00005797 	auipc	a5,0x5
80001a64:	1b878793 	addi	a5,a5,440 # 80006c18 <col.1101>
80001a68:	0087a783 	lw	a5,8(a5)
80001a6c:	00f74733 	xor	a4,a4,a5
80001a70:	fec42783 	lw	a5,-20(s0)
80001a74:	00e7a223 	sw	a4,4(a5)
80001a78:	fec42783 	lw	a5,-20(s0)
80001a7c:	0047a703 	lw	a4,4(a5)
80001a80:	00005797 	auipc	a5,0x5
80001a84:	19878793 	addi	a5,a5,408 # 80006c18 <col.1101>
80001a88:	00c7a783 	lw	a5,12(a5)
80001a8c:	00f74733 	xor	a4,a4,a5
80001a90:	fec42783 	lw	a5,-20(s0)
80001a94:	00e7a223 	sw	a4,4(a5)
80001a98:	fec42783 	lw	a5,-20(s0)
80001a9c:	01078793 	addi	a5,a5,16
80001aa0:	00005717 	auipc	a4,0x5
80001aa4:	17870713 	addi	a4,a4,376 # 80006c18 <col.1101>
80001aa8:	00072703 	lw	a4,0(a4)
80001aac:	00e7a223 	sw	a4,4(a5)
80001ab0:	00005797 	auipc	a5,0x5
80001ab4:	16878793 	addi	a5,a5,360 # 80006c18 <col.1101>
80001ab8:	0047a703 	lw	a4,4(a5)
80001abc:	00003697 	auipc	a3,0x3
80001ac0:	60068693 	addi	a3,a3,1536 # 800050bc <gf_mul>
80001ac4:	00070793 	mv	a5,a4
80001ac8:	00179793 	slli	a5,a5,0x1
80001acc:	00e787b3 	add	a5,a5,a4
80001ad0:	00379793 	slli	a5,a5,0x3
80001ad4:	00f687b3 	add	a5,a3,a5
80001ad8:	0007a683 	lw	a3,0(a5)
80001adc:	fec42783 	lw	a5,-20(s0)
80001ae0:	01078793 	addi	a5,a5,16
80001ae4:	0047a703 	lw	a4,4(a5)
80001ae8:	fec42783 	lw	a5,-20(s0)
80001aec:	01078793 	addi	a5,a5,16
80001af0:	00e6c733 	xor	a4,a3,a4
80001af4:	00e7a223 	sw	a4,4(a5)
80001af8:	00005797 	auipc	a5,0x5
80001afc:	12078793 	addi	a5,a5,288 # 80006c18 <col.1101>
80001b00:	0087a703 	lw	a4,8(a5)
80001b04:	00003697 	auipc	a3,0x3
80001b08:	5b868693 	addi	a3,a3,1464 # 800050bc <gf_mul>
80001b0c:	00070793 	mv	a5,a4
80001b10:	00179793 	slli	a5,a5,0x1
80001b14:	00e787b3 	add	a5,a5,a4
80001b18:	00379793 	slli	a5,a5,0x3
80001b1c:	00f687b3 	add	a5,a3,a5
80001b20:	0047a683 	lw	a3,4(a5)
80001b24:	fec42783 	lw	a5,-20(s0)
80001b28:	01078793 	addi	a5,a5,16
80001b2c:	0047a703 	lw	a4,4(a5)
80001b30:	fec42783 	lw	a5,-20(s0)
80001b34:	01078793 	addi	a5,a5,16
80001b38:	00e6c733 	xor	a4,a3,a4
80001b3c:	00e7a223 	sw	a4,4(a5)
80001b40:	fec42783 	lw	a5,-20(s0)
80001b44:	01078793 	addi	a5,a5,16
80001b48:	0047a683 	lw	a3,4(a5)
80001b4c:	00005797 	auipc	a5,0x5
80001b50:	0cc78793 	addi	a5,a5,204 # 80006c18 <col.1101>
80001b54:	00c7a703 	lw	a4,12(a5)
80001b58:	fec42783 	lw	a5,-20(s0)
80001b5c:	01078793 	addi	a5,a5,16
80001b60:	00e6c733 	xor	a4,a3,a4
80001b64:	00e7a223 	sw	a4,4(a5)
80001b68:	fec42783 	lw	a5,-20(s0)
80001b6c:	02078793 	addi	a5,a5,32
80001b70:	00005717 	auipc	a4,0x5
80001b74:	0a870713 	addi	a4,a4,168 # 80006c18 <col.1101>
80001b78:	00072703 	lw	a4,0(a4)
80001b7c:	00e7a223 	sw	a4,4(a5)
80001b80:	fec42783 	lw	a5,-20(s0)
80001b84:	02078793 	addi	a5,a5,32
80001b88:	0047a683 	lw	a3,4(a5)
80001b8c:	00005797 	auipc	a5,0x5
80001b90:	08c78793 	addi	a5,a5,140 # 80006c18 <col.1101>
80001b94:	0047a703 	lw	a4,4(a5)
80001b98:	fec42783 	lw	a5,-20(s0)
80001b9c:	02078793 	addi	a5,a5,32
80001ba0:	00e6c733 	xor	a4,a3,a4
80001ba4:	00e7a223 	sw	a4,4(a5)
80001ba8:	00005797 	auipc	a5,0x5
80001bac:	07078793 	addi	a5,a5,112 # 80006c18 <col.1101>
80001bb0:	0087a703 	lw	a4,8(a5)
80001bb4:	00003697 	auipc	a3,0x3
80001bb8:	50868693 	addi	a3,a3,1288 # 800050bc <gf_mul>
80001bbc:	00070793 	mv	a5,a4
80001bc0:	00179793 	slli	a5,a5,0x1
80001bc4:	00e787b3 	add	a5,a5,a4
80001bc8:	00379793 	slli	a5,a5,0x3
80001bcc:	00f687b3 	add	a5,a3,a5
80001bd0:	0007a683 	lw	a3,0(a5)
80001bd4:	fec42783 	lw	a5,-20(s0)
80001bd8:	02078793 	addi	a5,a5,32
80001bdc:	0047a703 	lw	a4,4(a5)
80001be0:	fec42783 	lw	a5,-20(s0)
80001be4:	02078793 	addi	a5,a5,32
80001be8:	00e6c733 	xor	a4,a3,a4
80001bec:	00e7a223 	sw	a4,4(a5)
80001bf0:	00005797 	auipc	a5,0x5
80001bf4:	02878793 	addi	a5,a5,40 # 80006c18 <col.1101>
80001bf8:	00c7a703 	lw	a4,12(a5)
80001bfc:	00003697 	auipc	a3,0x3
80001c00:	4c068693 	addi	a3,a3,1216 # 800050bc <gf_mul>
80001c04:	00070793 	mv	a5,a4
80001c08:	00179793 	slli	a5,a5,0x1
80001c0c:	00e787b3 	add	a5,a5,a4
80001c10:	00379793 	slli	a5,a5,0x3
80001c14:	00f687b3 	add	a5,a3,a5
80001c18:	0047a683 	lw	a3,4(a5)
80001c1c:	fec42783 	lw	a5,-20(s0)
80001c20:	02078793 	addi	a5,a5,32
80001c24:	0047a703 	lw	a4,4(a5)
80001c28:	fec42783 	lw	a5,-20(s0)
80001c2c:	02078793 	addi	a5,a5,32
80001c30:	00e6c733 	xor	a4,a3,a4
80001c34:	00e7a223 	sw	a4,4(a5)
80001c38:	00005797 	auipc	a5,0x5
80001c3c:	fe078793 	addi	a5,a5,-32 # 80006c18 <col.1101>
80001c40:	0007a703 	lw	a4,0(a5)
80001c44:	fec42783 	lw	a5,-20(s0)
80001c48:	03078693 	addi	a3,a5,48
80001c4c:	00003617 	auipc	a2,0x3
80001c50:	47060613 	addi	a2,a2,1136 # 800050bc <gf_mul>
80001c54:	00070793 	mv	a5,a4
80001c58:	00179793 	slli	a5,a5,0x1
80001c5c:	00e787b3 	add	a5,a5,a4
80001c60:	00379793 	slli	a5,a5,0x3
80001c64:	00f607b3 	add	a5,a2,a5
80001c68:	0047a783 	lw	a5,4(a5)
80001c6c:	00f6a223 	sw	a5,4(a3)
80001c70:	fec42783 	lw	a5,-20(s0)
80001c74:	03078793 	addi	a5,a5,48
80001c78:	0047a683 	lw	a3,4(a5)
80001c7c:	00005797 	auipc	a5,0x5
80001c80:	f9c78793 	addi	a5,a5,-100 # 80006c18 <col.1101>
80001c84:	0047a703 	lw	a4,4(a5)
80001c88:	fec42783 	lw	a5,-20(s0)
80001c8c:	03078793 	addi	a5,a5,48
80001c90:	00e6c733 	xor	a4,a3,a4
80001c94:	00e7a223 	sw	a4,4(a5)
80001c98:	fec42783 	lw	a5,-20(s0)
80001c9c:	03078793 	addi	a5,a5,48
80001ca0:	0047a683 	lw	a3,4(a5)
80001ca4:	00005797 	auipc	a5,0x5
80001ca8:	f7478793 	addi	a5,a5,-140 # 80006c18 <col.1101>
80001cac:	0087a703 	lw	a4,8(a5)
80001cb0:	fec42783 	lw	a5,-20(s0)
80001cb4:	03078793 	addi	a5,a5,48
80001cb8:	00e6c733 	xor	a4,a3,a4
80001cbc:	00e7a223 	sw	a4,4(a5)
80001cc0:	00005797 	auipc	a5,0x5
80001cc4:	f5878793 	addi	a5,a5,-168 # 80006c18 <col.1101>
80001cc8:	00c7a703 	lw	a4,12(a5)
80001ccc:	00003697 	auipc	a3,0x3
80001cd0:	3f068693 	addi	a3,a3,1008 # 800050bc <gf_mul>
80001cd4:	00070793 	mv	a5,a4
80001cd8:	00179793 	slli	a5,a5,0x1
80001cdc:	00e787b3 	add	a5,a5,a4
80001ce0:	00379793 	slli	a5,a5,0x3
80001ce4:	00f687b3 	add	a5,a3,a5
80001ce8:	0007a683 	lw	a3,0(a5)
80001cec:	fec42783 	lw	a5,-20(s0)
80001cf0:	03078793 	addi	a5,a5,48
80001cf4:	0047a703 	lw	a4,4(a5)
80001cf8:	fec42783 	lw	a5,-20(s0)
80001cfc:	03078793 	addi	a5,a5,48
80001d00:	00e6c733 	xor	a4,a3,a4
80001d04:	00e7a223 	sw	a4,4(a5)
80001d08:	fec42783 	lw	a5,-20(s0)
80001d0c:	0087a703 	lw	a4,8(a5)
80001d10:	00005797 	auipc	a5,0x5
80001d14:	f0878793 	addi	a5,a5,-248 # 80006c18 <col.1101>
80001d18:	00e7a023 	sw	a4,0(a5)
80001d1c:	fec42783 	lw	a5,-20(s0)
80001d20:	01078793 	addi	a5,a5,16
80001d24:	0087a703 	lw	a4,8(a5)
80001d28:	00005797 	auipc	a5,0x5
80001d2c:	ef078793 	addi	a5,a5,-272 # 80006c18 <col.1101>
80001d30:	00e7a223 	sw	a4,4(a5)
80001d34:	fec42783 	lw	a5,-20(s0)
80001d38:	02078793 	addi	a5,a5,32
80001d3c:	0087a703 	lw	a4,8(a5)
80001d40:	00005797 	auipc	a5,0x5
80001d44:	ed878793 	addi	a5,a5,-296 # 80006c18 <col.1101>
80001d48:	00e7a423 	sw	a4,8(a5)
80001d4c:	fec42783 	lw	a5,-20(s0)
80001d50:	03078793 	addi	a5,a5,48
80001d54:	0087a703 	lw	a4,8(a5)
80001d58:	00005797 	auipc	a5,0x5
80001d5c:	ec078793 	addi	a5,a5,-320 # 80006c18 <col.1101>
80001d60:	00e7a623 	sw	a4,12(a5)
80001d64:	00005797 	auipc	a5,0x5
80001d68:	eb478793 	addi	a5,a5,-332 # 80006c18 <col.1101>
80001d6c:	0007a703 	lw	a4,0(a5)
80001d70:	00003697 	auipc	a3,0x3
80001d74:	34c68693 	addi	a3,a3,844 # 800050bc <gf_mul>
80001d78:	00070793 	mv	a5,a4
80001d7c:	00179793 	slli	a5,a5,0x1
80001d80:	00e787b3 	add	a5,a5,a4
80001d84:	00379793 	slli	a5,a5,0x3
80001d88:	00f687b3 	add	a5,a3,a5
80001d8c:	0007a703 	lw	a4,0(a5)
80001d90:	fec42783 	lw	a5,-20(s0)
80001d94:	00e7a423 	sw	a4,8(a5)
80001d98:	00005797 	auipc	a5,0x5
80001d9c:	e8078793 	addi	a5,a5,-384 # 80006c18 <col.1101>
80001da0:	0047a703 	lw	a4,4(a5)
80001da4:	00003697 	auipc	a3,0x3
80001da8:	31868693 	addi	a3,a3,792 # 800050bc <gf_mul>
80001dac:	00070793 	mv	a5,a4
80001db0:	00179793 	slli	a5,a5,0x1
80001db4:	00e787b3 	add	a5,a5,a4
80001db8:	00379793 	slli	a5,a5,0x3
80001dbc:	00f687b3 	add	a5,a3,a5
80001dc0:	0047a703 	lw	a4,4(a5)
80001dc4:	fec42783 	lw	a5,-20(s0)
80001dc8:	0087a783 	lw	a5,8(a5)
80001dcc:	00f74733 	xor	a4,a4,a5
80001dd0:	fec42783 	lw	a5,-20(s0)
80001dd4:	00e7a423 	sw	a4,8(a5)
80001dd8:	fec42783 	lw	a5,-20(s0)
80001ddc:	0087a703 	lw	a4,8(a5)
80001de0:	00005797 	auipc	a5,0x5
80001de4:	e3878793 	addi	a5,a5,-456 # 80006c18 <col.1101>
80001de8:	0087a783 	lw	a5,8(a5)
80001dec:	00f74733 	xor	a4,a4,a5
80001df0:	fec42783 	lw	a5,-20(s0)
80001df4:	00e7a423 	sw	a4,8(a5)
80001df8:	fec42783 	lw	a5,-20(s0)
80001dfc:	0087a703 	lw	a4,8(a5)
80001e00:	00005797 	auipc	a5,0x5
80001e04:	e1878793 	addi	a5,a5,-488 # 80006c18 <col.1101>
80001e08:	00c7a783 	lw	a5,12(a5)
80001e0c:	00f74733 	xor	a4,a4,a5
80001e10:	fec42783 	lw	a5,-20(s0)
80001e14:	00e7a423 	sw	a4,8(a5)
80001e18:	fec42783 	lw	a5,-20(s0)
80001e1c:	01078793 	addi	a5,a5,16
80001e20:	00005717 	auipc	a4,0x5
80001e24:	df870713 	addi	a4,a4,-520 # 80006c18 <col.1101>
80001e28:	00072703 	lw	a4,0(a4)
80001e2c:	00e7a423 	sw	a4,8(a5)
80001e30:	00005797 	auipc	a5,0x5
80001e34:	de878793 	addi	a5,a5,-536 # 80006c18 <col.1101>
80001e38:	0047a703 	lw	a4,4(a5)
80001e3c:	00003697 	auipc	a3,0x3
80001e40:	28068693 	addi	a3,a3,640 # 800050bc <gf_mul>
80001e44:	00070793 	mv	a5,a4
80001e48:	00179793 	slli	a5,a5,0x1
80001e4c:	00e787b3 	add	a5,a5,a4
80001e50:	00379793 	slli	a5,a5,0x3
80001e54:	00f687b3 	add	a5,a3,a5
80001e58:	0007a683 	lw	a3,0(a5)
80001e5c:	fec42783 	lw	a5,-20(s0)
80001e60:	01078793 	addi	a5,a5,16
80001e64:	0087a703 	lw	a4,8(a5)
80001e68:	fec42783 	lw	a5,-20(s0)
80001e6c:	01078793 	addi	a5,a5,16
80001e70:	00e6c733 	xor	a4,a3,a4
80001e74:	00e7a423 	sw	a4,8(a5)
80001e78:	00005797 	auipc	a5,0x5
80001e7c:	da078793 	addi	a5,a5,-608 # 80006c18 <col.1101>
80001e80:	0087a703 	lw	a4,8(a5)
80001e84:	00003697 	auipc	a3,0x3
80001e88:	23868693 	addi	a3,a3,568 # 800050bc <gf_mul>
80001e8c:	00070793 	mv	a5,a4
80001e90:	00179793 	slli	a5,a5,0x1
80001e94:	00e787b3 	add	a5,a5,a4
80001e98:	00379793 	slli	a5,a5,0x3
80001e9c:	00f687b3 	add	a5,a3,a5
80001ea0:	0047a683 	lw	a3,4(a5)
80001ea4:	fec42783 	lw	a5,-20(s0)
80001ea8:	01078793 	addi	a5,a5,16
80001eac:	0087a703 	lw	a4,8(a5)
80001eb0:	fec42783 	lw	a5,-20(s0)
80001eb4:	01078793 	addi	a5,a5,16
80001eb8:	00e6c733 	xor	a4,a3,a4
80001ebc:	00e7a423 	sw	a4,8(a5)
80001ec0:	fec42783 	lw	a5,-20(s0)
80001ec4:	01078793 	addi	a5,a5,16
80001ec8:	0087a683 	lw	a3,8(a5)
80001ecc:	00005797 	auipc	a5,0x5
80001ed0:	d4c78793 	addi	a5,a5,-692 # 80006c18 <col.1101>
80001ed4:	00c7a703 	lw	a4,12(a5)
80001ed8:	fec42783 	lw	a5,-20(s0)
80001edc:	01078793 	addi	a5,a5,16
80001ee0:	00e6c733 	xor	a4,a3,a4
80001ee4:	00e7a423 	sw	a4,8(a5)
80001ee8:	fec42783 	lw	a5,-20(s0)
80001eec:	02078793 	addi	a5,a5,32
80001ef0:	00005717 	auipc	a4,0x5
80001ef4:	d2870713 	addi	a4,a4,-728 # 80006c18 <col.1101>
80001ef8:	00072703 	lw	a4,0(a4)
80001efc:	00e7a423 	sw	a4,8(a5)
80001f00:	fec42783 	lw	a5,-20(s0)
80001f04:	02078793 	addi	a5,a5,32
80001f08:	0087a683 	lw	a3,8(a5)
80001f0c:	00005797 	auipc	a5,0x5
80001f10:	d0c78793 	addi	a5,a5,-756 # 80006c18 <col.1101>
80001f14:	0047a703 	lw	a4,4(a5)
80001f18:	fec42783 	lw	a5,-20(s0)
80001f1c:	02078793 	addi	a5,a5,32
80001f20:	00e6c733 	xor	a4,a3,a4
80001f24:	00e7a423 	sw	a4,8(a5)
80001f28:	00005797 	auipc	a5,0x5
80001f2c:	cf078793 	addi	a5,a5,-784 # 80006c18 <col.1101>
80001f30:	0087a703 	lw	a4,8(a5)
80001f34:	00003697 	auipc	a3,0x3
80001f38:	18868693 	addi	a3,a3,392 # 800050bc <gf_mul>
80001f3c:	00070793 	mv	a5,a4
80001f40:	00179793 	slli	a5,a5,0x1
80001f44:	00e787b3 	add	a5,a5,a4
80001f48:	00379793 	slli	a5,a5,0x3
80001f4c:	00f687b3 	add	a5,a3,a5
80001f50:	0007a683 	lw	a3,0(a5)
80001f54:	fec42783 	lw	a5,-20(s0)
80001f58:	02078793 	addi	a5,a5,32
80001f5c:	0087a703 	lw	a4,8(a5)
80001f60:	fec42783 	lw	a5,-20(s0)
80001f64:	02078793 	addi	a5,a5,32
80001f68:	00e6c733 	xor	a4,a3,a4
80001f6c:	00e7a423 	sw	a4,8(a5)
80001f70:	00005797 	auipc	a5,0x5
80001f74:	ca878793 	addi	a5,a5,-856 # 80006c18 <col.1101>
80001f78:	00c7a703 	lw	a4,12(a5)
80001f7c:	00003697 	auipc	a3,0x3
80001f80:	14068693 	addi	a3,a3,320 # 800050bc <gf_mul>
80001f84:	00070793 	mv	a5,a4
80001f88:	00179793 	slli	a5,a5,0x1
80001f8c:	00e787b3 	add	a5,a5,a4
80001f90:	00379793 	slli	a5,a5,0x3
80001f94:	00f687b3 	add	a5,a3,a5
80001f98:	0047a683 	lw	a3,4(a5)
80001f9c:	fec42783 	lw	a5,-20(s0)
80001fa0:	02078793 	addi	a5,a5,32
80001fa4:	0087a703 	lw	a4,8(a5)
80001fa8:	fec42783 	lw	a5,-20(s0)
80001fac:	02078793 	addi	a5,a5,32
80001fb0:	00e6c733 	xor	a4,a3,a4
80001fb4:	00e7a423 	sw	a4,8(a5)
80001fb8:	00005797 	auipc	a5,0x5
80001fbc:	c6078793 	addi	a5,a5,-928 # 80006c18 <col.1101>
80001fc0:	0007a703 	lw	a4,0(a5)
80001fc4:	fec42783 	lw	a5,-20(s0)
80001fc8:	03078693 	addi	a3,a5,48
80001fcc:	00003617 	auipc	a2,0x3
80001fd0:	0f060613 	addi	a2,a2,240 # 800050bc <gf_mul>
80001fd4:	00070793 	mv	a5,a4
80001fd8:	00179793 	slli	a5,a5,0x1
80001fdc:	00e787b3 	add	a5,a5,a4
80001fe0:	00379793 	slli	a5,a5,0x3
80001fe4:	00f607b3 	add	a5,a2,a5
80001fe8:	0047a783 	lw	a5,4(a5)
80001fec:	00f6a423 	sw	a5,8(a3)
80001ff0:	fec42783 	lw	a5,-20(s0)
80001ff4:	03078793 	addi	a5,a5,48
80001ff8:	0087a683 	lw	a3,8(a5)
80001ffc:	00005797 	auipc	a5,0x5
80002000:	c1c78793 	addi	a5,a5,-996 # 80006c18 <col.1101>
80002004:	0047a703 	lw	a4,4(a5)
80002008:	fec42783 	lw	a5,-20(s0)
8000200c:	03078793 	addi	a5,a5,48
80002010:	00e6c733 	xor	a4,a3,a4
80002014:	00e7a423 	sw	a4,8(a5)
80002018:	fec42783 	lw	a5,-20(s0)
8000201c:	03078793 	addi	a5,a5,48
80002020:	0087a683 	lw	a3,8(a5)
80002024:	00005797 	auipc	a5,0x5
80002028:	bf478793 	addi	a5,a5,-1036 # 80006c18 <col.1101>
8000202c:	0087a703 	lw	a4,8(a5)
80002030:	fec42783 	lw	a5,-20(s0)
80002034:	03078793 	addi	a5,a5,48
80002038:	00e6c733 	xor	a4,a3,a4
8000203c:	00e7a423 	sw	a4,8(a5)
80002040:	00005797 	auipc	a5,0x5
80002044:	bd878793 	addi	a5,a5,-1064 # 80006c18 <col.1101>
80002048:	00c7a703 	lw	a4,12(a5)
8000204c:	00003697 	auipc	a3,0x3
80002050:	07068693 	addi	a3,a3,112 # 800050bc <gf_mul>
80002054:	00070793 	mv	a5,a4
80002058:	00179793 	slli	a5,a5,0x1
8000205c:	00e787b3 	add	a5,a5,a4
80002060:	00379793 	slli	a5,a5,0x3
80002064:	00f687b3 	add	a5,a3,a5
80002068:	0007a683 	lw	a3,0(a5)
8000206c:	fec42783 	lw	a5,-20(s0)
80002070:	03078793 	addi	a5,a5,48
80002074:	0087a703 	lw	a4,8(a5)
80002078:	fec42783 	lw	a5,-20(s0)
8000207c:	03078793 	addi	a5,a5,48
80002080:	00e6c733 	xor	a4,a3,a4
80002084:	00e7a423 	sw	a4,8(a5)
80002088:	fec42783 	lw	a5,-20(s0)
8000208c:	00c7a703 	lw	a4,12(a5)
80002090:	00005797 	auipc	a5,0x5
80002094:	b8878793 	addi	a5,a5,-1144 # 80006c18 <col.1101>
80002098:	00e7a023 	sw	a4,0(a5)
8000209c:	fec42783 	lw	a5,-20(s0)
800020a0:	01078793 	addi	a5,a5,16
800020a4:	00c7a703 	lw	a4,12(a5)
800020a8:	00005797 	auipc	a5,0x5
800020ac:	b7078793 	addi	a5,a5,-1168 # 80006c18 <col.1101>
800020b0:	00e7a223 	sw	a4,4(a5)
800020b4:	fec42783 	lw	a5,-20(s0)
800020b8:	02078793 	addi	a5,a5,32
800020bc:	00c7a703 	lw	a4,12(a5)
800020c0:	00005797 	auipc	a5,0x5
800020c4:	b5878793 	addi	a5,a5,-1192 # 80006c18 <col.1101>
800020c8:	00e7a423 	sw	a4,8(a5)
800020cc:	fec42783 	lw	a5,-20(s0)
800020d0:	03078793 	addi	a5,a5,48
800020d4:	00c7a703 	lw	a4,12(a5)
800020d8:	00005797 	auipc	a5,0x5
800020dc:	b4078793 	addi	a5,a5,-1216 # 80006c18 <col.1101>
800020e0:	00e7a623 	sw	a4,12(a5)
800020e4:	00005797 	auipc	a5,0x5
800020e8:	b3478793 	addi	a5,a5,-1228 # 80006c18 <col.1101>
800020ec:	0007a703 	lw	a4,0(a5)
800020f0:	00003697 	auipc	a3,0x3
800020f4:	fcc68693 	addi	a3,a3,-52 # 800050bc <gf_mul>
800020f8:	00070793 	mv	a5,a4
800020fc:	00179793 	slli	a5,a5,0x1
80002100:	00e787b3 	add	a5,a5,a4
80002104:	00379793 	slli	a5,a5,0x3
80002108:	00f687b3 	add	a5,a3,a5
8000210c:	0007a703 	lw	a4,0(a5)
80002110:	fec42783 	lw	a5,-20(s0)
80002114:	00e7a623 	sw	a4,12(a5)
80002118:	00005797 	auipc	a5,0x5
8000211c:	b0078793 	addi	a5,a5,-1280 # 80006c18 <col.1101>
80002120:	0047a703 	lw	a4,4(a5)
80002124:	00003697 	auipc	a3,0x3
80002128:	f9868693 	addi	a3,a3,-104 # 800050bc <gf_mul>
8000212c:	00070793 	mv	a5,a4
80002130:	00179793 	slli	a5,a5,0x1
80002134:	00e787b3 	add	a5,a5,a4
80002138:	00379793 	slli	a5,a5,0x3
8000213c:	00f687b3 	add	a5,a3,a5
80002140:	0047a703 	lw	a4,4(a5)
80002144:	fec42783 	lw	a5,-20(s0)
80002148:	00c7a783 	lw	a5,12(a5)
8000214c:	00f74733 	xor	a4,a4,a5
80002150:	fec42783 	lw	a5,-20(s0)
80002154:	00e7a623 	sw	a4,12(a5)
80002158:	fec42783 	lw	a5,-20(s0)
8000215c:	00c7a703 	lw	a4,12(a5)
80002160:	00005797 	auipc	a5,0x5
80002164:	ab878793 	addi	a5,a5,-1352 # 80006c18 <col.1101>
80002168:	0087a783 	lw	a5,8(a5)
8000216c:	00f74733 	xor	a4,a4,a5
80002170:	fec42783 	lw	a5,-20(s0)
80002174:	00e7a623 	sw	a4,12(a5)
80002178:	fec42783 	lw	a5,-20(s0)
8000217c:	00c7a703 	lw	a4,12(a5)
80002180:	00005797 	auipc	a5,0x5
80002184:	a9878793 	addi	a5,a5,-1384 # 80006c18 <col.1101>
80002188:	00c7a783 	lw	a5,12(a5)
8000218c:	00f74733 	xor	a4,a4,a5
80002190:	fec42783 	lw	a5,-20(s0)
80002194:	00e7a623 	sw	a4,12(a5)
80002198:	fec42783 	lw	a5,-20(s0)
8000219c:	01078793 	addi	a5,a5,16
800021a0:	00005717 	auipc	a4,0x5
800021a4:	a7870713 	addi	a4,a4,-1416 # 80006c18 <col.1101>
800021a8:	00072703 	lw	a4,0(a4)
800021ac:	00e7a623 	sw	a4,12(a5)
800021b0:	00005797 	auipc	a5,0x5
800021b4:	a6878793 	addi	a5,a5,-1432 # 80006c18 <col.1101>
800021b8:	0047a703 	lw	a4,4(a5)
800021bc:	00003697 	auipc	a3,0x3
800021c0:	f0068693 	addi	a3,a3,-256 # 800050bc <gf_mul>
800021c4:	00070793 	mv	a5,a4
800021c8:	00179793 	slli	a5,a5,0x1
800021cc:	00e787b3 	add	a5,a5,a4
800021d0:	00379793 	slli	a5,a5,0x3
800021d4:	00f687b3 	add	a5,a3,a5
800021d8:	0007a683 	lw	a3,0(a5)
800021dc:	fec42783 	lw	a5,-20(s0)
800021e0:	01078793 	addi	a5,a5,16
800021e4:	00c7a703 	lw	a4,12(a5)
800021e8:	fec42783 	lw	a5,-20(s0)
800021ec:	01078793 	addi	a5,a5,16
800021f0:	00e6c733 	xor	a4,a3,a4
800021f4:	00e7a623 	sw	a4,12(a5)
800021f8:	00005797 	auipc	a5,0x5
800021fc:	a2078793 	addi	a5,a5,-1504 # 80006c18 <col.1101>
80002200:	0087a703 	lw	a4,8(a5)
80002204:	00003697 	auipc	a3,0x3
80002208:	eb868693 	addi	a3,a3,-328 # 800050bc <gf_mul>
8000220c:	00070793 	mv	a5,a4
80002210:	00179793 	slli	a5,a5,0x1
80002214:	00e787b3 	add	a5,a5,a4
80002218:	00379793 	slli	a5,a5,0x3
8000221c:	00f687b3 	add	a5,a3,a5
80002220:	0047a683 	lw	a3,4(a5)
80002224:	fec42783 	lw	a5,-20(s0)
80002228:	01078793 	addi	a5,a5,16
8000222c:	00c7a703 	lw	a4,12(a5)
80002230:	fec42783 	lw	a5,-20(s0)
80002234:	01078793 	addi	a5,a5,16
80002238:	00e6c733 	xor	a4,a3,a4
8000223c:	00e7a623 	sw	a4,12(a5)
80002240:	fec42783 	lw	a5,-20(s0)
80002244:	01078793 	addi	a5,a5,16
80002248:	00c7a683 	lw	a3,12(a5)
8000224c:	00005797 	auipc	a5,0x5
80002250:	9cc78793 	addi	a5,a5,-1588 # 80006c18 <col.1101>
80002254:	00c7a703 	lw	a4,12(a5)
80002258:	fec42783 	lw	a5,-20(s0)
8000225c:	01078793 	addi	a5,a5,16
80002260:	00e6c733 	xor	a4,a3,a4
80002264:	00e7a623 	sw	a4,12(a5)
80002268:	fec42783 	lw	a5,-20(s0)
8000226c:	02078793 	addi	a5,a5,32
80002270:	00005717 	auipc	a4,0x5
80002274:	9a870713 	addi	a4,a4,-1624 # 80006c18 <col.1101>
80002278:	00072703 	lw	a4,0(a4)
8000227c:	00e7a623 	sw	a4,12(a5)
80002280:	fec42783 	lw	a5,-20(s0)
80002284:	02078793 	addi	a5,a5,32
80002288:	00c7a683 	lw	a3,12(a5)
8000228c:	00005797 	auipc	a5,0x5
80002290:	98c78793 	addi	a5,a5,-1652 # 80006c18 <col.1101>
80002294:	0047a703 	lw	a4,4(a5)
80002298:	fec42783 	lw	a5,-20(s0)
8000229c:	02078793 	addi	a5,a5,32
800022a0:	00e6c733 	xor	a4,a3,a4
800022a4:	00e7a623 	sw	a4,12(a5)
800022a8:	00005797 	auipc	a5,0x5
800022ac:	97078793 	addi	a5,a5,-1680 # 80006c18 <col.1101>
800022b0:	0087a703 	lw	a4,8(a5)
800022b4:	00003697 	auipc	a3,0x3
800022b8:	e0868693 	addi	a3,a3,-504 # 800050bc <gf_mul>
800022bc:	00070793 	mv	a5,a4
800022c0:	00179793 	slli	a5,a5,0x1
800022c4:	00e787b3 	add	a5,a5,a4
800022c8:	00379793 	slli	a5,a5,0x3
800022cc:	00f687b3 	add	a5,a3,a5
800022d0:	0007a683 	lw	a3,0(a5)
800022d4:	fec42783 	lw	a5,-20(s0)
800022d8:	02078793 	addi	a5,a5,32
800022dc:	00c7a703 	lw	a4,12(a5)
800022e0:	fec42783 	lw	a5,-20(s0)
800022e4:	02078793 	addi	a5,a5,32
800022e8:	00e6c733 	xor	a4,a3,a4
800022ec:	00e7a623 	sw	a4,12(a5)
800022f0:	00005797 	auipc	a5,0x5
800022f4:	92878793 	addi	a5,a5,-1752 # 80006c18 <col.1101>
800022f8:	00c7a703 	lw	a4,12(a5)
800022fc:	00003697 	auipc	a3,0x3
80002300:	dc068693 	addi	a3,a3,-576 # 800050bc <gf_mul>
80002304:	00070793 	mv	a5,a4
80002308:	00179793 	slli	a5,a5,0x1
8000230c:	00e787b3 	add	a5,a5,a4
80002310:	00379793 	slli	a5,a5,0x3
80002314:	00f687b3 	add	a5,a3,a5
80002318:	0047a683 	lw	a3,4(a5)
8000231c:	fec42783 	lw	a5,-20(s0)
80002320:	02078793 	addi	a5,a5,32
80002324:	00c7a703 	lw	a4,12(a5)
80002328:	fec42783 	lw	a5,-20(s0)
8000232c:	02078793 	addi	a5,a5,32
80002330:	00e6c733 	xor	a4,a3,a4
80002334:	00e7a623 	sw	a4,12(a5)
80002338:	00005797 	auipc	a5,0x5
8000233c:	8e078793 	addi	a5,a5,-1824 # 80006c18 <col.1101>
80002340:	0007a703 	lw	a4,0(a5)
80002344:	fec42783 	lw	a5,-20(s0)
80002348:	03078693 	addi	a3,a5,48
8000234c:	00003617 	auipc	a2,0x3
80002350:	d7060613 	addi	a2,a2,-656 # 800050bc <gf_mul>
80002354:	00070793 	mv	a5,a4
80002358:	00179793 	slli	a5,a5,0x1
8000235c:	00e787b3 	add	a5,a5,a4
80002360:	00379793 	slli	a5,a5,0x3
80002364:	00f607b3 	add	a5,a2,a5
80002368:	0047a783 	lw	a5,4(a5)
8000236c:	00f6a623 	sw	a5,12(a3)
80002370:	fec42783 	lw	a5,-20(s0)
80002374:	03078793 	addi	a5,a5,48
80002378:	00c7a683 	lw	a3,12(a5)
8000237c:	00005797 	auipc	a5,0x5
80002380:	89c78793 	addi	a5,a5,-1892 # 80006c18 <col.1101>
80002384:	0047a703 	lw	a4,4(a5)
80002388:	fec42783 	lw	a5,-20(s0)
8000238c:	03078793 	addi	a5,a5,48
80002390:	00e6c733 	xor	a4,a3,a4
80002394:	00e7a623 	sw	a4,12(a5)
80002398:	fec42783 	lw	a5,-20(s0)
8000239c:	03078793 	addi	a5,a5,48
800023a0:	00c7a683 	lw	a3,12(a5)
800023a4:	00005797 	auipc	a5,0x5
800023a8:	87478793 	addi	a5,a5,-1932 # 80006c18 <col.1101>
800023ac:	0087a703 	lw	a4,8(a5)
800023b0:	fec42783 	lw	a5,-20(s0)
800023b4:	03078793 	addi	a5,a5,48
800023b8:	00e6c733 	xor	a4,a3,a4
800023bc:	00e7a623 	sw	a4,12(a5)
800023c0:	00005797 	auipc	a5,0x5
800023c4:	85878793 	addi	a5,a5,-1960 # 80006c18 <col.1101>
800023c8:	00c7a703 	lw	a4,12(a5)
800023cc:	00003697 	auipc	a3,0x3
800023d0:	cf068693 	addi	a3,a3,-784 # 800050bc <gf_mul>
800023d4:	00070793 	mv	a5,a4
800023d8:	00179793 	slli	a5,a5,0x1
800023dc:	00e787b3 	add	a5,a5,a4
800023e0:	00379793 	slli	a5,a5,0x3
800023e4:	00f687b3 	add	a5,a3,a5
800023e8:	0007a683 	lw	a3,0(a5)
800023ec:	fec42783 	lw	a5,-20(s0)
800023f0:	03078793 	addi	a5,a5,48
800023f4:	00c7a703 	lw	a4,12(a5)
800023f8:	fec42783 	lw	a5,-20(s0)
800023fc:	03078793 	addi	a5,a5,48
80002400:	00e6c733 	xor	a4,a3,a4
80002404:	00e7a623 	sw	a4,12(a5)
80002408:	00000013 	nop
8000240c:	01c12403 	lw	s0,28(sp)
80002410:	02010113 	addi	sp,sp,32
80002414:	00008067 	ret

80002418 <InvMixColumns>:
80002418:	fe010113 	addi	sp,sp,-32
8000241c:	00812e23 	sw	s0,28(sp)
80002420:	02010413 	addi	s0,sp,32
80002424:	fea42623 	sw	a0,-20(s0)
80002428:	fec42783 	lw	a5,-20(s0)
8000242c:	0007a703 	lw	a4,0(a5)
80002430:	00004797 	auipc	a5,0x4
80002434:	7f878793 	addi	a5,a5,2040 # 80006c28 <col.1105>
80002438:	00e7a023 	sw	a4,0(a5)
8000243c:	fec42783 	lw	a5,-20(s0)
80002440:	01078793 	addi	a5,a5,16
80002444:	0007a703 	lw	a4,0(a5)
80002448:	00004797 	auipc	a5,0x4
8000244c:	7e078793 	addi	a5,a5,2016 # 80006c28 <col.1105>
80002450:	00e7a223 	sw	a4,4(a5)
80002454:	fec42783 	lw	a5,-20(s0)
80002458:	02078793 	addi	a5,a5,32
8000245c:	0007a703 	lw	a4,0(a5)
80002460:	00004797 	auipc	a5,0x4
80002464:	7c878793 	addi	a5,a5,1992 # 80006c28 <col.1105>
80002468:	00e7a423 	sw	a4,8(a5)
8000246c:	fec42783 	lw	a5,-20(s0)
80002470:	03078793 	addi	a5,a5,48
80002474:	0007a703 	lw	a4,0(a5)
80002478:	00004797 	auipc	a5,0x4
8000247c:	7b078793 	addi	a5,a5,1968 # 80006c28 <col.1105>
80002480:	00e7a623 	sw	a4,12(a5)
80002484:	00004797 	auipc	a5,0x4
80002488:	7a478793 	addi	a5,a5,1956 # 80006c28 <col.1105>
8000248c:	0007a703 	lw	a4,0(a5)
80002490:	00003697 	auipc	a3,0x3
80002494:	c2c68693 	addi	a3,a3,-980 # 800050bc <gf_mul>
80002498:	00070793 	mv	a5,a4
8000249c:	00179793 	slli	a5,a5,0x1
800024a0:	00e787b3 	add	a5,a5,a4
800024a4:	00379793 	slli	a5,a5,0x3
800024a8:	00f687b3 	add	a5,a3,a5
800024ac:	0147a703 	lw	a4,20(a5)
800024b0:	fec42783 	lw	a5,-20(s0)
800024b4:	00e7a023 	sw	a4,0(a5)
800024b8:	00004797 	auipc	a5,0x4
800024bc:	77078793 	addi	a5,a5,1904 # 80006c28 <col.1105>
800024c0:	0047a703 	lw	a4,4(a5)
800024c4:	00003697 	auipc	a3,0x3
800024c8:	bf868693 	addi	a3,a3,-1032 # 800050bc <gf_mul>
800024cc:	00070793 	mv	a5,a4
800024d0:	00179793 	slli	a5,a5,0x1
800024d4:	00e787b3 	add	a5,a5,a4
800024d8:	00379793 	slli	a5,a5,0x3
800024dc:	00f687b3 	add	a5,a3,a5
800024e0:	00c7a703 	lw	a4,12(a5)
800024e4:	fec42783 	lw	a5,-20(s0)
800024e8:	0007a783 	lw	a5,0(a5)
800024ec:	00f74733 	xor	a4,a4,a5
800024f0:	fec42783 	lw	a5,-20(s0)
800024f4:	00e7a023 	sw	a4,0(a5)
800024f8:	00004797 	auipc	a5,0x4
800024fc:	73078793 	addi	a5,a5,1840 # 80006c28 <col.1105>
80002500:	0087a703 	lw	a4,8(a5)
80002504:	00003697 	auipc	a3,0x3
80002508:	bb868693 	addi	a3,a3,-1096 # 800050bc <gf_mul>
8000250c:	00070793 	mv	a5,a4
80002510:	00179793 	slli	a5,a5,0x1
80002514:	00e787b3 	add	a5,a5,a4
80002518:	00379793 	slli	a5,a5,0x3
8000251c:	00f687b3 	add	a5,a3,a5
80002520:	0107a703 	lw	a4,16(a5)
80002524:	fec42783 	lw	a5,-20(s0)
80002528:	0007a783 	lw	a5,0(a5)
8000252c:	00f74733 	xor	a4,a4,a5
80002530:	fec42783 	lw	a5,-20(s0)
80002534:	00e7a023 	sw	a4,0(a5)
80002538:	00004797 	auipc	a5,0x4
8000253c:	6f078793 	addi	a5,a5,1776 # 80006c28 <col.1105>
80002540:	00c7a703 	lw	a4,12(a5)
80002544:	00003697 	auipc	a3,0x3
80002548:	b7868693 	addi	a3,a3,-1160 # 800050bc <gf_mul>
8000254c:	00070793 	mv	a5,a4
80002550:	00179793 	slli	a5,a5,0x1
80002554:	00e787b3 	add	a5,a5,a4
80002558:	00379793 	slli	a5,a5,0x3
8000255c:	00f687b3 	add	a5,a3,a5
80002560:	0087a703 	lw	a4,8(a5)
80002564:	fec42783 	lw	a5,-20(s0)
80002568:	0007a783 	lw	a5,0(a5)
8000256c:	00f74733 	xor	a4,a4,a5
80002570:	fec42783 	lw	a5,-20(s0)
80002574:	00e7a023 	sw	a4,0(a5)
80002578:	00004797 	auipc	a5,0x4
8000257c:	6b078793 	addi	a5,a5,1712 # 80006c28 <col.1105>
80002580:	0007a703 	lw	a4,0(a5)
80002584:	fec42783 	lw	a5,-20(s0)
80002588:	01078693 	addi	a3,a5,16
8000258c:	00003617 	auipc	a2,0x3
80002590:	b3060613 	addi	a2,a2,-1232 # 800050bc <gf_mul>
80002594:	00070793 	mv	a5,a4
80002598:	00179793 	slli	a5,a5,0x1
8000259c:	00e787b3 	add	a5,a5,a4
800025a0:	00379793 	slli	a5,a5,0x3
800025a4:	00f607b3 	add	a5,a2,a5
800025a8:	0087a783 	lw	a5,8(a5)
800025ac:	00f6a023 	sw	a5,0(a3)
800025b0:	00004797 	auipc	a5,0x4
800025b4:	67878793 	addi	a5,a5,1656 # 80006c28 <col.1105>
800025b8:	0047a703 	lw	a4,4(a5)
800025bc:	00003697 	auipc	a3,0x3
800025c0:	b0068693 	addi	a3,a3,-1280 # 800050bc <gf_mul>
800025c4:	00070793 	mv	a5,a4
800025c8:	00179793 	slli	a5,a5,0x1
800025cc:	00e787b3 	add	a5,a5,a4
800025d0:	00379793 	slli	a5,a5,0x3
800025d4:	00f687b3 	add	a5,a3,a5
800025d8:	0147a683 	lw	a3,20(a5)
800025dc:	fec42783 	lw	a5,-20(s0)
800025e0:	01078793 	addi	a5,a5,16
800025e4:	0007a703 	lw	a4,0(a5)
800025e8:	fec42783 	lw	a5,-20(s0)
800025ec:	01078793 	addi	a5,a5,16
800025f0:	00e6c733 	xor	a4,a3,a4
800025f4:	00e7a023 	sw	a4,0(a5)
800025f8:	00004797 	auipc	a5,0x4
800025fc:	63078793 	addi	a5,a5,1584 # 80006c28 <col.1105>
80002600:	0087a703 	lw	a4,8(a5)
80002604:	00003697 	auipc	a3,0x3
80002608:	ab868693 	addi	a3,a3,-1352 # 800050bc <gf_mul>
8000260c:	00070793 	mv	a5,a4
80002610:	00179793 	slli	a5,a5,0x1
80002614:	00e787b3 	add	a5,a5,a4
80002618:	00379793 	slli	a5,a5,0x3
8000261c:	00f687b3 	add	a5,a3,a5
80002620:	00c7a683 	lw	a3,12(a5)
80002624:	fec42783 	lw	a5,-20(s0)
80002628:	01078793 	addi	a5,a5,16
8000262c:	0007a703 	lw	a4,0(a5)
80002630:	fec42783 	lw	a5,-20(s0)
80002634:	01078793 	addi	a5,a5,16
80002638:	00e6c733 	xor	a4,a3,a4
8000263c:	00e7a023 	sw	a4,0(a5)
80002640:	00004797 	auipc	a5,0x4
80002644:	5e878793 	addi	a5,a5,1512 # 80006c28 <col.1105>
80002648:	00c7a703 	lw	a4,12(a5)
8000264c:	00003697 	auipc	a3,0x3
80002650:	a7068693 	addi	a3,a3,-1424 # 800050bc <gf_mul>
80002654:	00070793 	mv	a5,a4
80002658:	00179793 	slli	a5,a5,0x1
8000265c:	00e787b3 	add	a5,a5,a4
80002660:	00379793 	slli	a5,a5,0x3
80002664:	00f687b3 	add	a5,a3,a5
80002668:	0107a683 	lw	a3,16(a5)
8000266c:	fec42783 	lw	a5,-20(s0)
80002670:	01078793 	addi	a5,a5,16
80002674:	0007a703 	lw	a4,0(a5)
80002678:	fec42783 	lw	a5,-20(s0)
8000267c:	01078793 	addi	a5,a5,16
80002680:	00e6c733 	xor	a4,a3,a4
80002684:	00e7a023 	sw	a4,0(a5)
80002688:	00004797 	auipc	a5,0x4
8000268c:	5a078793 	addi	a5,a5,1440 # 80006c28 <col.1105>
80002690:	0007a703 	lw	a4,0(a5)
80002694:	fec42783 	lw	a5,-20(s0)
80002698:	02078693 	addi	a3,a5,32
8000269c:	00003617 	auipc	a2,0x3
800026a0:	a2060613 	addi	a2,a2,-1504 # 800050bc <gf_mul>
800026a4:	00070793 	mv	a5,a4
800026a8:	00179793 	slli	a5,a5,0x1
800026ac:	00e787b3 	add	a5,a5,a4
800026b0:	00379793 	slli	a5,a5,0x3
800026b4:	00f607b3 	add	a5,a2,a5
800026b8:	0107a783 	lw	a5,16(a5)
800026bc:	00f6a023 	sw	a5,0(a3)
800026c0:	00004797 	auipc	a5,0x4
800026c4:	56878793 	addi	a5,a5,1384 # 80006c28 <col.1105>
800026c8:	0047a703 	lw	a4,4(a5)
800026cc:	00003697 	auipc	a3,0x3
800026d0:	9f068693 	addi	a3,a3,-1552 # 800050bc <gf_mul>
800026d4:	00070793 	mv	a5,a4
800026d8:	00179793 	slli	a5,a5,0x1
800026dc:	00e787b3 	add	a5,a5,a4
800026e0:	00379793 	slli	a5,a5,0x3
800026e4:	00f687b3 	add	a5,a3,a5
800026e8:	0087a683 	lw	a3,8(a5)
800026ec:	fec42783 	lw	a5,-20(s0)
800026f0:	02078793 	addi	a5,a5,32
800026f4:	0007a703 	lw	a4,0(a5)
800026f8:	fec42783 	lw	a5,-20(s0)
800026fc:	02078793 	addi	a5,a5,32
80002700:	00e6c733 	xor	a4,a3,a4
80002704:	00e7a023 	sw	a4,0(a5)
80002708:	00004797 	auipc	a5,0x4
8000270c:	52078793 	addi	a5,a5,1312 # 80006c28 <col.1105>
80002710:	0087a703 	lw	a4,8(a5)
80002714:	00003697 	auipc	a3,0x3
80002718:	9a868693 	addi	a3,a3,-1624 # 800050bc <gf_mul>
8000271c:	00070793 	mv	a5,a4
80002720:	00179793 	slli	a5,a5,0x1
80002724:	00e787b3 	add	a5,a5,a4
80002728:	00379793 	slli	a5,a5,0x3
8000272c:	00f687b3 	add	a5,a3,a5
80002730:	0147a683 	lw	a3,20(a5)
80002734:	fec42783 	lw	a5,-20(s0)
80002738:	02078793 	addi	a5,a5,32
8000273c:	0007a703 	lw	a4,0(a5)
80002740:	fec42783 	lw	a5,-20(s0)
80002744:	02078793 	addi	a5,a5,32
80002748:	00e6c733 	xor	a4,a3,a4
8000274c:	00e7a023 	sw	a4,0(a5)
80002750:	00004797 	auipc	a5,0x4
80002754:	4d878793 	addi	a5,a5,1240 # 80006c28 <col.1105>
80002758:	00c7a703 	lw	a4,12(a5)
8000275c:	00003697 	auipc	a3,0x3
80002760:	96068693 	addi	a3,a3,-1696 # 800050bc <gf_mul>
80002764:	00070793 	mv	a5,a4
80002768:	00179793 	slli	a5,a5,0x1
8000276c:	00e787b3 	add	a5,a5,a4
80002770:	00379793 	slli	a5,a5,0x3
80002774:	00f687b3 	add	a5,a3,a5
80002778:	00c7a683 	lw	a3,12(a5)
8000277c:	fec42783 	lw	a5,-20(s0)
80002780:	02078793 	addi	a5,a5,32
80002784:	0007a703 	lw	a4,0(a5)
80002788:	fec42783 	lw	a5,-20(s0)
8000278c:	02078793 	addi	a5,a5,32
80002790:	00e6c733 	xor	a4,a3,a4
80002794:	00e7a023 	sw	a4,0(a5)
80002798:	00004797 	auipc	a5,0x4
8000279c:	49078793 	addi	a5,a5,1168 # 80006c28 <col.1105>
800027a0:	0007a703 	lw	a4,0(a5)
800027a4:	fec42783 	lw	a5,-20(s0)
800027a8:	03078693 	addi	a3,a5,48
800027ac:	00003617 	auipc	a2,0x3
800027b0:	91060613 	addi	a2,a2,-1776 # 800050bc <gf_mul>
800027b4:	00070793 	mv	a5,a4
800027b8:	00179793 	slli	a5,a5,0x1
800027bc:	00e787b3 	add	a5,a5,a4
800027c0:	00379793 	slli	a5,a5,0x3
800027c4:	00f607b3 	add	a5,a2,a5
800027c8:	00c7a783 	lw	a5,12(a5)
800027cc:	00f6a023 	sw	a5,0(a3)
800027d0:	00004797 	auipc	a5,0x4
800027d4:	45878793 	addi	a5,a5,1112 # 80006c28 <col.1105>
800027d8:	0047a703 	lw	a4,4(a5)
800027dc:	00003697 	auipc	a3,0x3
800027e0:	8e068693 	addi	a3,a3,-1824 # 800050bc <gf_mul>
800027e4:	00070793 	mv	a5,a4
800027e8:	00179793 	slli	a5,a5,0x1
800027ec:	00e787b3 	add	a5,a5,a4
800027f0:	00379793 	slli	a5,a5,0x3
800027f4:	00f687b3 	add	a5,a3,a5
800027f8:	0107a683 	lw	a3,16(a5)
800027fc:	fec42783 	lw	a5,-20(s0)
80002800:	03078793 	addi	a5,a5,48
80002804:	0007a703 	lw	a4,0(a5)
80002808:	fec42783 	lw	a5,-20(s0)
8000280c:	03078793 	addi	a5,a5,48
80002810:	00e6c733 	xor	a4,a3,a4
80002814:	00e7a023 	sw	a4,0(a5)
80002818:	00004797 	auipc	a5,0x4
8000281c:	41078793 	addi	a5,a5,1040 # 80006c28 <col.1105>
80002820:	0087a703 	lw	a4,8(a5)
80002824:	00003697 	auipc	a3,0x3
80002828:	89868693 	addi	a3,a3,-1896 # 800050bc <gf_mul>
8000282c:	00070793 	mv	a5,a4
80002830:	00179793 	slli	a5,a5,0x1
80002834:	00e787b3 	add	a5,a5,a4
80002838:	00379793 	slli	a5,a5,0x3
8000283c:	00f687b3 	add	a5,a3,a5
80002840:	0087a683 	lw	a3,8(a5)
80002844:	fec42783 	lw	a5,-20(s0)
80002848:	03078793 	addi	a5,a5,48
8000284c:	0007a703 	lw	a4,0(a5)
80002850:	fec42783 	lw	a5,-20(s0)
80002854:	03078793 	addi	a5,a5,48
80002858:	00e6c733 	xor	a4,a3,a4
8000285c:	00e7a023 	sw	a4,0(a5)
80002860:	00004797 	auipc	a5,0x4
80002864:	3c878793 	addi	a5,a5,968 # 80006c28 <col.1105>
80002868:	00c7a703 	lw	a4,12(a5)
8000286c:	00003697 	auipc	a3,0x3
80002870:	85068693 	addi	a3,a3,-1968 # 800050bc <gf_mul>
80002874:	00070793 	mv	a5,a4
80002878:	00179793 	slli	a5,a5,0x1
8000287c:	00e787b3 	add	a5,a5,a4
80002880:	00379793 	slli	a5,a5,0x3
80002884:	00f687b3 	add	a5,a3,a5
80002888:	0147a683 	lw	a3,20(a5)
8000288c:	fec42783 	lw	a5,-20(s0)
80002890:	03078793 	addi	a5,a5,48
80002894:	0007a703 	lw	a4,0(a5)
80002898:	fec42783 	lw	a5,-20(s0)
8000289c:	03078793 	addi	a5,a5,48
800028a0:	00e6c733 	xor	a4,a3,a4
800028a4:	00e7a023 	sw	a4,0(a5)
800028a8:	fec42783 	lw	a5,-20(s0)
800028ac:	0047a703 	lw	a4,4(a5)
800028b0:	00004797 	auipc	a5,0x4
800028b4:	37878793 	addi	a5,a5,888 # 80006c28 <col.1105>
800028b8:	00e7a023 	sw	a4,0(a5)
800028bc:	fec42783 	lw	a5,-20(s0)
800028c0:	01078793 	addi	a5,a5,16
800028c4:	0047a703 	lw	a4,4(a5)
800028c8:	00004797 	auipc	a5,0x4
800028cc:	36078793 	addi	a5,a5,864 # 80006c28 <col.1105>
800028d0:	00e7a223 	sw	a4,4(a5)
800028d4:	fec42783 	lw	a5,-20(s0)
800028d8:	02078793 	addi	a5,a5,32
800028dc:	0047a703 	lw	a4,4(a5)
800028e0:	00004797 	auipc	a5,0x4
800028e4:	34878793 	addi	a5,a5,840 # 80006c28 <col.1105>
800028e8:	00e7a423 	sw	a4,8(a5)
800028ec:	fec42783 	lw	a5,-20(s0)
800028f0:	03078793 	addi	a5,a5,48
800028f4:	0047a703 	lw	a4,4(a5)
800028f8:	00004797 	auipc	a5,0x4
800028fc:	33078793 	addi	a5,a5,816 # 80006c28 <col.1105>
80002900:	00e7a623 	sw	a4,12(a5)
80002904:	00004797 	auipc	a5,0x4
80002908:	32478793 	addi	a5,a5,804 # 80006c28 <col.1105>
8000290c:	0007a703 	lw	a4,0(a5)
80002910:	00002697 	auipc	a3,0x2
80002914:	7ac68693 	addi	a3,a3,1964 # 800050bc <gf_mul>
80002918:	00070793 	mv	a5,a4
8000291c:	00179793 	slli	a5,a5,0x1
80002920:	00e787b3 	add	a5,a5,a4
80002924:	00379793 	slli	a5,a5,0x3
80002928:	00f687b3 	add	a5,a3,a5
8000292c:	0147a703 	lw	a4,20(a5)
80002930:	fec42783 	lw	a5,-20(s0)
80002934:	00e7a223 	sw	a4,4(a5)
80002938:	00004797 	auipc	a5,0x4
8000293c:	2f078793 	addi	a5,a5,752 # 80006c28 <col.1105>
80002940:	0047a703 	lw	a4,4(a5)
80002944:	00002697 	auipc	a3,0x2
80002948:	77868693 	addi	a3,a3,1912 # 800050bc <gf_mul>
8000294c:	00070793 	mv	a5,a4
80002950:	00179793 	slli	a5,a5,0x1
80002954:	00e787b3 	add	a5,a5,a4
80002958:	00379793 	slli	a5,a5,0x3
8000295c:	00f687b3 	add	a5,a3,a5
80002960:	00c7a703 	lw	a4,12(a5)
80002964:	fec42783 	lw	a5,-20(s0)
80002968:	0047a783 	lw	a5,4(a5)
8000296c:	00f74733 	xor	a4,a4,a5
80002970:	fec42783 	lw	a5,-20(s0)
80002974:	00e7a223 	sw	a4,4(a5)
80002978:	00004797 	auipc	a5,0x4
8000297c:	2b078793 	addi	a5,a5,688 # 80006c28 <col.1105>
80002980:	0087a703 	lw	a4,8(a5)
80002984:	00002697 	auipc	a3,0x2
80002988:	73868693 	addi	a3,a3,1848 # 800050bc <gf_mul>
8000298c:	00070793 	mv	a5,a4
80002990:	00179793 	slli	a5,a5,0x1
80002994:	00e787b3 	add	a5,a5,a4
80002998:	00379793 	slli	a5,a5,0x3
8000299c:	00f687b3 	add	a5,a3,a5
800029a0:	0107a703 	lw	a4,16(a5)
800029a4:	fec42783 	lw	a5,-20(s0)
800029a8:	0047a783 	lw	a5,4(a5)
800029ac:	00f74733 	xor	a4,a4,a5
800029b0:	fec42783 	lw	a5,-20(s0)
800029b4:	00e7a223 	sw	a4,4(a5)
800029b8:	00004797 	auipc	a5,0x4
800029bc:	27078793 	addi	a5,a5,624 # 80006c28 <col.1105>
800029c0:	00c7a703 	lw	a4,12(a5)
800029c4:	00002697 	auipc	a3,0x2
800029c8:	6f868693 	addi	a3,a3,1784 # 800050bc <gf_mul>
800029cc:	00070793 	mv	a5,a4
800029d0:	00179793 	slli	a5,a5,0x1
800029d4:	00e787b3 	add	a5,a5,a4
800029d8:	00379793 	slli	a5,a5,0x3
800029dc:	00f687b3 	add	a5,a3,a5
800029e0:	0087a703 	lw	a4,8(a5)
800029e4:	fec42783 	lw	a5,-20(s0)
800029e8:	0047a783 	lw	a5,4(a5)
800029ec:	00f74733 	xor	a4,a4,a5
800029f0:	fec42783 	lw	a5,-20(s0)
800029f4:	00e7a223 	sw	a4,4(a5)
800029f8:	00004797 	auipc	a5,0x4
800029fc:	23078793 	addi	a5,a5,560 # 80006c28 <col.1105>
80002a00:	0007a703 	lw	a4,0(a5)
80002a04:	fec42783 	lw	a5,-20(s0)
80002a08:	01078693 	addi	a3,a5,16
80002a0c:	00002617 	auipc	a2,0x2
80002a10:	6b060613 	addi	a2,a2,1712 # 800050bc <gf_mul>
80002a14:	00070793 	mv	a5,a4
80002a18:	00179793 	slli	a5,a5,0x1
80002a1c:	00e787b3 	add	a5,a5,a4
80002a20:	00379793 	slli	a5,a5,0x3
80002a24:	00f607b3 	add	a5,a2,a5
80002a28:	0087a783 	lw	a5,8(a5)
80002a2c:	00f6a223 	sw	a5,4(a3)
80002a30:	00004797 	auipc	a5,0x4
80002a34:	1f878793 	addi	a5,a5,504 # 80006c28 <col.1105>
80002a38:	0047a703 	lw	a4,4(a5)
80002a3c:	00002697 	auipc	a3,0x2
80002a40:	68068693 	addi	a3,a3,1664 # 800050bc <gf_mul>
80002a44:	00070793 	mv	a5,a4
80002a48:	00179793 	slli	a5,a5,0x1
80002a4c:	00e787b3 	add	a5,a5,a4
80002a50:	00379793 	slli	a5,a5,0x3
80002a54:	00f687b3 	add	a5,a3,a5
80002a58:	0147a683 	lw	a3,20(a5)
80002a5c:	fec42783 	lw	a5,-20(s0)
80002a60:	01078793 	addi	a5,a5,16
80002a64:	0047a703 	lw	a4,4(a5)
80002a68:	fec42783 	lw	a5,-20(s0)
80002a6c:	01078793 	addi	a5,a5,16
80002a70:	00e6c733 	xor	a4,a3,a4
80002a74:	00e7a223 	sw	a4,4(a5)
80002a78:	00004797 	auipc	a5,0x4
80002a7c:	1b078793 	addi	a5,a5,432 # 80006c28 <col.1105>
80002a80:	0087a703 	lw	a4,8(a5)
80002a84:	00002697 	auipc	a3,0x2
80002a88:	63868693 	addi	a3,a3,1592 # 800050bc <gf_mul>
80002a8c:	00070793 	mv	a5,a4
80002a90:	00179793 	slli	a5,a5,0x1
80002a94:	00e787b3 	add	a5,a5,a4
80002a98:	00379793 	slli	a5,a5,0x3
80002a9c:	00f687b3 	add	a5,a3,a5
80002aa0:	00c7a683 	lw	a3,12(a5)
80002aa4:	fec42783 	lw	a5,-20(s0)
80002aa8:	01078793 	addi	a5,a5,16
80002aac:	0047a703 	lw	a4,4(a5)
80002ab0:	fec42783 	lw	a5,-20(s0)
80002ab4:	01078793 	addi	a5,a5,16
80002ab8:	00e6c733 	xor	a4,a3,a4
80002abc:	00e7a223 	sw	a4,4(a5)
80002ac0:	00004797 	auipc	a5,0x4
80002ac4:	16878793 	addi	a5,a5,360 # 80006c28 <col.1105>
80002ac8:	00c7a703 	lw	a4,12(a5)
80002acc:	00002697 	auipc	a3,0x2
80002ad0:	5f068693 	addi	a3,a3,1520 # 800050bc <gf_mul>
80002ad4:	00070793 	mv	a5,a4
80002ad8:	00179793 	slli	a5,a5,0x1
80002adc:	00e787b3 	add	a5,a5,a4
80002ae0:	00379793 	slli	a5,a5,0x3
80002ae4:	00f687b3 	add	a5,a3,a5
80002ae8:	0107a683 	lw	a3,16(a5)
80002aec:	fec42783 	lw	a5,-20(s0)
80002af0:	01078793 	addi	a5,a5,16
80002af4:	0047a703 	lw	a4,4(a5)
80002af8:	fec42783 	lw	a5,-20(s0)
80002afc:	01078793 	addi	a5,a5,16
80002b00:	00e6c733 	xor	a4,a3,a4
80002b04:	00e7a223 	sw	a4,4(a5)
80002b08:	00004797 	auipc	a5,0x4
80002b0c:	12078793 	addi	a5,a5,288 # 80006c28 <col.1105>
80002b10:	0007a703 	lw	a4,0(a5)
80002b14:	fec42783 	lw	a5,-20(s0)
80002b18:	02078693 	addi	a3,a5,32
80002b1c:	00002617 	auipc	a2,0x2
80002b20:	5a060613 	addi	a2,a2,1440 # 800050bc <gf_mul>
80002b24:	00070793 	mv	a5,a4
80002b28:	00179793 	slli	a5,a5,0x1
80002b2c:	00e787b3 	add	a5,a5,a4
80002b30:	00379793 	slli	a5,a5,0x3
80002b34:	00f607b3 	add	a5,a2,a5
80002b38:	0107a783 	lw	a5,16(a5)
80002b3c:	00f6a223 	sw	a5,4(a3)
80002b40:	00004797 	auipc	a5,0x4
80002b44:	0e878793 	addi	a5,a5,232 # 80006c28 <col.1105>
80002b48:	0047a703 	lw	a4,4(a5)
80002b4c:	00002697 	auipc	a3,0x2
80002b50:	57068693 	addi	a3,a3,1392 # 800050bc <gf_mul>
80002b54:	00070793 	mv	a5,a4
80002b58:	00179793 	slli	a5,a5,0x1
80002b5c:	00e787b3 	add	a5,a5,a4
80002b60:	00379793 	slli	a5,a5,0x3
80002b64:	00f687b3 	add	a5,a3,a5
80002b68:	0087a683 	lw	a3,8(a5)
80002b6c:	fec42783 	lw	a5,-20(s0)
80002b70:	02078793 	addi	a5,a5,32
80002b74:	0047a703 	lw	a4,4(a5)
80002b78:	fec42783 	lw	a5,-20(s0)
80002b7c:	02078793 	addi	a5,a5,32
80002b80:	00e6c733 	xor	a4,a3,a4
80002b84:	00e7a223 	sw	a4,4(a5)
80002b88:	00004797 	auipc	a5,0x4
80002b8c:	0a078793 	addi	a5,a5,160 # 80006c28 <col.1105>
80002b90:	0087a703 	lw	a4,8(a5)
80002b94:	00002697 	auipc	a3,0x2
80002b98:	52868693 	addi	a3,a3,1320 # 800050bc <gf_mul>
80002b9c:	00070793 	mv	a5,a4
80002ba0:	00179793 	slli	a5,a5,0x1
80002ba4:	00e787b3 	add	a5,a5,a4
80002ba8:	00379793 	slli	a5,a5,0x3
80002bac:	00f687b3 	add	a5,a3,a5
80002bb0:	0147a683 	lw	a3,20(a5)
80002bb4:	fec42783 	lw	a5,-20(s0)
80002bb8:	02078793 	addi	a5,a5,32
80002bbc:	0047a703 	lw	a4,4(a5)
80002bc0:	fec42783 	lw	a5,-20(s0)
80002bc4:	02078793 	addi	a5,a5,32
80002bc8:	00e6c733 	xor	a4,a3,a4
80002bcc:	00e7a223 	sw	a4,4(a5)
80002bd0:	00004797 	auipc	a5,0x4
80002bd4:	05878793 	addi	a5,a5,88 # 80006c28 <col.1105>
80002bd8:	00c7a703 	lw	a4,12(a5)
80002bdc:	00002697 	auipc	a3,0x2
80002be0:	4e068693 	addi	a3,a3,1248 # 800050bc <gf_mul>
80002be4:	00070793 	mv	a5,a4
80002be8:	00179793 	slli	a5,a5,0x1
80002bec:	00e787b3 	add	a5,a5,a4
80002bf0:	00379793 	slli	a5,a5,0x3
80002bf4:	00f687b3 	add	a5,a3,a5
80002bf8:	00c7a683 	lw	a3,12(a5)
80002bfc:	fec42783 	lw	a5,-20(s0)
80002c00:	02078793 	addi	a5,a5,32
80002c04:	0047a703 	lw	a4,4(a5)
80002c08:	fec42783 	lw	a5,-20(s0)
80002c0c:	02078793 	addi	a5,a5,32
80002c10:	00e6c733 	xor	a4,a3,a4
80002c14:	00e7a223 	sw	a4,4(a5)
80002c18:	00004797 	auipc	a5,0x4
80002c1c:	01078793 	addi	a5,a5,16 # 80006c28 <col.1105>
80002c20:	0007a703 	lw	a4,0(a5)
80002c24:	fec42783 	lw	a5,-20(s0)
80002c28:	03078693 	addi	a3,a5,48
80002c2c:	00002617 	auipc	a2,0x2
80002c30:	49060613 	addi	a2,a2,1168 # 800050bc <gf_mul>
80002c34:	00070793 	mv	a5,a4
80002c38:	00179793 	slli	a5,a5,0x1
80002c3c:	00e787b3 	add	a5,a5,a4
80002c40:	00379793 	slli	a5,a5,0x3
80002c44:	00f607b3 	add	a5,a2,a5
80002c48:	00c7a783 	lw	a5,12(a5)
80002c4c:	00f6a223 	sw	a5,4(a3)
80002c50:	00004797 	auipc	a5,0x4
80002c54:	fd878793 	addi	a5,a5,-40 # 80006c28 <col.1105>
80002c58:	0047a703 	lw	a4,4(a5)
80002c5c:	00002697 	auipc	a3,0x2
80002c60:	46068693 	addi	a3,a3,1120 # 800050bc <gf_mul>
80002c64:	00070793 	mv	a5,a4
80002c68:	00179793 	slli	a5,a5,0x1
80002c6c:	00e787b3 	add	a5,a5,a4
80002c70:	00379793 	slli	a5,a5,0x3
80002c74:	00f687b3 	add	a5,a3,a5
80002c78:	0107a683 	lw	a3,16(a5)
80002c7c:	fec42783 	lw	a5,-20(s0)
80002c80:	03078793 	addi	a5,a5,48
80002c84:	0047a703 	lw	a4,4(a5)
80002c88:	fec42783 	lw	a5,-20(s0)
80002c8c:	03078793 	addi	a5,a5,48
80002c90:	00e6c733 	xor	a4,a3,a4
80002c94:	00e7a223 	sw	a4,4(a5)
80002c98:	00004797 	auipc	a5,0x4
80002c9c:	f9078793 	addi	a5,a5,-112 # 80006c28 <col.1105>
80002ca0:	0087a703 	lw	a4,8(a5)
80002ca4:	00002697 	auipc	a3,0x2
80002ca8:	41868693 	addi	a3,a3,1048 # 800050bc <gf_mul>
80002cac:	00070793 	mv	a5,a4
80002cb0:	00179793 	slli	a5,a5,0x1
80002cb4:	00e787b3 	add	a5,a5,a4
80002cb8:	00379793 	slli	a5,a5,0x3
80002cbc:	00f687b3 	add	a5,a3,a5
80002cc0:	0087a683 	lw	a3,8(a5)
80002cc4:	fec42783 	lw	a5,-20(s0)
80002cc8:	03078793 	addi	a5,a5,48
80002ccc:	0047a703 	lw	a4,4(a5)
80002cd0:	fec42783 	lw	a5,-20(s0)
80002cd4:	03078793 	addi	a5,a5,48
80002cd8:	00e6c733 	xor	a4,a3,a4
80002cdc:	00e7a223 	sw	a4,4(a5)
80002ce0:	00004797 	auipc	a5,0x4
80002ce4:	f4878793 	addi	a5,a5,-184 # 80006c28 <col.1105>
80002ce8:	00c7a703 	lw	a4,12(a5)
80002cec:	00002697 	auipc	a3,0x2
80002cf0:	3d068693 	addi	a3,a3,976 # 800050bc <gf_mul>
80002cf4:	00070793 	mv	a5,a4
80002cf8:	00179793 	slli	a5,a5,0x1
80002cfc:	00e787b3 	add	a5,a5,a4
80002d00:	00379793 	slli	a5,a5,0x3
80002d04:	00f687b3 	add	a5,a3,a5
80002d08:	0147a683 	lw	a3,20(a5)
80002d0c:	fec42783 	lw	a5,-20(s0)
80002d10:	03078793 	addi	a5,a5,48
80002d14:	0047a703 	lw	a4,4(a5)
80002d18:	fec42783 	lw	a5,-20(s0)
80002d1c:	03078793 	addi	a5,a5,48
80002d20:	00e6c733 	xor	a4,a3,a4
80002d24:	00e7a223 	sw	a4,4(a5)
80002d28:	fec42783 	lw	a5,-20(s0)
80002d2c:	0087a703 	lw	a4,8(a5)
80002d30:	00004797 	auipc	a5,0x4
80002d34:	ef878793 	addi	a5,a5,-264 # 80006c28 <col.1105>
80002d38:	00e7a023 	sw	a4,0(a5)
80002d3c:	fec42783 	lw	a5,-20(s0)
80002d40:	01078793 	addi	a5,a5,16
80002d44:	0087a703 	lw	a4,8(a5)
80002d48:	00004797 	auipc	a5,0x4
80002d4c:	ee078793 	addi	a5,a5,-288 # 80006c28 <col.1105>
80002d50:	00e7a223 	sw	a4,4(a5)
80002d54:	fec42783 	lw	a5,-20(s0)
80002d58:	02078793 	addi	a5,a5,32
80002d5c:	0087a703 	lw	a4,8(a5)
80002d60:	00004797 	auipc	a5,0x4
80002d64:	ec878793 	addi	a5,a5,-312 # 80006c28 <col.1105>
80002d68:	00e7a423 	sw	a4,8(a5)
80002d6c:	fec42783 	lw	a5,-20(s0)
80002d70:	03078793 	addi	a5,a5,48
80002d74:	0087a703 	lw	a4,8(a5)
80002d78:	00004797 	auipc	a5,0x4
80002d7c:	eb078793 	addi	a5,a5,-336 # 80006c28 <col.1105>
80002d80:	00e7a623 	sw	a4,12(a5)
80002d84:	00004797 	auipc	a5,0x4
80002d88:	ea478793 	addi	a5,a5,-348 # 80006c28 <col.1105>
80002d8c:	0007a703 	lw	a4,0(a5)
80002d90:	00002697 	auipc	a3,0x2
80002d94:	32c68693 	addi	a3,a3,812 # 800050bc <gf_mul>
80002d98:	00070793 	mv	a5,a4
80002d9c:	00179793 	slli	a5,a5,0x1
80002da0:	00e787b3 	add	a5,a5,a4
80002da4:	00379793 	slli	a5,a5,0x3
80002da8:	00f687b3 	add	a5,a3,a5
80002dac:	0147a703 	lw	a4,20(a5)
80002db0:	fec42783 	lw	a5,-20(s0)
80002db4:	00e7a423 	sw	a4,8(a5)
80002db8:	00004797 	auipc	a5,0x4
80002dbc:	e7078793 	addi	a5,a5,-400 # 80006c28 <col.1105>
80002dc0:	0047a703 	lw	a4,4(a5)
80002dc4:	00002697 	auipc	a3,0x2
80002dc8:	2f868693 	addi	a3,a3,760 # 800050bc <gf_mul>
80002dcc:	00070793 	mv	a5,a4
80002dd0:	00179793 	slli	a5,a5,0x1
80002dd4:	00e787b3 	add	a5,a5,a4
80002dd8:	00379793 	slli	a5,a5,0x3
80002ddc:	00f687b3 	add	a5,a3,a5
80002de0:	00c7a703 	lw	a4,12(a5)
80002de4:	fec42783 	lw	a5,-20(s0)
80002de8:	0087a783 	lw	a5,8(a5)
80002dec:	00f74733 	xor	a4,a4,a5
80002df0:	fec42783 	lw	a5,-20(s0)
80002df4:	00e7a423 	sw	a4,8(a5)
80002df8:	00004797 	auipc	a5,0x4
80002dfc:	e3078793 	addi	a5,a5,-464 # 80006c28 <col.1105>
80002e00:	0087a703 	lw	a4,8(a5)
80002e04:	00002697 	auipc	a3,0x2
80002e08:	2b868693 	addi	a3,a3,696 # 800050bc <gf_mul>
80002e0c:	00070793 	mv	a5,a4
80002e10:	00179793 	slli	a5,a5,0x1
80002e14:	00e787b3 	add	a5,a5,a4
80002e18:	00379793 	slli	a5,a5,0x3
80002e1c:	00f687b3 	add	a5,a3,a5
80002e20:	0107a703 	lw	a4,16(a5)
80002e24:	fec42783 	lw	a5,-20(s0)
80002e28:	0087a783 	lw	a5,8(a5)
80002e2c:	00f74733 	xor	a4,a4,a5
80002e30:	fec42783 	lw	a5,-20(s0)
80002e34:	00e7a423 	sw	a4,8(a5)
80002e38:	00004797 	auipc	a5,0x4
80002e3c:	df078793 	addi	a5,a5,-528 # 80006c28 <col.1105>
80002e40:	00c7a703 	lw	a4,12(a5)
80002e44:	00002697 	auipc	a3,0x2
80002e48:	27868693 	addi	a3,a3,632 # 800050bc <gf_mul>
80002e4c:	00070793 	mv	a5,a4
80002e50:	00179793 	slli	a5,a5,0x1
80002e54:	00e787b3 	add	a5,a5,a4
80002e58:	00379793 	slli	a5,a5,0x3
80002e5c:	00f687b3 	add	a5,a3,a5
80002e60:	0087a703 	lw	a4,8(a5)
80002e64:	fec42783 	lw	a5,-20(s0)
80002e68:	0087a783 	lw	a5,8(a5)
80002e6c:	00f74733 	xor	a4,a4,a5
80002e70:	fec42783 	lw	a5,-20(s0)
80002e74:	00e7a423 	sw	a4,8(a5)
80002e78:	00004797 	auipc	a5,0x4
80002e7c:	db078793 	addi	a5,a5,-592 # 80006c28 <col.1105>
80002e80:	0007a703 	lw	a4,0(a5)
80002e84:	fec42783 	lw	a5,-20(s0)
80002e88:	01078693 	addi	a3,a5,16
80002e8c:	00002617 	auipc	a2,0x2
80002e90:	23060613 	addi	a2,a2,560 # 800050bc <gf_mul>
80002e94:	00070793 	mv	a5,a4
80002e98:	00179793 	slli	a5,a5,0x1
80002e9c:	00e787b3 	add	a5,a5,a4
80002ea0:	00379793 	slli	a5,a5,0x3
80002ea4:	00f607b3 	add	a5,a2,a5
80002ea8:	0087a783 	lw	a5,8(a5)
80002eac:	00f6a423 	sw	a5,8(a3)
80002eb0:	00004797 	auipc	a5,0x4
80002eb4:	d7878793 	addi	a5,a5,-648 # 80006c28 <col.1105>
80002eb8:	0047a703 	lw	a4,4(a5)
80002ebc:	00002697 	auipc	a3,0x2
80002ec0:	20068693 	addi	a3,a3,512 # 800050bc <gf_mul>
80002ec4:	00070793 	mv	a5,a4
80002ec8:	00179793 	slli	a5,a5,0x1
80002ecc:	00e787b3 	add	a5,a5,a4
80002ed0:	00379793 	slli	a5,a5,0x3
80002ed4:	00f687b3 	add	a5,a3,a5
80002ed8:	0147a683 	lw	a3,20(a5)
80002edc:	fec42783 	lw	a5,-20(s0)
80002ee0:	01078793 	addi	a5,a5,16
80002ee4:	0087a703 	lw	a4,8(a5)
80002ee8:	fec42783 	lw	a5,-20(s0)
80002eec:	01078793 	addi	a5,a5,16
80002ef0:	00e6c733 	xor	a4,a3,a4
80002ef4:	00e7a423 	sw	a4,8(a5)
80002ef8:	00004797 	auipc	a5,0x4
80002efc:	d3078793 	addi	a5,a5,-720 # 80006c28 <col.1105>
80002f00:	0087a703 	lw	a4,8(a5)
80002f04:	00002697 	auipc	a3,0x2
80002f08:	1b868693 	addi	a3,a3,440 # 800050bc <gf_mul>
80002f0c:	00070793 	mv	a5,a4
80002f10:	00179793 	slli	a5,a5,0x1
80002f14:	00e787b3 	add	a5,a5,a4
80002f18:	00379793 	slli	a5,a5,0x3
80002f1c:	00f687b3 	add	a5,a3,a5
80002f20:	00c7a683 	lw	a3,12(a5)
80002f24:	fec42783 	lw	a5,-20(s0)
80002f28:	01078793 	addi	a5,a5,16
80002f2c:	0087a703 	lw	a4,8(a5)
80002f30:	fec42783 	lw	a5,-20(s0)
80002f34:	01078793 	addi	a5,a5,16
80002f38:	00e6c733 	xor	a4,a3,a4
80002f3c:	00e7a423 	sw	a4,8(a5)
80002f40:	00004797 	auipc	a5,0x4
80002f44:	ce878793 	addi	a5,a5,-792 # 80006c28 <col.1105>
80002f48:	00c7a703 	lw	a4,12(a5)
80002f4c:	00002697 	auipc	a3,0x2
80002f50:	17068693 	addi	a3,a3,368 # 800050bc <gf_mul>
80002f54:	00070793 	mv	a5,a4
80002f58:	00179793 	slli	a5,a5,0x1
80002f5c:	00e787b3 	add	a5,a5,a4
80002f60:	00379793 	slli	a5,a5,0x3
80002f64:	00f687b3 	add	a5,a3,a5
80002f68:	0107a683 	lw	a3,16(a5)
80002f6c:	fec42783 	lw	a5,-20(s0)
80002f70:	01078793 	addi	a5,a5,16
80002f74:	0087a703 	lw	a4,8(a5)
80002f78:	fec42783 	lw	a5,-20(s0)
80002f7c:	01078793 	addi	a5,a5,16
80002f80:	00e6c733 	xor	a4,a3,a4
80002f84:	00e7a423 	sw	a4,8(a5)
80002f88:	00004797 	auipc	a5,0x4
80002f8c:	ca078793 	addi	a5,a5,-864 # 80006c28 <col.1105>
80002f90:	0007a703 	lw	a4,0(a5)
80002f94:	fec42783 	lw	a5,-20(s0)
80002f98:	02078693 	addi	a3,a5,32
80002f9c:	00002617 	auipc	a2,0x2
80002fa0:	12060613 	addi	a2,a2,288 # 800050bc <gf_mul>
80002fa4:	00070793 	mv	a5,a4
80002fa8:	00179793 	slli	a5,a5,0x1
80002fac:	00e787b3 	add	a5,a5,a4
80002fb0:	00379793 	slli	a5,a5,0x3
80002fb4:	00f607b3 	add	a5,a2,a5
80002fb8:	0107a783 	lw	a5,16(a5)
80002fbc:	00f6a423 	sw	a5,8(a3)
80002fc0:	00004797 	auipc	a5,0x4
80002fc4:	c6878793 	addi	a5,a5,-920 # 80006c28 <col.1105>
80002fc8:	0047a703 	lw	a4,4(a5)
80002fcc:	00002697 	auipc	a3,0x2
80002fd0:	0f068693 	addi	a3,a3,240 # 800050bc <gf_mul>
80002fd4:	00070793 	mv	a5,a4
80002fd8:	00179793 	slli	a5,a5,0x1
80002fdc:	00e787b3 	add	a5,a5,a4
80002fe0:	00379793 	slli	a5,a5,0x3
80002fe4:	00f687b3 	add	a5,a3,a5
80002fe8:	0087a683 	lw	a3,8(a5)
80002fec:	fec42783 	lw	a5,-20(s0)
80002ff0:	02078793 	addi	a5,a5,32
80002ff4:	0087a703 	lw	a4,8(a5)
80002ff8:	fec42783 	lw	a5,-20(s0)
80002ffc:	02078793 	addi	a5,a5,32
80003000:	00e6c733 	xor	a4,a3,a4
80003004:	00e7a423 	sw	a4,8(a5)
80003008:	00004797 	auipc	a5,0x4
8000300c:	c2078793 	addi	a5,a5,-992 # 80006c28 <col.1105>
80003010:	0087a703 	lw	a4,8(a5)
80003014:	00002697 	auipc	a3,0x2
80003018:	0a868693 	addi	a3,a3,168 # 800050bc <gf_mul>
8000301c:	00070793 	mv	a5,a4
80003020:	00179793 	slli	a5,a5,0x1
80003024:	00e787b3 	add	a5,a5,a4
80003028:	00379793 	slli	a5,a5,0x3
8000302c:	00f687b3 	add	a5,a3,a5
80003030:	0147a683 	lw	a3,20(a5)
80003034:	fec42783 	lw	a5,-20(s0)
80003038:	02078793 	addi	a5,a5,32
8000303c:	0087a703 	lw	a4,8(a5)
80003040:	fec42783 	lw	a5,-20(s0)
80003044:	02078793 	addi	a5,a5,32
80003048:	00e6c733 	xor	a4,a3,a4
8000304c:	00e7a423 	sw	a4,8(a5)
80003050:	00004797 	auipc	a5,0x4
80003054:	bd878793 	addi	a5,a5,-1064 # 80006c28 <col.1105>
80003058:	00c7a703 	lw	a4,12(a5)
8000305c:	00002697 	auipc	a3,0x2
80003060:	06068693 	addi	a3,a3,96 # 800050bc <gf_mul>
80003064:	00070793 	mv	a5,a4
80003068:	00179793 	slli	a5,a5,0x1
8000306c:	00e787b3 	add	a5,a5,a4
80003070:	00379793 	slli	a5,a5,0x3
80003074:	00f687b3 	add	a5,a3,a5
80003078:	00c7a683 	lw	a3,12(a5)
8000307c:	fec42783 	lw	a5,-20(s0)
80003080:	02078793 	addi	a5,a5,32
80003084:	0087a703 	lw	a4,8(a5)
80003088:	fec42783 	lw	a5,-20(s0)
8000308c:	02078793 	addi	a5,a5,32
80003090:	00e6c733 	xor	a4,a3,a4
80003094:	00e7a423 	sw	a4,8(a5)
80003098:	00004797 	auipc	a5,0x4
8000309c:	b9078793 	addi	a5,a5,-1136 # 80006c28 <col.1105>
800030a0:	0007a703 	lw	a4,0(a5)
800030a4:	fec42783 	lw	a5,-20(s0)
800030a8:	03078693 	addi	a3,a5,48
800030ac:	00002617 	auipc	a2,0x2
800030b0:	01060613 	addi	a2,a2,16 # 800050bc <gf_mul>
800030b4:	00070793 	mv	a5,a4
800030b8:	00179793 	slli	a5,a5,0x1
800030bc:	00e787b3 	add	a5,a5,a4
800030c0:	00379793 	slli	a5,a5,0x3
800030c4:	00f607b3 	add	a5,a2,a5
800030c8:	00c7a783 	lw	a5,12(a5)
800030cc:	00f6a423 	sw	a5,8(a3)
800030d0:	00004797 	auipc	a5,0x4
800030d4:	b5878793 	addi	a5,a5,-1192 # 80006c28 <col.1105>
800030d8:	0047a703 	lw	a4,4(a5)
800030dc:	00002697 	auipc	a3,0x2
800030e0:	fe068693 	addi	a3,a3,-32 # 800050bc <gf_mul>
800030e4:	00070793 	mv	a5,a4
800030e8:	00179793 	slli	a5,a5,0x1
800030ec:	00e787b3 	add	a5,a5,a4
800030f0:	00379793 	slli	a5,a5,0x3
800030f4:	00f687b3 	add	a5,a3,a5
800030f8:	0107a683 	lw	a3,16(a5)
800030fc:	fec42783 	lw	a5,-20(s0)
80003100:	03078793 	addi	a5,a5,48
80003104:	0087a703 	lw	a4,8(a5)
80003108:	fec42783 	lw	a5,-20(s0)
8000310c:	03078793 	addi	a5,a5,48
80003110:	00e6c733 	xor	a4,a3,a4
80003114:	00e7a423 	sw	a4,8(a5)
80003118:	00004797 	auipc	a5,0x4
8000311c:	b1078793 	addi	a5,a5,-1264 # 80006c28 <col.1105>
80003120:	0087a703 	lw	a4,8(a5)
80003124:	00002697 	auipc	a3,0x2
80003128:	f9868693 	addi	a3,a3,-104 # 800050bc <gf_mul>
8000312c:	00070793 	mv	a5,a4
80003130:	00179793 	slli	a5,a5,0x1
80003134:	00e787b3 	add	a5,a5,a4
80003138:	00379793 	slli	a5,a5,0x3
8000313c:	00f687b3 	add	a5,a3,a5
80003140:	0087a683 	lw	a3,8(a5)
80003144:	fec42783 	lw	a5,-20(s0)
80003148:	03078793 	addi	a5,a5,48
8000314c:	0087a703 	lw	a4,8(a5)
80003150:	fec42783 	lw	a5,-20(s0)
80003154:	03078793 	addi	a5,a5,48
80003158:	00e6c733 	xor	a4,a3,a4
8000315c:	00e7a423 	sw	a4,8(a5)
80003160:	00004797 	auipc	a5,0x4
80003164:	ac878793 	addi	a5,a5,-1336 # 80006c28 <col.1105>
80003168:	00c7a703 	lw	a4,12(a5)
8000316c:	00002697 	auipc	a3,0x2
80003170:	f5068693 	addi	a3,a3,-176 # 800050bc <gf_mul>
80003174:	00070793 	mv	a5,a4
80003178:	00179793 	slli	a5,a5,0x1
8000317c:	00e787b3 	add	a5,a5,a4
80003180:	00379793 	slli	a5,a5,0x3
80003184:	00f687b3 	add	a5,a3,a5
80003188:	0147a683 	lw	a3,20(a5)
8000318c:	fec42783 	lw	a5,-20(s0)
80003190:	03078793 	addi	a5,a5,48
80003194:	0087a703 	lw	a4,8(a5)
80003198:	fec42783 	lw	a5,-20(s0)
8000319c:	03078793 	addi	a5,a5,48
800031a0:	00e6c733 	xor	a4,a3,a4
800031a4:	00e7a423 	sw	a4,8(a5)
800031a8:	fec42783 	lw	a5,-20(s0)
800031ac:	00c7a703 	lw	a4,12(a5)
800031b0:	00004797 	auipc	a5,0x4
800031b4:	a7878793 	addi	a5,a5,-1416 # 80006c28 <col.1105>
800031b8:	00e7a023 	sw	a4,0(a5)
800031bc:	fec42783 	lw	a5,-20(s0)
800031c0:	01078793 	addi	a5,a5,16
800031c4:	00c7a703 	lw	a4,12(a5)
800031c8:	00004797 	auipc	a5,0x4
800031cc:	a6078793 	addi	a5,a5,-1440 # 80006c28 <col.1105>
800031d0:	00e7a223 	sw	a4,4(a5)
800031d4:	fec42783 	lw	a5,-20(s0)
800031d8:	02078793 	addi	a5,a5,32
800031dc:	00c7a703 	lw	a4,12(a5)
800031e0:	00004797 	auipc	a5,0x4
800031e4:	a4878793 	addi	a5,a5,-1464 # 80006c28 <col.1105>
800031e8:	00e7a423 	sw	a4,8(a5)
800031ec:	fec42783 	lw	a5,-20(s0)
800031f0:	03078793 	addi	a5,a5,48
800031f4:	00c7a703 	lw	a4,12(a5)
800031f8:	00004797 	auipc	a5,0x4
800031fc:	a3078793 	addi	a5,a5,-1488 # 80006c28 <col.1105>
80003200:	00e7a623 	sw	a4,12(a5)
80003204:	00004797 	auipc	a5,0x4
80003208:	a2478793 	addi	a5,a5,-1500 # 80006c28 <col.1105>
8000320c:	0007a703 	lw	a4,0(a5)
80003210:	00002697 	auipc	a3,0x2
80003214:	eac68693 	addi	a3,a3,-340 # 800050bc <gf_mul>
80003218:	00070793 	mv	a5,a4
8000321c:	00179793 	slli	a5,a5,0x1
80003220:	00e787b3 	add	a5,a5,a4
80003224:	00379793 	slli	a5,a5,0x3
80003228:	00f687b3 	add	a5,a3,a5
8000322c:	0147a703 	lw	a4,20(a5)
80003230:	fec42783 	lw	a5,-20(s0)
80003234:	00e7a623 	sw	a4,12(a5)
80003238:	00004797 	auipc	a5,0x4
8000323c:	9f078793 	addi	a5,a5,-1552 # 80006c28 <col.1105>
80003240:	0047a703 	lw	a4,4(a5)
80003244:	00002697 	auipc	a3,0x2
80003248:	e7868693 	addi	a3,a3,-392 # 800050bc <gf_mul>
8000324c:	00070793 	mv	a5,a4
80003250:	00179793 	slli	a5,a5,0x1
80003254:	00e787b3 	add	a5,a5,a4
80003258:	00379793 	slli	a5,a5,0x3
8000325c:	00f687b3 	add	a5,a3,a5
80003260:	00c7a703 	lw	a4,12(a5)
80003264:	fec42783 	lw	a5,-20(s0)
80003268:	00c7a783 	lw	a5,12(a5)
8000326c:	00f74733 	xor	a4,a4,a5
80003270:	fec42783 	lw	a5,-20(s0)
80003274:	00e7a623 	sw	a4,12(a5)
80003278:	00004797 	auipc	a5,0x4
8000327c:	9b078793 	addi	a5,a5,-1616 # 80006c28 <col.1105>
80003280:	0087a703 	lw	a4,8(a5)
80003284:	00002697 	auipc	a3,0x2
80003288:	e3868693 	addi	a3,a3,-456 # 800050bc <gf_mul>
8000328c:	00070793 	mv	a5,a4
80003290:	00179793 	slli	a5,a5,0x1
80003294:	00e787b3 	add	a5,a5,a4
80003298:	00379793 	slli	a5,a5,0x3
8000329c:	00f687b3 	add	a5,a3,a5
800032a0:	0107a703 	lw	a4,16(a5)
800032a4:	fec42783 	lw	a5,-20(s0)
800032a8:	00c7a783 	lw	a5,12(a5)
800032ac:	00f74733 	xor	a4,a4,a5
800032b0:	fec42783 	lw	a5,-20(s0)
800032b4:	00e7a623 	sw	a4,12(a5)
800032b8:	00004797 	auipc	a5,0x4
800032bc:	97078793 	addi	a5,a5,-1680 # 80006c28 <col.1105>
800032c0:	00c7a703 	lw	a4,12(a5)
800032c4:	00002697 	auipc	a3,0x2
800032c8:	df868693 	addi	a3,a3,-520 # 800050bc <gf_mul>
800032cc:	00070793 	mv	a5,a4
800032d0:	00179793 	slli	a5,a5,0x1
800032d4:	00e787b3 	add	a5,a5,a4
800032d8:	00379793 	slli	a5,a5,0x3
800032dc:	00f687b3 	add	a5,a3,a5
800032e0:	0087a703 	lw	a4,8(a5)
800032e4:	fec42783 	lw	a5,-20(s0)
800032e8:	00c7a783 	lw	a5,12(a5)
800032ec:	00f74733 	xor	a4,a4,a5
800032f0:	fec42783 	lw	a5,-20(s0)
800032f4:	00e7a623 	sw	a4,12(a5)
800032f8:	00004797 	auipc	a5,0x4
800032fc:	93078793 	addi	a5,a5,-1744 # 80006c28 <col.1105>
80003300:	0007a703 	lw	a4,0(a5)
80003304:	fec42783 	lw	a5,-20(s0)
80003308:	01078693 	addi	a3,a5,16
8000330c:	00002617 	auipc	a2,0x2
80003310:	db060613 	addi	a2,a2,-592 # 800050bc <gf_mul>
80003314:	00070793 	mv	a5,a4
80003318:	00179793 	slli	a5,a5,0x1
8000331c:	00e787b3 	add	a5,a5,a4
80003320:	00379793 	slli	a5,a5,0x3
80003324:	00f607b3 	add	a5,a2,a5
80003328:	0087a783 	lw	a5,8(a5)
8000332c:	00f6a623 	sw	a5,12(a3)
80003330:	00004797 	auipc	a5,0x4
80003334:	8f878793 	addi	a5,a5,-1800 # 80006c28 <col.1105>
80003338:	0047a703 	lw	a4,4(a5)
8000333c:	00002697 	auipc	a3,0x2
80003340:	d8068693 	addi	a3,a3,-640 # 800050bc <gf_mul>
80003344:	00070793 	mv	a5,a4
80003348:	00179793 	slli	a5,a5,0x1
8000334c:	00e787b3 	add	a5,a5,a4
80003350:	00379793 	slli	a5,a5,0x3
80003354:	00f687b3 	add	a5,a3,a5
80003358:	0147a683 	lw	a3,20(a5)
8000335c:	fec42783 	lw	a5,-20(s0)
80003360:	01078793 	addi	a5,a5,16
80003364:	00c7a703 	lw	a4,12(a5)
80003368:	fec42783 	lw	a5,-20(s0)
8000336c:	01078793 	addi	a5,a5,16
80003370:	00e6c733 	xor	a4,a3,a4
80003374:	00e7a623 	sw	a4,12(a5)
80003378:	00004797 	auipc	a5,0x4
8000337c:	8b078793 	addi	a5,a5,-1872 # 80006c28 <col.1105>
80003380:	0087a703 	lw	a4,8(a5)
80003384:	00002697 	auipc	a3,0x2
80003388:	d3868693 	addi	a3,a3,-712 # 800050bc <gf_mul>
8000338c:	00070793 	mv	a5,a4
80003390:	00179793 	slli	a5,a5,0x1
80003394:	00e787b3 	add	a5,a5,a4
80003398:	00379793 	slli	a5,a5,0x3
8000339c:	00f687b3 	add	a5,a3,a5
800033a0:	00c7a683 	lw	a3,12(a5)
800033a4:	fec42783 	lw	a5,-20(s0)
800033a8:	01078793 	addi	a5,a5,16
800033ac:	00c7a703 	lw	a4,12(a5)
800033b0:	fec42783 	lw	a5,-20(s0)
800033b4:	01078793 	addi	a5,a5,16
800033b8:	00e6c733 	xor	a4,a3,a4
800033bc:	00e7a623 	sw	a4,12(a5)
800033c0:	00004797 	auipc	a5,0x4
800033c4:	86878793 	addi	a5,a5,-1944 # 80006c28 <col.1105>
800033c8:	00c7a703 	lw	a4,12(a5)
800033cc:	00002697 	auipc	a3,0x2
800033d0:	cf068693 	addi	a3,a3,-784 # 800050bc <gf_mul>
800033d4:	00070793 	mv	a5,a4
800033d8:	00179793 	slli	a5,a5,0x1
800033dc:	00e787b3 	add	a5,a5,a4
800033e0:	00379793 	slli	a5,a5,0x3
800033e4:	00f687b3 	add	a5,a3,a5
800033e8:	0107a683 	lw	a3,16(a5)
800033ec:	fec42783 	lw	a5,-20(s0)
800033f0:	01078793 	addi	a5,a5,16
800033f4:	00c7a703 	lw	a4,12(a5)
800033f8:	fec42783 	lw	a5,-20(s0)
800033fc:	01078793 	addi	a5,a5,16
80003400:	00e6c733 	xor	a4,a3,a4
80003404:	00e7a623 	sw	a4,12(a5)
80003408:	00004797 	auipc	a5,0x4
8000340c:	82078793 	addi	a5,a5,-2016 # 80006c28 <col.1105>
80003410:	0007a703 	lw	a4,0(a5)
80003414:	fec42783 	lw	a5,-20(s0)
80003418:	02078693 	addi	a3,a5,32
8000341c:	00002617 	auipc	a2,0x2
80003420:	ca060613 	addi	a2,a2,-864 # 800050bc <gf_mul>
80003424:	00070793 	mv	a5,a4
80003428:	00179793 	slli	a5,a5,0x1
8000342c:	00e787b3 	add	a5,a5,a4
80003430:	00379793 	slli	a5,a5,0x3
80003434:	00f607b3 	add	a5,a2,a5
80003438:	0107a783 	lw	a5,16(a5)
8000343c:	00f6a623 	sw	a5,12(a3)
80003440:	00003797 	auipc	a5,0x3
80003444:	7e878793 	addi	a5,a5,2024 # 80006c28 <col.1105>
80003448:	0047a703 	lw	a4,4(a5)
8000344c:	00002697 	auipc	a3,0x2
80003450:	c7068693 	addi	a3,a3,-912 # 800050bc <gf_mul>
80003454:	00070793 	mv	a5,a4
80003458:	00179793 	slli	a5,a5,0x1
8000345c:	00e787b3 	add	a5,a5,a4
80003460:	00379793 	slli	a5,a5,0x3
80003464:	00f687b3 	add	a5,a3,a5
80003468:	0087a683 	lw	a3,8(a5)
8000346c:	fec42783 	lw	a5,-20(s0)
80003470:	02078793 	addi	a5,a5,32
80003474:	00c7a703 	lw	a4,12(a5)
80003478:	fec42783 	lw	a5,-20(s0)
8000347c:	02078793 	addi	a5,a5,32
80003480:	00e6c733 	xor	a4,a3,a4
80003484:	00e7a623 	sw	a4,12(a5)
80003488:	00003797 	auipc	a5,0x3
8000348c:	7a078793 	addi	a5,a5,1952 # 80006c28 <col.1105>
80003490:	0087a703 	lw	a4,8(a5)
80003494:	00002697 	auipc	a3,0x2
80003498:	c2868693 	addi	a3,a3,-984 # 800050bc <gf_mul>
8000349c:	00070793 	mv	a5,a4
800034a0:	00179793 	slli	a5,a5,0x1
800034a4:	00e787b3 	add	a5,a5,a4
800034a8:	00379793 	slli	a5,a5,0x3
800034ac:	00f687b3 	add	a5,a3,a5
800034b0:	0147a683 	lw	a3,20(a5)
800034b4:	fec42783 	lw	a5,-20(s0)
800034b8:	02078793 	addi	a5,a5,32
800034bc:	00c7a703 	lw	a4,12(a5)
800034c0:	fec42783 	lw	a5,-20(s0)
800034c4:	02078793 	addi	a5,a5,32
800034c8:	00e6c733 	xor	a4,a3,a4
800034cc:	00e7a623 	sw	a4,12(a5)
800034d0:	00003797 	auipc	a5,0x3
800034d4:	75878793 	addi	a5,a5,1880 # 80006c28 <col.1105>
800034d8:	00c7a703 	lw	a4,12(a5)
800034dc:	00002697 	auipc	a3,0x2
800034e0:	be068693 	addi	a3,a3,-1056 # 800050bc <gf_mul>
800034e4:	00070793 	mv	a5,a4
800034e8:	00179793 	slli	a5,a5,0x1
800034ec:	00e787b3 	add	a5,a5,a4
800034f0:	00379793 	slli	a5,a5,0x3
800034f4:	00f687b3 	add	a5,a3,a5
800034f8:	00c7a683 	lw	a3,12(a5)
800034fc:	fec42783 	lw	a5,-20(s0)
80003500:	02078793 	addi	a5,a5,32
80003504:	00c7a703 	lw	a4,12(a5)
80003508:	fec42783 	lw	a5,-20(s0)
8000350c:	02078793 	addi	a5,a5,32
80003510:	00e6c733 	xor	a4,a3,a4
80003514:	00e7a623 	sw	a4,12(a5)
80003518:	00003797 	auipc	a5,0x3
8000351c:	71078793 	addi	a5,a5,1808 # 80006c28 <col.1105>
80003520:	0007a703 	lw	a4,0(a5)
80003524:	fec42783 	lw	a5,-20(s0)
80003528:	03078693 	addi	a3,a5,48
8000352c:	00002617 	auipc	a2,0x2
80003530:	b9060613 	addi	a2,a2,-1136 # 800050bc <gf_mul>
80003534:	00070793 	mv	a5,a4
80003538:	00179793 	slli	a5,a5,0x1
8000353c:	00e787b3 	add	a5,a5,a4
80003540:	00379793 	slli	a5,a5,0x3
80003544:	00f607b3 	add	a5,a2,a5
80003548:	00c7a783 	lw	a5,12(a5)
8000354c:	00f6a623 	sw	a5,12(a3)
80003550:	00003797 	auipc	a5,0x3
80003554:	6d878793 	addi	a5,a5,1752 # 80006c28 <col.1105>
80003558:	0047a703 	lw	a4,4(a5)
8000355c:	00002697 	auipc	a3,0x2
80003560:	b6068693 	addi	a3,a3,-1184 # 800050bc <gf_mul>
80003564:	00070793 	mv	a5,a4
80003568:	00179793 	slli	a5,a5,0x1
8000356c:	00e787b3 	add	a5,a5,a4
80003570:	00379793 	slli	a5,a5,0x3
80003574:	00f687b3 	add	a5,a3,a5
80003578:	0107a683 	lw	a3,16(a5)
8000357c:	fec42783 	lw	a5,-20(s0)
80003580:	03078793 	addi	a5,a5,48
80003584:	00c7a703 	lw	a4,12(a5)
80003588:	fec42783 	lw	a5,-20(s0)
8000358c:	03078793 	addi	a5,a5,48
80003590:	00e6c733 	xor	a4,a3,a4
80003594:	00e7a623 	sw	a4,12(a5)
80003598:	00003797 	auipc	a5,0x3
8000359c:	69078793 	addi	a5,a5,1680 # 80006c28 <col.1105>
800035a0:	0087a703 	lw	a4,8(a5)
800035a4:	00002697 	auipc	a3,0x2
800035a8:	b1868693 	addi	a3,a3,-1256 # 800050bc <gf_mul>
800035ac:	00070793 	mv	a5,a4
800035b0:	00179793 	slli	a5,a5,0x1
800035b4:	00e787b3 	add	a5,a5,a4
800035b8:	00379793 	slli	a5,a5,0x3
800035bc:	00f687b3 	add	a5,a3,a5
800035c0:	0087a683 	lw	a3,8(a5)
800035c4:	fec42783 	lw	a5,-20(s0)
800035c8:	03078793 	addi	a5,a5,48
800035cc:	00c7a703 	lw	a4,12(a5)
800035d0:	fec42783 	lw	a5,-20(s0)
800035d4:	03078793 	addi	a5,a5,48
800035d8:	00e6c733 	xor	a4,a3,a4
800035dc:	00e7a623 	sw	a4,12(a5)
800035e0:	00003797 	auipc	a5,0x3
800035e4:	64878793 	addi	a5,a5,1608 # 80006c28 <col.1105>
800035e8:	00c7a703 	lw	a4,12(a5)
800035ec:	00002697 	auipc	a3,0x2
800035f0:	ad068693 	addi	a3,a3,-1328 # 800050bc <gf_mul>
800035f4:	00070793 	mv	a5,a4
800035f8:	00179793 	slli	a5,a5,0x1
800035fc:	00e787b3 	add	a5,a5,a4
80003600:	00379793 	slli	a5,a5,0x3
80003604:	00f687b3 	add	a5,a3,a5
80003608:	0147a683 	lw	a3,20(a5)
8000360c:	fec42783 	lw	a5,-20(s0)
80003610:	03078793 	addi	a5,a5,48
80003614:	00c7a703 	lw	a4,12(a5)
80003618:	fec42783 	lw	a5,-20(s0)
8000361c:	03078793 	addi	a5,a5,48
80003620:	00e6c733 	xor	a4,a3,a4
80003624:	00e7a623 	sw	a4,12(a5)
80003628:	00000013 	nop
8000362c:	01c12403 	lw	s0,28(sp)
80003630:	02010113 	addi	sp,sp,32
80003634:	00008067 	ret

80003638 <aes_encrypt>:
80003638:	fe010113 	addi	sp,sp,-32
8000363c:	00112e23 	sw	ra,28(sp)
80003640:	00812c23 	sw	s0,24(sp)
80003644:	02010413 	addi	s0,sp,32
80003648:	fea42623 	sw	a0,-20(s0)
8000364c:	feb42423 	sw	a1,-24(s0)
80003650:	fec42223 	sw	a2,-28(s0)
80003654:	fed42023 	sw	a3,-32(s0)
80003658:	fec42783 	lw	a5,-20(s0)
8000365c:	0007a703 	lw	a4,0(a5)
80003660:	00003797 	auipc	a5,0x3
80003664:	5d878793 	addi	a5,a5,1496 # 80006c38 <state.1112>
80003668:	00e7a023 	sw	a4,0(a5)
8000366c:	fec42783 	lw	a5,-20(s0)
80003670:	0047a703 	lw	a4,4(a5)
80003674:	00003797 	auipc	a5,0x3
80003678:	5c478793 	addi	a5,a5,1476 # 80006c38 <state.1112>
8000367c:	00e7a823 	sw	a4,16(a5)
80003680:	fec42783 	lw	a5,-20(s0)
80003684:	0087a703 	lw	a4,8(a5)
80003688:	00003797 	auipc	a5,0x3
8000368c:	5b078793 	addi	a5,a5,1456 # 80006c38 <state.1112>
80003690:	02e7a023 	sw	a4,32(a5)
80003694:	fec42783 	lw	a5,-20(s0)
80003698:	00c7a703 	lw	a4,12(a5)
8000369c:	00003797 	auipc	a5,0x3
800036a0:	59c78793 	addi	a5,a5,1436 # 80006c38 <state.1112>
800036a4:	02e7a823 	sw	a4,48(a5)
800036a8:	fec42783 	lw	a5,-20(s0)
800036ac:	0107a703 	lw	a4,16(a5)
800036b0:	00003797 	auipc	a5,0x3
800036b4:	58878793 	addi	a5,a5,1416 # 80006c38 <state.1112>
800036b8:	00e7a223 	sw	a4,4(a5)
800036bc:	fec42783 	lw	a5,-20(s0)
800036c0:	0147a703 	lw	a4,20(a5)
800036c4:	00003797 	auipc	a5,0x3
800036c8:	57478793 	addi	a5,a5,1396 # 80006c38 <state.1112>
800036cc:	00e7aa23 	sw	a4,20(a5)
800036d0:	fec42783 	lw	a5,-20(s0)
800036d4:	0187a703 	lw	a4,24(a5)
800036d8:	00003797 	auipc	a5,0x3
800036dc:	56078793 	addi	a5,a5,1376 # 80006c38 <state.1112>
800036e0:	02e7a223 	sw	a4,36(a5)
800036e4:	fec42783 	lw	a5,-20(s0)
800036e8:	01c7a703 	lw	a4,28(a5)
800036ec:	00003797 	auipc	a5,0x3
800036f0:	54c78793 	addi	a5,a5,1356 # 80006c38 <state.1112>
800036f4:	02e7aa23 	sw	a4,52(a5)
800036f8:	fec42783 	lw	a5,-20(s0)
800036fc:	0207a703 	lw	a4,32(a5)
80003700:	00003797 	auipc	a5,0x3
80003704:	53878793 	addi	a5,a5,1336 # 80006c38 <state.1112>
80003708:	00e7a423 	sw	a4,8(a5)
8000370c:	fec42783 	lw	a5,-20(s0)
80003710:	0247a703 	lw	a4,36(a5)
80003714:	00003797 	auipc	a5,0x3
80003718:	52478793 	addi	a5,a5,1316 # 80006c38 <state.1112>
8000371c:	00e7ac23 	sw	a4,24(a5)
80003720:	fec42783 	lw	a5,-20(s0)
80003724:	0287a703 	lw	a4,40(a5)
80003728:	00003797 	auipc	a5,0x3
8000372c:	51078793 	addi	a5,a5,1296 # 80006c38 <state.1112>
80003730:	02e7a423 	sw	a4,40(a5)
80003734:	fec42783 	lw	a5,-20(s0)
80003738:	02c7a703 	lw	a4,44(a5)
8000373c:	00003797 	auipc	a5,0x3
80003740:	4fc78793 	addi	a5,a5,1276 # 80006c38 <state.1112>
80003744:	02e7ac23 	sw	a4,56(a5)
80003748:	fec42783 	lw	a5,-20(s0)
8000374c:	0307a703 	lw	a4,48(a5)
80003750:	00003797 	auipc	a5,0x3
80003754:	4e878793 	addi	a5,a5,1256 # 80006c38 <state.1112>
80003758:	00e7a623 	sw	a4,12(a5)
8000375c:	fec42783 	lw	a5,-20(s0)
80003760:	0347a703 	lw	a4,52(a5)
80003764:	00003797 	auipc	a5,0x3
80003768:	4d478793 	addi	a5,a5,1236 # 80006c38 <state.1112>
8000376c:	00e7ae23 	sw	a4,28(a5)
80003770:	fec42783 	lw	a5,-20(s0)
80003774:	0387a703 	lw	a4,56(a5)
80003778:	00003797 	auipc	a5,0x3
8000377c:	4c078793 	addi	a5,a5,1216 # 80006c38 <state.1112>
80003780:	02e7a623 	sw	a4,44(a5)
80003784:	fec42783 	lw	a5,-20(s0)
80003788:	03c7a703 	lw	a4,60(a5)
8000378c:	00003797 	auipc	a5,0x3
80003790:	4ac78793 	addi	a5,a5,1196 # 80006c38 <state.1112>
80003794:	02e7ae23 	sw	a4,60(a5)
80003798:	fe442583 	lw	a1,-28(s0)
8000379c:	00003517 	auipc	a0,0x3
800037a0:	49c50513 	addi	a0,a0,1180 # 80006c38 <state.1112>
800037a4:	f61fc0ef 	jal	ra,80000704 <AddRoundKey>
800037a8:	00001797 	auipc	a5,0x1
800037ac:	0e078793 	addi	a5,a5,224 # 80004888 <round0_print>
800037b0:	00078513 	mv	a0,a5
800037b4:	991fc0ef 	jal	ra,80000144 <sys_Prints>
800037b8:	00003517 	auipc	a0,0x3
800037bc:	48050513 	addi	a0,a0,1152 # 80006c38 <state.1112>
800037c0:	a98fd0ef 	jal	ra,80000a58 <SubBytes>
800037c4:	00003517 	auipc	a0,0x3
800037c8:	47450513 	addi	a0,a0,1140 # 80006c38 <state.1112>
800037cc:	b6dfd0ef 	jal	ra,80001338 <ShiftRows>
800037d0:	00003517 	auipc	a0,0x3
800037d4:	46850513 	addi	a0,a0,1128 # 80006c38 <state.1112>
800037d8:	e21fd0ef 	jal	ra,800015f8 <MixColumns>
800037dc:	fe442783 	lw	a5,-28(s0)
800037e0:	01078793 	addi	a5,a5,16
800037e4:	00078593 	mv	a1,a5
800037e8:	00003517 	auipc	a0,0x3
800037ec:	45050513 	addi	a0,a0,1104 # 80006c38 <state.1112>
800037f0:	f15fc0ef 	jal	ra,80000704 <AddRoundKey>
800037f4:	00003517 	auipc	a0,0x3
800037f8:	44450513 	addi	a0,a0,1092 # 80006c38 <state.1112>
800037fc:	a5cfd0ef 	jal	ra,80000a58 <SubBytes>
80003800:	00003517 	auipc	a0,0x3
80003804:	43850513 	addi	a0,a0,1080 # 80006c38 <state.1112>
80003808:	b31fd0ef 	jal	ra,80001338 <ShiftRows>
8000380c:	00003517 	auipc	a0,0x3
80003810:	42c50513 	addi	a0,a0,1068 # 80006c38 <state.1112>
80003814:	de5fd0ef 	jal	ra,800015f8 <MixColumns>
80003818:	fe442783 	lw	a5,-28(s0)
8000381c:	02078793 	addi	a5,a5,32
80003820:	00078593 	mv	a1,a5
80003824:	00003517 	auipc	a0,0x3
80003828:	41450513 	addi	a0,a0,1044 # 80006c38 <state.1112>
8000382c:	ed9fc0ef 	jal	ra,80000704 <AddRoundKey>
80003830:	00003517 	auipc	a0,0x3
80003834:	40850513 	addi	a0,a0,1032 # 80006c38 <state.1112>
80003838:	a20fd0ef 	jal	ra,80000a58 <SubBytes>
8000383c:	00003517 	auipc	a0,0x3
80003840:	3fc50513 	addi	a0,a0,1020 # 80006c38 <state.1112>
80003844:	af5fd0ef 	jal	ra,80001338 <ShiftRows>
80003848:	00003517 	auipc	a0,0x3
8000384c:	3f050513 	addi	a0,a0,1008 # 80006c38 <state.1112>
80003850:	da9fd0ef 	jal	ra,800015f8 <MixColumns>
80003854:	fe442783 	lw	a5,-28(s0)
80003858:	03078793 	addi	a5,a5,48
8000385c:	00078593 	mv	a1,a5
80003860:	00003517 	auipc	a0,0x3
80003864:	3d850513 	addi	a0,a0,984 # 80006c38 <state.1112>
80003868:	e9dfc0ef 	jal	ra,80000704 <AddRoundKey>
8000386c:	00003517 	auipc	a0,0x3
80003870:	3cc50513 	addi	a0,a0,972 # 80006c38 <state.1112>
80003874:	9e4fd0ef 	jal	ra,80000a58 <SubBytes>
80003878:	00003517 	auipc	a0,0x3
8000387c:	3c050513 	addi	a0,a0,960 # 80006c38 <state.1112>
80003880:	ab9fd0ef 	jal	ra,80001338 <ShiftRows>
80003884:	00003517 	auipc	a0,0x3
80003888:	3b450513 	addi	a0,a0,948 # 80006c38 <state.1112>
8000388c:	d6dfd0ef 	jal	ra,800015f8 <MixColumns>
80003890:	fe442783 	lw	a5,-28(s0)
80003894:	04078793 	addi	a5,a5,64
80003898:	00078593 	mv	a1,a5
8000389c:	00003517 	auipc	a0,0x3
800038a0:	39c50513 	addi	a0,a0,924 # 80006c38 <state.1112>
800038a4:	e61fc0ef 	jal	ra,80000704 <AddRoundKey>
800038a8:	00003517 	auipc	a0,0x3
800038ac:	39050513 	addi	a0,a0,912 # 80006c38 <state.1112>
800038b0:	9a8fd0ef 	jal	ra,80000a58 <SubBytes>
800038b4:	00003517 	auipc	a0,0x3
800038b8:	38450513 	addi	a0,a0,900 # 80006c38 <state.1112>
800038bc:	a7dfd0ef 	jal	ra,80001338 <ShiftRows>
800038c0:	00003517 	auipc	a0,0x3
800038c4:	37850513 	addi	a0,a0,888 # 80006c38 <state.1112>
800038c8:	d31fd0ef 	jal	ra,800015f8 <MixColumns>
800038cc:	fe442783 	lw	a5,-28(s0)
800038d0:	05078793 	addi	a5,a5,80
800038d4:	00078593 	mv	a1,a5
800038d8:	00003517 	auipc	a0,0x3
800038dc:	36050513 	addi	a0,a0,864 # 80006c38 <state.1112>
800038e0:	e25fc0ef 	jal	ra,80000704 <AddRoundKey>
800038e4:	00003517 	auipc	a0,0x3
800038e8:	35450513 	addi	a0,a0,852 # 80006c38 <state.1112>
800038ec:	96cfd0ef 	jal	ra,80000a58 <SubBytes>
800038f0:	00003517 	auipc	a0,0x3
800038f4:	34850513 	addi	a0,a0,840 # 80006c38 <state.1112>
800038f8:	a41fd0ef 	jal	ra,80001338 <ShiftRows>
800038fc:	00003517 	auipc	a0,0x3
80003900:	33c50513 	addi	a0,a0,828 # 80006c38 <state.1112>
80003904:	cf5fd0ef 	jal	ra,800015f8 <MixColumns>
80003908:	fe442783 	lw	a5,-28(s0)
8000390c:	06078793 	addi	a5,a5,96
80003910:	00078593 	mv	a1,a5
80003914:	00003517 	auipc	a0,0x3
80003918:	32450513 	addi	a0,a0,804 # 80006c38 <state.1112>
8000391c:	de9fc0ef 	jal	ra,80000704 <AddRoundKey>
80003920:	00003517 	auipc	a0,0x3
80003924:	31850513 	addi	a0,a0,792 # 80006c38 <state.1112>
80003928:	930fd0ef 	jal	ra,80000a58 <SubBytes>
8000392c:	00003517 	auipc	a0,0x3
80003930:	30c50513 	addi	a0,a0,780 # 80006c38 <state.1112>
80003934:	a05fd0ef 	jal	ra,80001338 <ShiftRows>
80003938:	00003517 	auipc	a0,0x3
8000393c:	30050513 	addi	a0,a0,768 # 80006c38 <state.1112>
80003940:	cb9fd0ef 	jal	ra,800015f8 <MixColumns>
80003944:	fe442783 	lw	a5,-28(s0)
80003948:	07078793 	addi	a5,a5,112
8000394c:	00078593 	mv	a1,a5
80003950:	00003517 	auipc	a0,0x3
80003954:	2e850513 	addi	a0,a0,744 # 80006c38 <state.1112>
80003958:	dadfc0ef 	jal	ra,80000704 <AddRoundKey>
8000395c:	00003517 	auipc	a0,0x3
80003960:	2dc50513 	addi	a0,a0,732 # 80006c38 <state.1112>
80003964:	8f4fd0ef 	jal	ra,80000a58 <SubBytes>
80003968:	00003517 	auipc	a0,0x3
8000396c:	2d050513 	addi	a0,a0,720 # 80006c38 <state.1112>
80003970:	9c9fd0ef 	jal	ra,80001338 <ShiftRows>
80003974:	00003517 	auipc	a0,0x3
80003978:	2c450513 	addi	a0,a0,708 # 80006c38 <state.1112>
8000397c:	c7dfd0ef 	jal	ra,800015f8 <MixColumns>
80003980:	fe442783 	lw	a5,-28(s0)
80003984:	08078793 	addi	a5,a5,128
80003988:	00078593 	mv	a1,a5
8000398c:	00003517 	auipc	a0,0x3
80003990:	2ac50513 	addi	a0,a0,684 # 80006c38 <state.1112>
80003994:	d71fc0ef 	jal	ra,80000704 <AddRoundKey>
80003998:	00003517 	auipc	a0,0x3
8000399c:	2a050513 	addi	a0,a0,672 # 80006c38 <state.1112>
800039a0:	8b8fd0ef 	jal	ra,80000a58 <SubBytes>
800039a4:	00003517 	auipc	a0,0x3
800039a8:	29450513 	addi	a0,a0,660 # 80006c38 <state.1112>
800039ac:	98dfd0ef 	jal	ra,80001338 <ShiftRows>
800039b0:	00003517 	auipc	a0,0x3
800039b4:	28850513 	addi	a0,a0,648 # 80006c38 <state.1112>
800039b8:	c41fd0ef 	jal	ra,800015f8 <MixColumns>
800039bc:	fe442783 	lw	a5,-28(s0)
800039c0:	09078793 	addi	a5,a5,144
800039c4:	00078593 	mv	a1,a5
800039c8:	00003517 	auipc	a0,0x3
800039cc:	27050513 	addi	a0,a0,624 # 80006c38 <state.1112>
800039d0:	d35fc0ef 	jal	ra,80000704 <AddRoundKey>
800039d4:	fe042703 	lw	a4,-32(s0)
800039d8:	08000793 	li	a5,128
800039dc:	16f70463 	beq	a4,a5,80003b44 <aes_encrypt+0x50c>
800039e0:	00003517 	auipc	a0,0x3
800039e4:	25850513 	addi	a0,a0,600 # 80006c38 <state.1112>
800039e8:	870fd0ef 	jal	ra,80000a58 <SubBytes>
800039ec:	00003517 	auipc	a0,0x3
800039f0:	24c50513 	addi	a0,a0,588 # 80006c38 <state.1112>
800039f4:	945fd0ef 	jal	ra,80001338 <ShiftRows>
800039f8:	00003517 	auipc	a0,0x3
800039fc:	24050513 	addi	a0,a0,576 # 80006c38 <state.1112>
80003a00:	bf9fd0ef 	jal	ra,800015f8 <MixColumns>
80003a04:	fe442783 	lw	a5,-28(s0)
80003a08:	0a078793 	addi	a5,a5,160
80003a0c:	00078593 	mv	a1,a5
80003a10:	00003517 	auipc	a0,0x3
80003a14:	22850513 	addi	a0,a0,552 # 80006c38 <state.1112>
80003a18:	cedfc0ef 	jal	ra,80000704 <AddRoundKey>
80003a1c:	00003517 	auipc	a0,0x3
80003a20:	21c50513 	addi	a0,a0,540 # 80006c38 <state.1112>
80003a24:	834fd0ef 	jal	ra,80000a58 <SubBytes>
80003a28:	00003517 	auipc	a0,0x3
80003a2c:	21050513 	addi	a0,a0,528 # 80006c38 <state.1112>
80003a30:	909fd0ef 	jal	ra,80001338 <ShiftRows>
80003a34:	00003517 	auipc	a0,0x3
80003a38:	20450513 	addi	a0,a0,516 # 80006c38 <state.1112>
80003a3c:	bbdfd0ef 	jal	ra,800015f8 <MixColumns>
80003a40:	fe442783 	lw	a5,-28(s0)
80003a44:	0b078793 	addi	a5,a5,176
80003a48:	00078593 	mv	a1,a5
80003a4c:	00003517 	auipc	a0,0x3
80003a50:	1ec50513 	addi	a0,a0,492 # 80006c38 <state.1112>
80003a54:	cb1fc0ef 	jal	ra,80000704 <AddRoundKey>
80003a58:	fe042703 	lw	a4,-32(s0)
80003a5c:	0c000793 	li	a5,192
80003a60:	0af70863 	beq	a4,a5,80003b10 <aes_encrypt+0x4d8>
80003a64:	00003517 	auipc	a0,0x3
80003a68:	1d450513 	addi	a0,a0,468 # 80006c38 <state.1112>
80003a6c:	fedfc0ef 	jal	ra,80000a58 <SubBytes>
80003a70:	00003517 	auipc	a0,0x3
80003a74:	1c850513 	addi	a0,a0,456 # 80006c38 <state.1112>
80003a78:	8c1fd0ef 	jal	ra,80001338 <ShiftRows>
80003a7c:	00003517 	auipc	a0,0x3
80003a80:	1bc50513 	addi	a0,a0,444 # 80006c38 <state.1112>
80003a84:	b75fd0ef 	jal	ra,800015f8 <MixColumns>
80003a88:	fe442783 	lw	a5,-28(s0)
80003a8c:	0c078793 	addi	a5,a5,192
80003a90:	00078593 	mv	a1,a5
80003a94:	00003517 	auipc	a0,0x3
80003a98:	1a450513 	addi	a0,a0,420 # 80006c38 <state.1112>
80003a9c:	c69fc0ef 	jal	ra,80000704 <AddRoundKey>
80003aa0:	00003517 	auipc	a0,0x3
80003aa4:	19850513 	addi	a0,a0,408 # 80006c38 <state.1112>
80003aa8:	fb1fc0ef 	jal	ra,80000a58 <SubBytes>
80003aac:	00003517 	auipc	a0,0x3
80003ab0:	18c50513 	addi	a0,a0,396 # 80006c38 <state.1112>
80003ab4:	885fd0ef 	jal	ra,80001338 <ShiftRows>
80003ab8:	00003517 	auipc	a0,0x3
80003abc:	18050513 	addi	a0,a0,384 # 80006c38 <state.1112>
80003ac0:	b39fd0ef 	jal	ra,800015f8 <MixColumns>
80003ac4:	fe442783 	lw	a5,-28(s0)
80003ac8:	0d078793 	addi	a5,a5,208
80003acc:	00078593 	mv	a1,a5
80003ad0:	00003517 	auipc	a0,0x3
80003ad4:	16850513 	addi	a0,a0,360 # 80006c38 <state.1112>
80003ad8:	c2dfc0ef 	jal	ra,80000704 <AddRoundKey>
80003adc:	00003517 	auipc	a0,0x3
80003ae0:	15c50513 	addi	a0,a0,348 # 80006c38 <state.1112>
80003ae4:	f75fc0ef 	jal	ra,80000a58 <SubBytes>
80003ae8:	00003517 	auipc	a0,0x3
80003aec:	15050513 	addi	a0,a0,336 # 80006c38 <state.1112>
80003af0:	849fd0ef 	jal	ra,80001338 <ShiftRows>
80003af4:	fe442783 	lw	a5,-28(s0)
80003af8:	0e078793 	addi	a5,a5,224
80003afc:	00078593 	mv	a1,a5
80003b00:	00003517 	auipc	a0,0x3
80003b04:	13850513 	addi	a0,a0,312 # 80006c38 <state.1112>
80003b08:	bfdfc0ef 	jal	ra,80000704 <AddRoundKey>
80003b0c:	0680006f 	j	80003b74 <aes_encrypt+0x53c>
80003b10:	00003517 	auipc	a0,0x3
80003b14:	12850513 	addi	a0,a0,296 # 80006c38 <state.1112>
80003b18:	f41fc0ef 	jal	ra,80000a58 <SubBytes>
80003b1c:	00003517 	auipc	a0,0x3
80003b20:	11c50513 	addi	a0,a0,284 # 80006c38 <state.1112>
80003b24:	815fd0ef 	jal	ra,80001338 <ShiftRows>
80003b28:	fe442783 	lw	a5,-28(s0)
80003b2c:	0c078793 	addi	a5,a5,192
80003b30:	00078593 	mv	a1,a5
80003b34:	00003517 	auipc	a0,0x3
80003b38:	10450513 	addi	a0,a0,260 # 80006c38 <state.1112>
80003b3c:	bc9fc0ef 	jal	ra,80000704 <AddRoundKey>
80003b40:	0340006f 	j	80003b74 <aes_encrypt+0x53c>
80003b44:	00003517 	auipc	a0,0x3
80003b48:	0f450513 	addi	a0,a0,244 # 80006c38 <state.1112>
80003b4c:	f0dfc0ef 	jal	ra,80000a58 <SubBytes>
80003b50:	00003517 	auipc	a0,0x3
80003b54:	0e850513 	addi	a0,a0,232 # 80006c38 <state.1112>
80003b58:	fe0fd0ef 	jal	ra,80001338 <ShiftRows>
80003b5c:	fe442783 	lw	a5,-28(s0)
80003b60:	0a078793 	addi	a5,a5,160
80003b64:	00078593 	mv	a1,a5
80003b68:	00003517 	auipc	a0,0x3
80003b6c:	0d050513 	addi	a0,a0,208 # 80006c38 <state.1112>
80003b70:	b95fc0ef 	jal	ra,80000704 <AddRoundKey>
80003b74:	00001797 	auipc	a5,0x1
80003b78:	d2878793 	addi	a5,a5,-728 # 8000489c <roundfinal_print>
80003b7c:	00078513 	mv	a0,a5
80003b80:	dc4fc0ef 	jal	ra,80000144 <sys_Prints>
80003b84:	00003797 	auipc	a5,0x3
80003b88:	0b478793 	addi	a5,a5,180 # 80006c38 <state.1112>
80003b8c:	0007a703 	lw	a4,0(a5)
80003b90:	fe842783 	lw	a5,-24(s0)
80003b94:	00e7a023 	sw	a4,0(a5)
80003b98:	fe842783 	lw	a5,-24(s0)
80003b9c:	00478793 	addi	a5,a5,4
80003ba0:	00003717 	auipc	a4,0x3
80003ba4:	09870713 	addi	a4,a4,152 # 80006c38 <state.1112>
80003ba8:	01072703 	lw	a4,16(a4)
80003bac:	00e7a023 	sw	a4,0(a5)
80003bb0:	fe842783 	lw	a5,-24(s0)
80003bb4:	00878793 	addi	a5,a5,8
80003bb8:	00003717 	auipc	a4,0x3
80003bbc:	08070713 	addi	a4,a4,128 # 80006c38 <state.1112>
80003bc0:	02072703 	lw	a4,32(a4)
80003bc4:	00e7a023 	sw	a4,0(a5)
80003bc8:	fe842783 	lw	a5,-24(s0)
80003bcc:	00c78793 	addi	a5,a5,12
80003bd0:	00003717 	auipc	a4,0x3
80003bd4:	06870713 	addi	a4,a4,104 # 80006c38 <state.1112>
80003bd8:	03072703 	lw	a4,48(a4)
80003bdc:	00e7a023 	sw	a4,0(a5)
80003be0:	fe842783 	lw	a5,-24(s0)
80003be4:	01078793 	addi	a5,a5,16
80003be8:	00003717 	auipc	a4,0x3
80003bec:	05070713 	addi	a4,a4,80 # 80006c38 <state.1112>
80003bf0:	00472703 	lw	a4,4(a4)
80003bf4:	00e7a023 	sw	a4,0(a5)
80003bf8:	fe842783 	lw	a5,-24(s0)
80003bfc:	01478793 	addi	a5,a5,20
80003c00:	00003717 	auipc	a4,0x3
80003c04:	03870713 	addi	a4,a4,56 # 80006c38 <state.1112>
80003c08:	01472703 	lw	a4,20(a4)
80003c0c:	00e7a023 	sw	a4,0(a5)
80003c10:	fe842783 	lw	a5,-24(s0)
80003c14:	01878793 	addi	a5,a5,24
80003c18:	00003717 	auipc	a4,0x3
80003c1c:	02070713 	addi	a4,a4,32 # 80006c38 <state.1112>
80003c20:	02472703 	lw	a4,36(a4)
80003c24:	00e7a023 	sw	a4,0(a5)
80003c28:	fe842783 	lw	a5,-24(s0)
80003c2c:	01c78793 	addi	a5,a5,28
80003c30:	00003717 	auipc	a4,0x3
80003c34:	00870713 	addi	a4,a4,8 # 80006c38 <state.1112>
80003c38:	03472703 	lw	a4,52(a4)
80003c3c:	00e7a023 	sw	a4,0(a5)
80003c40:	fe842783 	lw	a5,-24(s0)
80003c44:	02078793 	addi	a5,a5,32
80003c48:	00003717 	auipc	a4,0x3
80003c4c:	ff070713 	addi	a4,a4,-16 # 80006c38 <state.1112>
80003c50:	00872703 	lw	a4,8(a4)
80003c54:	00e7a023 	sw	a4,0(a5)
80003c58:	fe842783 	lw	a5,-24(s0)
80003c5c:	02478793 	addi	a5,a5,36
80003c60:	00003717 	auipc	a4,0x3
80003c64:	fd870713 	addi	a4,a4,-40 # 80006c38 <state.1112>
80003c68:	01872703 	lw	a4,24(a4)
80003c6c:	00e7a023 	sw	a4,0(a5)
80003c70:	fe842783 	lw	a5,-24(s0)
80003c74:	02878793 	addi	a5,a5,40
80003c78:	00003717 	auipc	a4,0x3
80003c7c:	fc070713 	addi	a4,a4,-64 # 80006c38 <state.1112>
80003c80:	02872703 	lw	a4,40(a4)
80003c84:	00e7a023 	sw	a4,0(a5)
80003c88:	fe842783 	lw	a5,-24(s0)
80003c8c:	02c78793 	addi	a5,a5,44
80003c90:	00003717 	auipc	a4,0x3
80003c94:	fa870713 	addi	a4,a4,-88 # 80006c38 <state.1112>
80003c98:	03872703 	lw	a4,56(a4)
80003c9c:	00e7a023 	sw	a4,0(a5)
80003ca0:	fe842783 	lw	a5,-24(s0)
80003ca4:	03078793 	addi	a5,a5,48
80003ca8:	00003717 	auipc	a4,0x3
80003cac:	f9070713 	addi	a4,a4,-112 # 80006c38 <state.1112>
80003cb0:	00c72703 	lw	a4,12(a4)
80003cb4:	00e7a023 	sw	a4,0(a5)
80003cb8:	fe842783 	lw	a5,-24(s0)
80003cbc:	03478793 	addi	a5,a5,52
80003cc0:	00003717 	auipc	a4,0x3
80003cc4:	f7870713 	addi	a4,a4,-136 # 80006c38 <state.1112>
80003cc8:	01c72703 	lw	a4,28(a4)
80003ccc:	00e7a023 	sw	a4,0(a5)
80003cd0:	fe842783 	lw	a5,-24(s0)
80003cd4:	03878793 	addi	a5,a5,56
80003cd8:	00003717 	auipc	a4,0x3
80003cdc:	f6070713 	addi	a4,a4,-160 # 80006c38 <state.1112>
80003ce0:	02c72703 	lw	a4,44(a4)
80003ce4:	00e7a023 	sw	a4,0(a5)
80003ce8:	fe842783 	lw	a5,-24(s0)
80003cec:	03c78793 	addi	a5,a5,60
80003cf0:	00003717 	auipc	a4,0x3
80003cf4:	f4870713 	addi	a4,a4,-184 # 80006c38 <state.1112>
80003cf8:	03c72703 	lw	a4,60(a4)
80003cfc:	00e7a023 	sw	a4,0(a5)
80003d00:	00000013 	nop
80003d04:	01c12083 	lw	ra,28(sp)
80003d08:	01812403 	lw	s0,24(sp)
80003d0c:	02010113 	addi	sp,sp,32
80003d10:	00008067 	ret

80003d14 <aes_decrypt>:
80003d14:	fe010113 	addi	sp,sp,-32
80003d18:	00112e23 	sw	ra,28(sp)
80003d1c:	00812c23 	sw	s0,24(sp)
80003d20:	02010413 	addi	s0,sp,32
80003d24:	fea42623 	sw	a0,-20(s0)
80003d28:	feb42423 	sw	a1,-24(s0)
80003d2c:	fec42223 	sw	a2,-28(s0)
80003d30:	fed42023 	sw	a3,-32(s0)
80003d34:	fec42783 	lw	a5,-20(s0)
80003d38:	0007a703 	lw	a4,0(a5)
80003d3c:	00003797 	auipc	a5,0x3
80003d40:	f3c78793 	addi	a5,a5,-196 # 80006c78 <state.1119>
80003d44:	00e7a023 	sw	a4,0(a5)
80003d48:	fec42783 	lw	a5,-20(s0)
80003d4c:	0047a703 	lw	a4,4(a5)
80003d50:	00003797 	auipc	a5,0x3
80003d54:	f2878793 	addi	a5,a5,-216 # 80006c78 <state.1119>
80003d58:	00e7a823 	sw	a4,16(a5)
80003d5c:	fec42783 	lw	a5,-20(s0)
80003d60:	0087a703 	lw	a4,8(a5)
80003d64:	00003797 	auipc	a5,0x3
80003d68:	f1478793 	addi	a5,a5,-236 # 80006c78 <state.1119>
80003d6c:	02e7a023 	sw	a4,32(a5)
80003d70:	fec42783 	lw	a5,-20(s0)
80003d74:	00c7a703 	lw	a4,12(a5)
80003d78:	00003797 	auipc	a5,0x3
80003d7c:	f0078793 	addi	a5,a5,-256 # 80006c78 <state.1119>
80003d80:	02e7a823 	sw	a4,48(a5)
80003d84:	fec42783 	lw	a5,-20(s0)
80003d88:	0107a703 	lw	a4,16(a5)
80003d8c:	00003797 	auipc	a5,0x3
80003d90:	eec78793 	addi	a5,a5,-276 # 80006c78 <state.1119>
80003d94:	00e7a223 	sw	a4,4(a5)
80003d98:	fec42783 	lw	a5,-20(s0)
80003d9c:	0147a703 	lw	a4,20(a5)
80003da0:	00003797 	auipc	a5,0x3
80003da4:	ed878793 	addi	a5,a5,-296 # 80006c78 <state.1119>
80003da8:	00e7aa23 	sw	a4,20(a5)
80003dac:	fec42783 	lw	a5,-20(s0)
80003db0:	0187a703 	lw	a4,24(a5)
80003db4:	00003797 	auipc	a5,0x3
80003db8:	ec478793 	addi	a5,a5,-316 # 80006c78 <state.1119>
80003dbc:	02e7a223 	sw	a4,36(a5)
80003dc0:	fec42783 	lw	a5,-20(s0)
80003dc4:	01c7a703 	lw	a4,28(a5)
80003dc8:	00003797 	auipc	a5,0x3
80003dcc:	eb078793 	addi	a5,a5,-336 # 80006c78 <state.1119>
80003dd0:	02e7aa23 	sw	a4,52(a5)
80003dd4:	fec42783 	lw	a5,-20(s0)
80003dd8:	0207a703 	lw	a4,32(a5)
80003ddc:	00003797 	auipc	a5,0x3
80003de0:	e9c78793 	addi	a5,a5,-356 # 80006c78 <state.1119>
80003de4:	00e7a423 	sw	a4,8(a5)
80003de8:	fec42783 	lw	a5,-20(s0)
80003dec:	0247a703 	lw	a4,36(a5)
80003df0:	00003797 	auipc	a5,0x3
80003df4:	e8878793 	addi	a5,a5,-376 # 80006c78 <state.1119>
80003df8:	00e7ac23 	sw	a4,24(a5)
80003dfc:	fec42783 	lw	a5,-20(s0)
80003e00:	0287a703 	lw	a4,40(a5)
80003e04:	00003797 	auipc	a5,0x3
80003e08:	e7478793 	addi	a5,a5,-396 # 80006c78 <state.1119>
80003e0c:	02e7a423 	sw	a4,40(a5)
80003e10:	fec42783 	lw	a5,-20(s0)
80003e14:	02c7a703 	lw	a4,44(a5)
80003e18:	00003797 	auipc	a5,0x3
80003e1c:	e6078793 	addi	a5,a5,-416 # 80006c78 <state.1119>
80003e20:	02e7ac23 	sw	a4,56(a5)
80003e24:	fec42783 	lw	a5,-20(s0)
80003e28:	0307a703 	lw	a4,48(a5)
80003e2c:	00003797 	auipc	a5,0x3
80003e30:	e4c78793 	addi	a5,a5,-436 # 80006c78 <state.1119>
80003e34:	00e7a623 	sw	a4,12(a5)
80003e38:	fec42783 	lw	a5,-20(s0)
80003e3c:	0347a703 	lw	a4,52(a5)
80003e40:	00003797 	auipc	a5,0x3
80003e44:	e3878793 	addi	a5,a5,-456 # 80006c78 <state.1119>
80003e48:	00e7ae23 	sw	a4,28(a5)
80003e4c:	fec42783 	lw	a5,-20(s0)
80003e50:	0387a703 	lw	a4,56(a5)
80003e54:	00003797 	auipc	a5,0x3
80003e58:	e2478793 	addi	a5,a5,-476 # 80006c78 <state.1119>
80003e5c:	02e7a623 	sw	a4,44(a5)
80003e60:	fec42783 	lw	a5,-20(s0)
80003e64:	03c7a703 	lw	a4,60(a5)
80003e68:	00003797 	auipc	a5,0x3
80003e6c:	e1078793 	addi	a5,a5,-496 # 80006c78 <state.1119>
80003e70:	02e7ae23 	sw	a4,60(a5)
80003e74:	fe042703 	lw	a4,-32(s0)
80003e78:	08000793 	li	a5,128
80003e7c:	14e7dc63 	ble	a4,a5,80003fd4 <aes_decrypt+0x2c0>
80003e80:	fe042703 	lw	a4,-32(s0)
80003e84:	0c000793 	li	a5,192
80003e88:	0ae7d463 	ble	a4,a5,80003f30 <aes_decrypt+0x21c>
80003e8c:	fe442783 	lw	a5,-28(s0)
80003e90:	0e078793 	addi	a5,a5,224
80003e94:	00078593 	mv	a1,a5
80003e98:	00003517 	auipc	a0,0x3
80003e9c:	de050513 	addi	a0,a0,-544 # 80006c78 <state.1119>
80003ea0:	865fc0ef 	jal	ra,80000704 <AddRoundKey>
80003ea4:	00001797 	auipc	a5,0x1
80003ea8:	9e478793 	addi	a5,a5,-1564 # 80004888 <round0_print>
80003eac:	00078513 	mv	a0,a5
80003eb0:	a94fc0ef 	jal	ra,80000144 <sys_Prints>
80003eb4:	00003517 	auipc	a0,0x3
80003eb8:	dc450513 	addi	a0,a0,-572 # 80006c78 <state.1119>
80003ebc:	ddcfd0ef 	jal	ra,80001498 <InvShiftRows>
80003ec0:	00003517 	auipc	a0,0x3
80003ec4:	db850513 	addi	a0,a0,-584 # 80006c78 <state.1119>
80003ec8:	800fd0ef 	jal	ra,80000ec8 <InvSubBytes>
80003ecc:	fe442783 	lw	a5,-28(s0)
80003ed0:	0d078793 	addi	a5,a5,208
80003ed4:	00078593 	mv	a1,a5
80003ed8:	00003517 	auipc	a0,0x3
80003edc:	da050513 	addi	a0,a0,-608 # 80006c78 <state.1119>
80003ee0:	825fc0ef 	jal	ra,80000704 <AddRoundKey>
80003ee4:	00003517 	auipc	a0,0x3
80003ee8:	d9450513 	addi	a0,a0,-620 # 80006c78 <state.1119>
80003eec:	d2cfe0ef 	jal	ra,80002418 <InvMixColumns>
80003ef0:	00003517 	auipc	a0,0x3
80003ef4:	d8850513 	addi	a0,a0,-632 # 80006c78 <state.1119>
80003ef8:	da0fd0ef 	jal	ra,80001498 <InvShiftRows>
80003efc:	00003517 	auipc	a0,0x3
80003f00:	d7c50513 	addi	a0,a0,-644 # 80006c78 <state.1119>
80003f04:	fc5fc0ef 	jal	ra,80000ec8 <InvSubBytes>
80003f08:	fe442783 	lw	a5,-28(s0)
80003f0c:	0c078793 	addi	a5,a5,192
80003f10:	00078593 	mv	a1,a5
80003f14:	00003517 	auipc	a0,0x3
80003f18:	d6450513 	addi	a0,a0,-668 # 80006c78 <state.1119>
80003f1c:	fe8fc0ef 	jal	ra,80000704 <AddRoundKey>
80003f20:	00003517 	auipc	a0,0x3
80003f24:	d5850513 	addi	a0,a0,-680 # 80006c78 <state.1119>
80003f28:	cf0fe0ef 	jal	ra,80002418 <InvMixColumns>
80003f2c:	02c0006f 	j	80003f58 <aes_decrypt+0x244>
80003f30:	fe442783 	lw	a5,-28(s0)
80003f34:	0c078793 	addi	a5,a5,192
80003f38:	00078593 	mv	a1,a5
80003f3c:	00003517 	auipc	a0,0x3
80003f40:	d3c50513 	addi	a0,a0,-708 # 80006c78 <state.1119>
80003f44:	fc0fc0ef 	jal	ra,80000704 <AddRoundKey>
80003f48:	00001797 	auipc	a5,0x1
80003f4c:	94078793 	addi	a5,a5,-1728 # 80004888 <round0_print>
80003f50:	00078513 	mv	a0,a5
80003f54:	9f0fc0ef 	jal	ra,80000144 <sys_Prints>
80003f58:	00003517 	auipc	a0,0x3
80003f5c:	d2050513 	addi	a0,a0,-736 # 80006c78 <state.1119>
80003f60:	d38fd0ef 	jal	ra,80001498 <InvShiftRows>
80003f64:	00003517 	auipc	a0,0x3
80003f68:	d1450513 	addi	a0,a0,-748 # 80006c78 <state.1119>
80003f6c:	f5dfc0ef 	jal	ra,80000ec8 <InvSubBytes>
80003f70:	fe442783 	lw	a5,-28(s0)
80003f74:	0b078793 	addi	a5,a5,176
80003f78:	00078593 	mv	a1,a5
80003f7c:	00003517 	auipc	a0,0x3
80003f80:	cfc50513 	addi	a0,a0,-772 # 80006c78 <state.1119>
80003f84:	f80fc0ef 	jal	ra,80000704 <AddRoundKey>
80003f88:	00003517 	auipc	a0,0x3
80003f8c:	cf050513 	addi	a0,a0,-784 # 80006c78 <state.1119>
80003f90:	c88fe0ef 	jal	ra,80002418 <InvMixColumns>
80003f94:	00003517 	auipc	a0,0x3
80003f98:	ce450513 	addi	a0,a0,-796 # 80006c78 <state.1119>
80003f9c:	cfcfd0ef 	jal	ra,80001498 <InvShiftRows>
80003fa0:	00003517 	auipc	a0,0x3
80003fa4:	cd850513 	addi	a0,a0,-808 # 80006c78 <state.1119>
80003fa8:	f21fc0ef 	jal	ra,80000ec8 <InvSubBytes>
80003fac:	fe442783 	lw	a5,-28(s0)
80003fb0:	0a078793 	addi	a5,a5,160
80003fb4:	00078593 	mv	a1,a5
80003fb8:	00003517 	auipc	a0,0x3
80003fbc:	cc050513 	addi	a0,a0,-832 # 80006c78 <state.1119>
80003fc0:	f44fc0ef 	jal	ra,80000704 <AddRoundKey>
80003fc4:	00003517 	auipc	a0,0x3
80003fc8:	cb450513 	addi	a0,a0,-844 # 80006c78 <state.1119>
80003fcc:	c4cfe0ef 	jal	ra,80002418 <InvMixColumns>
80003fd0:	02c0006f 	j	80003ffc <aes_decrypt+0x2e8>
80003fd4:	fe442783 	lw	a5,-28(s0)
80003fd8:	0a078793 	addi	a5,a5,160
80003fdc:	00078593 	mv	a1,a5
80003fe0:	00003517 	auipc	a0,0x3
80003fe4:	c9850513 	addi	a0,a0,-872 # 80006c78 <state.1119>
80003fe8:	f1cfc0ef 	jal	ra,80000704 <AddRoundKey>
80003fec:	00001797 	auipc	a5,0x1
80003ff0:	89c78793 	addi	a5,a5,-1892 # 80004888 <round0_print>
80003ff4:	00078513 	mv	a0,a5
80003ff8:	94cfc0ef 	jal	ra,80000144 <sys_Prints>
80003ffc:	00003517 	auipc	a0,0x3
80004000:	c7c50513 	addi	a0,a0,-900 # 80006c78 <state.1119>
80004004:	c94fd0ef 	jal	ra,80001498 <InvShiftRows>
80004008:	00003517 	auipc	a0,0x3
8000400c:	c7050513 	addi	a0,a0,-912 # 80006c78 <state.1119>
80004010:	eb9fc0ef 	jal	ra,80000ec8 <InvSubBytes>
80004014:	fe442783 	lw	a5,-28(s0)
80004018:	09078793 	addi	a5,a5,144
8000401c:	00078593 	mv	a1,a5
80004020:	00003517 	auipc	a0,0x3
80004024:	c5850513 	addi	a0,a0,-936 # 80006c78 <state.1119>
80004028:	edcfc0ef 	jal	ra,80000704 <AddRoundKey>
8000402c:	00003517 	auipc	a0,0x3
80004030:	c4c50513 	addi	a0,a0,-948 # 80006c78 <state.1119>
80004034:	be4fe0ef 	jal	ra,80002418 <InvMixColumns>
80004038:	00003517 	auipc	a0,0x3
8000403c:	c4050513 	addi	a0,a0,-960 # 80006c78 <state.1119>
80004040:	c58fd0ef 	jal	ra,80001498 <InvShiftRows>
80004044:	00003517 	auipc	a0,0x3
80004048:	c3450513 	addi	a0,a0,-972 # 80006c78 <state.1119>
8000404c:	e7dfc0ef 	jal	ra,80000ec8 <InvSubBytes>
80004050:	fe442783 	lw	a5,-28(s0)
80004054:	08078793 	addi	a5,a5,128
80004058:	00078593 	mv	a1,a5
8000405c:	00003517 	auipc	a0,0x3
80004060:	c1c50513 	addi	a0,a0,-996 # 80006c78 <state.1119>
80004064:	ea0fc0ef 	jal	ra,80000704 <AddRoundKey>
80004068:	00003517 	auipc	a0,0x3
8000406c:	c1050513 	addi	a0,a0,-1008 # 80006c78 <state.1119>
80004070:	ba8fe0ef 	jal	ra,80002418 <InvMixColumns>
80004074:	00003517 	auipc	a0,0x3
80004078:	c0450513 	addi	a0,a0,-1020 # 80006c78 <state.1119>
8000407c:	c1cfd0ef 	jal	ra,80001498 <InvShiftRows>
80004080:	00003517 	auipc	a0,0x3
80004084:	bf850513 	addi	a0,a0,-1032 # 80006c78 <state.1119>
80004088:	e41fc0ef 	jal	ra,80000ec8 <InvSubBytes>
8000408c:	fe442783 	lw	a5,-28(s0)
80004090:	07078793 	addi	a5,a5,112
80004094:	00078593 	mv	a1,a5
80004098:	00003517 	auipc	a0,0x3
8000409c:	be050513 	addi	a0,a0,-1056 # 80006c78 <state.1119>
800040a0:	e64fc0ef 	jal	ra,80000704 <AddRoundKey>
800040a4:	00003517 	auipc	a0,0x3
800040a8:	bd450513 	addi	a0,a0,-1068 # 80006c78 <state.1119>
800040ac:	b6cfe0ef 	jal	ra,80002418 <InvMixColumns>
800040b0:	00003517 	auipc	a0,0x3
800040b4:	bc850513 	addi	a0,a0,-1080 # 80006c78 <state.1119>
800040b8:	be0fd0ef 	jal	ra,80001498 <InvShiftRows>
800040bc:	00003517 	auipc	a0,0x3
800040c0:	bbc50513 	addi	a0,a0,-1092 # 80006c78 <state.1119>
800040c4:	e05fc0ef 	jal	ra,80000ec8 <InvSubBytes>
800040c8:	fe442783 	lw	a5,-28(s0)
800040cc:	06078793 	addi	a5,a5,96
800040d0:	00078593 	mv	a1,a5
800040d4:	00003517 	auipc	a0,0x3
800040d8:	ba450513 	addi	a0,a0,-1116 # 80006c78 <state.1119>
800040dc:	e28fc0ef 	jal	ra,80000704 <AddRoundKey>
800040e0:	00003517 	auipc	a0,0x3
800040e4:	b9850513 	addi	a0,a0,-1128 # 80006c78 <state.1119>
800040e8:	b30fe0ef 	jal	ra,80002418 <InvMixColumns>
800040ec:	00003517 	auipc	a0,0x3
800040f0:	b8c50513 	addi	a0,a0,-1140 # 80006c78 <state.1119>
800040f4:	ba4fd0ef 	jal	ra,80001498 <InvShiftRows>
800040f8:	00003517 	auipc	a0,0x3
800040fc:	b8050513 	addi	a0,a0,-1152 # 80006c78 <state.1119>
80004100:	dc9fc0ef 	jal	ra,80000ec8 <InvSubBytes>
80004104:	fe442783 	lw	a5,-28(s0)
80004108:	05078793 	addi	a5,a5,80
8000410c:	00078593 	mv	a1,a5
80004110:	00003517 	auipc	a0,0x3
80004114:	b6850513 	addi	a0,a0,-1176 # 80006c78 <state.1119>
80004118:	decfc0ef 	jal	ra,80000704 <AddRoundKey>
8000411c:	00003517 	auipc	a0,0x3
80004120:	b5c50513 	addi	a0,a0,-1188 # 80006c78 <state.1119>
80004124:	af4fe0ef 	jal	ra,80002418 <InvMixColumns>
80004128:	00003517 	auipc	a0,0x3
8000412c:	b5050513 	addi	a0,a0,-1200 # 80006c78 <state.1119>
80004130:	b68fd0ef 	jal	ra,80001498 <InvShiftRows>
80004134:	00003517 	auipc	a0,0x3
80004138:	b4450513 	addi	a0,a0,-1212 # 80006c78 <state.1119>
8000413c:	d8dfc0ef 	jal	ra,80000ec8 <InvSubBytes>
80004140:	fe442783 	lw	a5,-28(s0)
80004144:	04078793 	addi	a5,a5,64
80004148:	00078593 	mv	a1,a5
8000414c:	00003517 	auipc	a0,0x3
80004150:	b2c50513 	addi	a0,a0,-1236 # 80006c78 <state.1119>
80004154:	db0fc0ef 	jal	ra,80000704 <AddRoundKey>
80004158:	00003517 	auipc	a0,0x3
8000415c:	b2050513 	addi	a0,a0,-1248 # 80006c78 <state.1119>
80004160:	ab8fe0ef 	jal	ra,80002418 <InvMixColumns>
80004164:	00003517 	auipc	a0,0x3
80004168:	b1450513 	addi	a0,a0,-1260 # 80006c78 <state.1119>
8000416c:	b2cfd0ef 	jal	ra,80001498 <InvShiftRows>
80004170:	00003517 	auipc	a0,0x3
80004174:	b0850513 	addi	a0,a0,-1272 # 80006c78 <state.1119>
80004178:	d51fc0ef 	jal	ra,80000ec8 <InvSubBytes>
8000417c:	fe442783 	lw	a5,-28(s0)
80004180:	03078793 	addi	a5,a5,48
80004184:	00078593 	mv	a1,a5
80004188:	00003517 	auipc	a0,0x3
8000418c:	af050513 	addi	a0,a0,-1296 # 80006c78 <state.1119>
80004190:	d74fc0ef 	jal	ra,80000704 <AddRoundKey>
80004194:	00003517 	auipc	a0,0x3
80004198:	ae450513 	addi	a0,a0,-1308 # 80006c78 <state.1119>
8000419c:	a7cfe0ef 	jal	ra,80002418 <InvMixColumns>
800041a0:	00003517 	auipc	a0,0x3
800041a4:	ad850513 	addi	a0,a0,-1320 # 80006c78 <state.1119>
800041a8:	af0fd0ef 	jal	ra,80001498 <InvShiftRows>
800041ac:	00003517 	auipc	a0,0x3
800041b0:	acc50513 	addi	a0,a0,-1332 # 80006c78 <state.1119>
800041b4:	d15fc0ef 	jal	ra,80000ec8 <InvSubBytes>
800041b8:	fe442783 	lw	a5,-28(s0)
800041bc:	02078793 	addi	a5,a5,32
800041c0:	00078593 	mv	a1,a5
800041c4:	00003517 	auipc	a0,0x3
800041c8:	ab450513 	addi	a0,a0,-1356 # 80006c78 <state.1119>
800041cc:	d38fc0ef 	jal	ra,80000704 <AddRoundKey>
800041d0:	00003517 	auipc	a0,0x3
800041d4:	aa850513 	addi	a0,a0,-1368 # 80006c78 <state.1119>
800041d8:	a40fe0ef 	jal	ra,80002418 <InvMixColumns>
800041dc:	00003517 	auipc	a0,0x3
800041e0:	a9c50513 	addi	a0,a0,-1380 # 80006c78 <state.1119>
800041e4:	ab4fd0ef 	jal	ra,80001498 <InvShiftRows>
800041e8:	00003517 	auipc	a0,0x3
800041ec:	a9050513 	addi	a0,a0,-1392 # 80006c78 <state.1119>
800041f0:	cd9fc0ef 	jal	ra,80000ec8 <InvSubBytes>
800041f4:	fe442783 	lw	a5,-28(s0)
800041f8:	01078793 	addi	a5,a5,16
800041fc:	00078593 	mv	a1,a5
80004200:	00003517 	auipc	a0,0x3
80004204:	a7850513 	addi	a0,a0,-1416 # 80006c78 <state.1119>
80004208:	cfcfc0ef 	jal	ra,80000704 <AddRoundKey>
8000420c:	00003517 	auipc	a0,0x3
80004210:	a6c50513 	addi	a0,a0,-1428 # 80006c78 <state.1119>
80004214:	a04fe0ef 	jal	ra,80002418 <InvMixColumns>
80004218:	00003517 	auipc	a0,0x3
8000421c:	a6050513 	addi	a0,a0,-1440 # 80006c78 <state.1119>
80004220:	a78fd0ef 	jal	ra,80001498 <InvShiftRows>
80004224:	00003517 	auipc	a0,0x3
80004228:	a5450513 	addi	a0,a0,-1452 # 80006c78 <state.1119>
8000422c:	c9dfc0ef 	jal	ra,80000ec8 <InvSubBytes>
80004230:	fe442583 	lw	a1,-28(s0)
80004234:	00003517 	auipc	a0,0x3
80004238:	a4450513 	addi	a0,a0,-1468 # 80006c78 <state.1119>
8000423c:	cc8fc0ef 	jal	ra,80000704 <AddRoundKey>
80004240:	00000797 	auipc	a5,0x0
80004244:	65c78793 	addi	a5,a5,1628 # 8000489c <roundfinal_print>
80004248:	00078513 	mv	a0,a5
8000424c:	ef9fb0ef 	jal	ra,80000144 <sys_Prints>
80004250:	00003797 	auipc	a5,0x3
80004254:	a2878793 	addi	a5,a5,-1496 # 80006c78 <state.1119>
80004258:	0007a703 	lw	a4,0(a5)
8000425c:	fe842783 	lw	a5,-24(s0)
80004260:	00e7a023 	sw	a4,0(a5)
80004264:	fe842783 	lw	a5,-24(s0)
80004268:	00478793 	addi	a5,a5,4
8000426c:	00003717 	auipc	a4,0x3
80004270:	a0c70713 	addi	a4,a4,-1524 # 80006c78 <state.1119>
80004274:	01072703 	lw	a4,16(a4)
80004278:	00e7a023 	sw	a4,0(a5)
8000427c:	fe842783 	lw	a5,-24(s0)
80004280:	00878793 	addi	a5,a5,8
80004284:	00003717 	auipc	a4,0x3
80004288:	9f470713 	addi	a4,a4,-1548 # 80006c78 <state.1119>
8000428c:	02072703 	lw	a4,32(a4)
80004290:	00e7a023 	sw	a4,0(a5)
80004294:	fe842783 	lw	a5,-24(s0)
80004298:	00c78793 	addi	a5,a5,12
8000429c:	00003717 	auipc	a4,0x3
800042a0:	9dc70713 	addi	a4,a4,-1572 # 80006c78 <state.1119>
800042a4:	03072703 	lw	a4,48(a4)
800042a8:	00e7a023 	sw	a4,0(a5)
800042ac:	fe842783 	lw	a5,-24(s0)
800042b0:	01078793 	addi	a5,a5,16
800042b4:	00003717 	auipc	a4,0x3
800042b8:	9c470713 	addi	a4,a4,-1596 # 80006c78 <state.1119>
800042bc:	00472703 	lw	a4,4(a4)
800042c0:	00e7a023 	sw	a4,0(a5)
800042c4:	fe842783 	lw	a5,-24(s0)
800042c8:	01478793 	addi	a5,a5,20
800042cc:	00003717 	auipc	a4,0x3
800042d0:	9ac70713 	addi	a4,a4,-1620 # 80006c78 <state.1119>
800042d4:	01472703 	lw	a4,20(a4)
800042d8:	00e7a023 	sw	a4,0(a5)
800042dc:	fe842783 	lw	a5,-24(s0)
800042e0:	01878793 	addi	a5,a5,24
800042e4:	00003717 	auipc	a4,0x3
800042e8:	99470713 	addi	a4,a4,-1644 # 80006c78 <state.1119>
800042ec:	02472703 	lw	a4,36(a4)
800042f0:	00e7a023 	sw	a4,0(a5)
800042f4:	fe842783 	lw	a5,-24(s0)
800042f8:	01c78793 	addi	a5,a5,28
800042fc:	00003717 	auipc	a4,0x3
80004300:	97c70713 	addi	a4,a4,-1668 # 80006c78 <state.1119>
80004304:	03472703 	lw	a4,52(a4)
80004308:	00e7a023 	sw	a4,0(a5)
8000430c:	fe842783 	lw	a5,-24(s0)
80004310:	02078793 	addi	a5,a5,32
80004314:	00003717 	auipc	a4,0x3
80004318:	96470713 	addi	a4,a4,-1692 # 80006c78 <state.1119>
8000431c:	00872703 	lw	a4,8(a4)
80004320:	00e7a023 	sw	a4,0(a5)
80004324:	fe842783 	lw	a5,-24(s0)
80004328:	02478793 	addi	a5,a5,36
8000432c:	00003717 	auipc	a4,0x3
80004330:	94c70713 	addi	a4,a4,-1716 # 80006c78 <state.1119>
80004334:	01872703 	lw	a4,24(a4)
80004338:	00e7a023 	sw	a4,0(a5)
8000433c:	fe842783 	lw	a5,-24(s0)
80004340:	02878793 	addi	a5,a5,40
80004344:	00003717 	auipc	a4,0x3
80004348:	93470713 	addi	a4,a4,-1740 # 80006c78 <state.1119>
8000434c:	02872703 	lw	a4,40(a4)
80004350:	00e7a023 	sw	a4,0(a5)
80004354:	fe842783 	lw	a5,-24(s0)
80004358:	02c78793 	addi	a5,a5,44
8000435c:	00003717 	auipc	a4,0x3
80004360:	91c70713 	addi	a4,a4,-1764 # 80006c78 <state.1119>
80004364:	03872703 	lw	a4,56(a4)
80004368:	00e7a023 	sw	a4,0(a5)
8000436c:	fe842783 	lw	a5,-24(s0)
80004370:	03078793 	addi	a5,a5,48
80004374:	00003717 	auipc	a4,0x3
80004378:	90470713 	addi	a4,a4,-1788 # 80006c78 <state.1119>
8000437c:	00c72703 	lw	a4,12(a4)
80004380:	00e7a023 	sw	a4,0(a5)
80004384:	fe842783 	lw	a5,-24(s0)
80004388:	03478793 	addi	a5,a5,52
8000438c:	00003717 	auipc	a4,0x3
80004390:	8ec70713 	addi	a4,a4,-1812 # 80006c78 <state.1119>
80004394:	01c72703 	lw	a4,28(a4)
80004398:	00e7a023 	sw	a4,0(a5)
8000439c:	fe842783 	lw	a5,-24(s0)
800043a0:	03878793 	addi	a5,a5,56
800043a4:	00003717 	auipc	a4,0x3
800043a8:	8d470713 	addi	a4,a4,-1836 # 80006c78 <state.1119>
800043ac:	02c72703 	lw	a4,44(a4)
800043b0:	00e7a023 	sw	a4,0(a5)
800043b4:	fe842783 	lw	a5,-24(s0)
800043b8:	03c78793 	addi	a5,a5,60
800043bc:	00003717 	auipc	a4,0x3
800043c0:	8bc70713 	addi	a4,a4,-1860 # 80006c78 <state.1119>
800043c4:	03c72703 	lw	a4,60(a4)
800043c8:	00e7a023 	sw	a4,0(a5)
800043cc:	00000013 	nop
800043d0:	01c12083 	lw	ra,28(sp)
800043d4:	01812403 	lw	s0,24(sp)
800043d8:	02010113 	addi	sp,sp,32
800043dc:	00008067 	ret

800043e0 <aes_memcpy>:
800043e0:	fd010113 	addi	sp,sp,-48
800043e4:	02812623 	sw	s0,44(sp)
800043e8:	03010413 	addi	s0,sp,48
800043ec:	fca42e23 	sw	a0,-36(s0)
800043f0:	fcb42c23 	sw	a1,-40(s0)
800043f4:	fcc42a23 	sw	a2,-44(s0)
800043f8:	fd442783 	lw	a5,-44(s0)
800043fc:	41f7d713 	srai	a4,a5,0x1f
80004400:	00377713 	andi	a4,a4,3
80004404:	00f707b3 	add	a5,a4,a5
80004408:	4027d793 	srai	a5,a5,0x2
8000440c:	fcf42a23 	sw	a5,-44(s0)
80004410:	fd842783 	lw	a5,-40(s0)
80004414:	fef42423 	sw	a5,-24(s0)
80004418:	fdc42783 	lw	a5,-36(s0)
8000441c:	fef42223 	sw	a5,-28(s0)
80004420:	fe042623 	sw	zero,-20(s0)
80004424:	0380006f 	j	8000445c <aes_memcpy+0x7c>
80004428:	fec42783 	lw	a5,-20(s0)
8000442c:	00279793 	slli	a5,a5,0x2
80004430:	fe842703 	lw	a4,-24(s0)
80004434:	00f70733 	add	a4,a4,a5
80004438:	fec42783 	lw	a5,-20(s0)
8000443c:	00279793 	slli	a5,a5,0x2
80004440:	fe442683 	lw	a3,-28(s0)
80004444:	00f687b3 	add	a5,a3,a5
80004448:	00072703 	lw	a4,0(a4)
8000444c:	00e7a023 	sw	a4,0(a5)
80004450:	fec42783 	lw	a5,-20(s0)
80004454:	00178793 	addi	a5,a5,1
80004458:	fef42623 	sw	a5,-20(s0)
8000445c:	fec42703 	lw	a4,-20(s0)
80004460:	fd442783 	lw	a5,-44(s0)
80004464:	fcf742e3 	blt	a4,a5,80004428 <aes_memcpy+0x48>
80004468:	00000013 	nop
8000446c:	02c12403 	lw	s0,44(sp)
80004470:	03010113 	addi	sp,sp,48
80004474:	00008067 	ret

80004478 <main>:
80004478:	ff010113 	addi	sp,sp,-16
8000447c:	00112623 	sw	ra,12(sp)
80004480:	00812423 	sw	s0,8(sp)
80004484:	01010413 	addi	s0,sp,16
80004488:	00002797 	auipc	a5,0x2
8000448c:	43478793 	addi	a5,a5,1076 # 800068bc <start_print>
80004490:	00078513 	mv	a0,a5
80004494:	cb1fb0ef 	jal	ra,80000144 <sys_Prints>
80004498:	10000613 	li	a2,256
8000449c:	00003597 	auipc	a1,0x3
800044a0:	81c58593 	addi	a1,a1,-2020 # 80006cb8 <key_schedule.1143>
800044a4:	00002517 	auipc	a0,0x2
800044a8:	4e450513 	addi	a0,a0,1252 # 80006988 <key.1152>
800044ac:	fbdfb0ef 	jal	ra,80000468 <aes_key_setup>
800044b0:	39c0006f 	j	8000484c <main+0x3d4>
800044b4:	00002797 	auipc	a5,0x2
800044b8:	55c78793 	addi	a5,a5,1372 # 80006a10 <theMessage>
800044bc:	00000593 	li	a1,0
800044c0:	00078513 	mv	a0,a5
800044c4:	b95fb0ef 	jal	ra,80000058 <sys_Receive>
800044c8:	01000613 	li	a2,16
800044cc:	00002597 	auipc	a1,0x2
800044d0:	54858593 	addi	a1,a1,1352 # 80006a14 <theMessage+0x4>
800044d4:	00003517 	auipc	a0,0x3
800044d8:	8d450513 	addi	a0,a0,-1836 # 80006da8 <input_text.1151>
800044dc:	f05ff0ef 	jal	ra,800043e0 <aes_memcpy>
800044e0:	00002797 	auipc	a5,0x2
800044e4:	3f078793 	addi	a5,a5,1008 # 800068d0 <config_print>
800044e8:	00078513 	mv	a0,a5
800044ec:	c59fb0ef 	jal	ra,80000144 <sys_Prints>
800044f0:	00003797 	auipc	a5,0x3
800044f4:	8f878793 	addi	a5,a5,-1800 # 80006de8 <i.1149>
800044f8:	0007a023 	sw	zero,0(a5)
800044fc:	0480006f 	j	80004544 <main+0xcc>
80004500:	00003797 	auipc	a5,0x3
80004504:	8e878793 	addi	a5,a5,-1816 # 80006de8 <i.1149>
80004508:	0007a783 	lw	a5,0(a5)
8000450c:	00003717 	auipc	a4,0x3
80004510:	89c70713 	addi	a4,a4,-1892 # 80006da8 <input_text.1151>
80004514:	00279793 	slli	a5,a5,0x2
80004518:	00f707b3 	add	a5,a4,a5
8000451c:	0007a783 	lw	a5,0(a5)
80004520:	00078513 	mv	a0,a5
80004524:	bd5fb0ef 	jal	ra,800000f8 <sys_Printi>
80004528:	00003797 	auipc	a5,0x3
8000452c:	8c078793 	addi	a5,a5,-1856 # 80006de8 <i.1149>
80004530:	0007a783 	lw	a5,0(a5)
80004534:	00178713 	addi	a4,a5,1
80004538:	00003797 	auipc	a5,0x3
8000453c:	8b078793 	addi	a5,a5,-1872 # 80006de8 <i.1149>
80004540:	00e7a023 	sw	a4,0(a5)
80004544:	00003797 	auipc	a5,0x3
80004548:	8a478793 	addi	a5,a5,-1884 # 80006de8 <i.1149>
8000454c:	0007a703 	lw	a4,0(a5)
80004550:	00200793 	li	a5,2
80004554:	fae7d6e3 	ble	a4,a5,80004500 <main+0x88>
80004558:	00000797 	auipc	a5,0x0
8000455c:	35c78793 	addi	a5,a5,860 # 800048b4 <barra_ene>
80004560:	00078513 	mv	a0,a5
80004564:	be1fb0ef 	jal	ra,80000144 <sys_Prints>
80004568:	00003797 	auipc	a5,0x3
8000456c:	84078793 	addi	a5,a5,-1984 # 80006da8 <input_text.1151>
80004570:	0007a783 	lw	a5,0(a5)
80004574:	00078713 	mv	a4,a5
80004578:	00003797 	auipc	a5,0x3
8000457c:	87478793 	addi	a5,a5,-1932 # 80006dec <op_mode.1145>
80004580:	00e7a023 	sw	a4,0(a5)
80004584:	00003797 	auipc	a5,0x3
80004588:	82478793 	addi	a5,a5,-2012 # 80006da8 <input_text.1151>
8000458c:	0047a783 	lw	a5,4(a5)
80004590:	00078713 	mv	a4,a5
80004594:	00003797 	auipc	a5,0x3
80004598:	85c78793 	addi	a5,a5,-1956 # 80006df0 <qtd_messages.1144>
8000459c:	00e7a023 	sw	a4,0(a5)
800045a0:	00003797 	auipc	a5,0x3
800045a4:	80878793 	addi	a5,a5,-2040 # 80006da8 <input_text.1151>
800045a8:	0087a783 	lw	a5,8(a5)
800045ac:	00078713 	mv	a4,a5
800045b0:	00003797 	auipc	a5,0x3
800045b4:	84478793 	addi	a5,a5,-1980 # 80006df4 <x.1146>
800045b8:	00e7a023 	sw	a4,0(a5)
800045bc:	00002797 	auipc	a5,0x2
800045c0:	44c78793 	addi	a5,a5,1100 # 80006a08 <id.1148>
800045c4:	0007a703 	lw	a4,0(a5)
800045c8:	fff00793 	li	a5,-1
800045cc:	04f71063 	bne	a4,a5,8000460c <main+0x194>
800045d0:	00003797 	auipc	a5,0x3
800045d4:	82478793 	addi	a5,a5,-2012 # 80006df4 <x.1146>
800045d8:	0007a703 	lw	a4,0(a5)
800045dc:	00002797 	auipc	a5,0x2
800045e0:	42c78793 	addi	a5,a5,1068 # 80006a08 <id.1148>
800045e4:	00e7a023 	sw	a4,0(a5)
800045e8:	00002797 	auipc	a5,0x2
800045ec:	30078793 	addi	a5,a5,768 # 800068e8 <myID_print>
800045f0:	00078513 	mv	a0,a5
800045f4:	b51fb0ef 	jal	ra,80000144 <sys_Prints>
800045f8:	00002797 	auipc	a5,0x2
800045fc:	41078793 	addi	a5,a5,1040 # 80006a08 <id.1148>
80004600:	0007a783 	lw	a5,0(a5)
80004604:	00078513 	mv	a0,a5
80004608:	af1fb0ef 	jal	ra,800000f8 <sys_Printi>
8000460c:	00002797 	auipc	a5,0x2
80004610:	2e878793 	addi	a5,a5,744 # 800068f4 <operation_print>
80004614:	00078513 	mv	a0,a5
80004618:	b2dfb0ef 	jal	ra,80000144 <sys_Prints>
8000461c:	00002797 	auipc	a5,0x2
80004620:	7d078793 	addi	a5,a5,2000 # 80006dec <op_mode.1145>
80004624:	0007a783 	lw	a5,0(a5)
80004628:	00078513 	mv	a0,a5
8000462c:	acdfb0ef 	jal	ra,800000f8 <sys_Printi>
80004630:	00000797 	auipc	a5,0x0
80004634:	28478793 	addi	a5,a5,644 # 800048b4 <barra_ene>
80004638:	00078513 	mv	a0,a5
8000463c:	b09fb0ef 	jal	ra,80000144 <sys_Prints>
80004640:	00002797 	auipc	a5,0x2
80004644:	2c078793 	addi	a5,a5,704 # 80006900 <blocks_print>
80004648:	00078513 	mv	a0,a5
8000464c:	af9fb0ef 	jal	ra,80000144 <sys_Prints>
80004650:	00002797 	auipc	a5,0x2
80004654:	7a078793 	addi	a5,a5,1952 # 80006df0 <qtd_messages.1144>
80004658:	0007a783 	lw	a5,0(a5)
8000465c:	00078513 	mv	a0,a5
80004660:	a99fb0ef 	jal	ra,800000f8 <sys_Printi>
80004664:	00000797 	auipc	a5,0x0
80004668:	25078793 	addi	a5,a5,592 # 800048b4 <barra_ene>
8000466c:	00078513 	mv	a0,a5
80004670:	ad5fb0ef 	jal	ra,80000144 <sys_Prints>
80004674:	00002797 	auipc	a5,0x2
80004678:	77878793 	addi	a5,a5,1912 # 80006dec <op_mode.1145>
8000467c:	0007a703 	lw	a4,0(a5)
80004680:	00200793 	li	a5,2
80004684:	00f71e63 	bne	a4,a5,800046a0 <main+0x228>
80004688:	00002797 	auipc	a5,0x2
8000468c:	38478793 	addi	a5,a5,900 # 80006a0c <flag.1147>
80004690:	0007a023 	sw	zero,0(a5)
80004694:	00002797 	auipc	a5,0x2
80004698:	75c78793 	addi	a5,a5,1884 # 80006df0 <qtd_messages.1144>
8000469c:	0007a023 	sw	zero,0(a5)
800046a0:	00002797 	auipc	a5,0x2
800046a4:	75478793 	addi	a5,a5,1876 # 80006df4 <x.1146>
800046a8:	0007a023 	sw	zero,0(a5)
800046ac:	1840006f 	j	80004830 <main+0x3b8>
800046b0:	00002797 	auipc	a5,0x2
800046b4:	36078793 	addi	a5,a5,864 # 80006a10 <theMessage>
800046b8:	00000593 	li	a1,0
800046bc:	00078513 	mv	a0,a5
800046c0:	999fb0ef 	jal	ra,80000058 <sys_Receive>
800046c4:	04000613 	li	a2,64
800046c8:	00002597 	auipc	a1,0x2
800046cc:	34c58593 	addi	a1,a1,844 # 80006a14 <theMessage+0x4>
800046d0:	00002517 	auipc	a0,0x2
800046d4:	6d850513 	addi	a0,a0,1752 # 80006da8 <input_text.1151>
800046d8:	d09ff0ef 	jal	ra,800043e0 <aes_memcpy>
800046dc:	00002797 	auipc	a5,0x2
800046e0:	22c78793 	addi	a5,a5,556 # 80006908 <receiv_print>
800046e4:	00078513 	mv	a0,a5
800046e8:	a5dfb0ef 	jal	ra,80000144 <sys_Prints>
800046ec:	00002797 	auipc	a5,0x2
800046f0:	6fc78793 	addi	a5,a5,1788 # 80006de8 <i.1149>
800046f4:	0007a023 	sw	zero,0(a5)
800046f8:	0480006f 	j	80004740 <main+0x2c8>
800046fc:	00002797 	auipc	a5,0x2
80004700:	6ec78793 	addi	a5,a5,1772 # 80006de8 <i.1149>
80004704:	0007a783 	lw	a5,0(a5)
80004708:	00002717 	auipc	a4,0x2
8000470c:	6a070713 	addi	a4,a4,1696 # 80006da8 <input_text.1151>
80004710:	00279793 	slli	a5,a5,0x2
80004714:	00f707b3 	add	a5,a4,a5
80004718:	0007a783 	lw	a5,0(a5)
8000471c:	00078513 	mv	a0,a5
80004720:	9d9fb0ef 	jal	ra,800000f8 <sys_Printi>
80004724:	00002797 	auipc	a5,0x2
80004728:	6c478793 	addi	a5,a5,1732 # 80006de8 <i.1149>
8000472c:	0007a783 	lw	a5,0(a5)
80004730:	00178713 	addi	a4,a5,1
80004734:	00002797 	auipc	a5,0x2
80004738:	6b478793 	addi	a5,a5,1716 # 80006de8 <i.1149>
8000473c:	00e7a023 	sw	a4,0(a5)
80004740:	00002797 	auipc	a5,0x2
80004744:	6a878793 	addi	a5,a5,1704 # 80006de8 <i.1149>
80004748:	0007a703 	lw	a4,0(a5)
8000474c:	00f00793 	li	a5,15
80004750:	fae7d6e3 	ble	a4,a5,800046fc <main+0x284>
80004754:	00000797 	auipc	a5,0x0
80004758:	16078793 	addi	a5,a5,352 # 800048b4 <barra_ene>
8000475c:	00078513 	mv	a0,a5
80004760:	9e5fb0ef 	jal	ra,80000144 <sys_Prints>
80004764:	00002797 	auipc	a5,0x2
80004768:	68878793 	addi	a5,a5,1672 # 80006dec <op_mode.1145>
8000476c:	0007a783 	lw	a5,0(a5)
80004770:	02079c63 	bnez	a5,800047a8 <main+0x330>
80004774:	00002797 	auipc	a5,0x2
80004778:	1a478793 	addi	a5,a5,420 # 80006918 <encript_print>
8000477c:	00078513 	mv	a0,a5
80004780:	9c5fb0ef 	jal	ra,80000144 <sys_Prints>
80004784:	10000693 	li	a3,256
80004788:	00002617 	auipc	a2,0x2
8000478c:	53060613 	addi	a2,a2,1328 # 80006cb8 <key_schedule.1143>
80004790:	00002597 	auipc	a1,0x2
80004794:	66858593 	addi	a1,a1,1640 # 80006df8 <enc_buf.1150>
80004798:	00002517 	auipc	a0,0x2
8000479c:	61050513 	addi	a0,a0,1552 # 80006da8 <input_text.1151>
800047a0:	e99fe0ef 	jal	ra,80003638 <aes_encrypt>
800047a4:	0340006f 	j	800047d8 <main+0x360>
800047a8:	00002797 	auipc	a5,0x2
800047ac:	17c78793 	addi	a5,a5,380 # 80006924 <dencript_print>
800047b0:	00078513 	mv	a0,a5
800047b4:	991fb0ef 	jal	ra,80000144 <sys_Prints>
800047b8:	10000693 	li	a3,256
800047bc:	00002617 	auipc	a2,0x2
800047c0:	4fc60613 	addi	a2,a2,1276 # 80006cb8 <key_schedule.1143>
800047c4:	00002597 	auipc	a1,0x2
800047c8:	63458593 	addi	a1,a1,1588 # 80006df8 <enc_buf.1150>
800047cc:	00002517 	auipc	a0,0x2
800047d0:	5dc50513 	addi	a0,a0,1500 # 80006da8 <input_text.1151>
800047d4:	d40ff0ef 	jal	ra,80003d14 <aes_decrypt>
800047d8:	00002797 	auipc	a5,0x2
800047dc:	23878793 	addi	a5,a5,568 # 80006a10 <theMessage>
800047e0:	04000713 	li	a4,64
800047e4:	00e7a023 	sw	a4,0(a5)
800047e8:	04000613 	li	a2,64
800047ec:	00002597 	auipc	a1,0x2
800047f0:	60c58593 	addi	a1,a1,1548 # 80006df8 <enc_buf.1150>
800047f4:	00002517 	auipc	a0,0x2
800047f8:	22050513 	addi	a0,a0,544 # 80006a14 <theMessage+0x4>
800047fc:	be5ff0ef 	jal	ra,800043e0 <aes_memcpy>
80004800:	00002797 	auipc	a5,0x2
80004804:	21078793 	addi	a5,a5,528 # 80006a10 <theMessage>
80004808:	00000593 	li	a1,0
8000480c:	00078513 	mv	a0,a5
80004810:	899fb0ef 	jal	ra,800000a8 <sys_Send>
80004814:	00002797 	auipc	a5,0x2
80004818:	5e078793 	addi	a5,a5,1504 # 80006df4 <x.1146>
8000481c:	0007a783 	lw	a5,0(a5)
80004820:	00178713 	addi	a4,a5,1
80004824:	00002797 	auipc	a5,0x2
80004828:	5d078793 	addi	a5,a5,1488 # 80006df4 <x.1146>
8000482c:	00e7a023 	sw	a4,0(a5)
80004830:	00002797 	auipc	a5,0x2
80004834:	5c478793 	addi	a5,a5,1476 # 80006df4 <x.1146>
80004838:	0007a703 	lw	a4,0(a5)
8000483c:	00002797 	auipc	a5,0x2
80004840:	5b478793 	addi	a5,a5,1460 # 80006df0 <qtd_messages.1144>
80004844:	0007a783 	lw	a5,0(a5)
80004848:	e6f744e3 	blt	a4,a5,800046b0 <main+0x238>
8000484c:	00002797 	auipc	a5,0x2
80004850:	1c078793 	addi	a5,a5,448 # 80006a0c <flag.1147>
80004854:	0007a783 	lw	a5,0(a5)
80004858:	c4079ee3 	bnez	a5,800044b4 <main+0x3c>
8000485c:	00002797 	auipc	a5,0x2
80004860:	0d478793 	addi	a5,a5,212 # 80006930 <finish_print>
80004864:	00078513 	mv	a0,a5
80004868:	8ddfb0ef 	jal	ra,80000144 <sys_Prints>
8000486c:	925fb0ef 	jal	ra,80000190 <sys_Finish>
80004870:	00000793 	li	a5,0
80004874:	00078513 	mv	a0,a5
80004878:	00c12083 	lw	ra,12(sp)
8000487c:	00812403 	lw	s0,8(sp)
80004880:	01010113 	addi	sp,sp,16
80004884:	00008067 	ret

Disassembly of section .data:

80004888 <round0_print>:
80004888:	4e554f52     ROUN
8000488c:	20302044     D 0 
80004890:	696e6966     fini
80004894:	64656873     shed
80004898:	00000a2e     ....

8000489c <roundfinal_print>:
8000489c:	4e554f52     ROUN
800048a0:	69462044     D Fi
800048a4:	206c616e     nal 
800048a8:	696e6966     fini
800048ac:	64656873     shed
800048b0:	00000a2e     ....

800048b4 <barra_ene>:
800048b4:	0a202020        .
800048b8:	00000000     ....

800048bc <aes_sbox>:
800048bc:	00000063     c...
800048c0:	0000007c     |...
800048c4:	00000077     w...
800048c8:	0000007b     {...
800048cc:	000000f2     ....
800048d0:	0000006b     k...
800048d4:	0000006f     o...
800048d8:	000000c5     ....
800048dc:	00000030     0...
800048e0:	00000001     ....
800048e4:	00000067     g...
800048e8:	0000002b     +...
800048ec:	000000fe     ....
800048f0:	000000d7     ....
800048f4:	000000ab     ....
800048f8:	00000076     v...
800048fc:	000000ca     ....
80004900:	00000082     ....
80004904:	000000c9     ....
80004908:	0000007d     }...
8000490c:	000000fa     ....
80004910:	00000059     Y...
80004914:	00000047     G...
80004918:	000000f0     ....
8000491c:	000000ad     ....
80004920:	000000d4     ....
80004924:	000000a2     ....
80004928:	000000af     ....
8000492c:	0000009c     ....
80004930:	000000a4     ....
80004934:	00000072     r...
80004938:	000000c0     ....
8000493c:	000000b7     ....
80004940:	000000fd     ....
80004944:	00000093     ....
80004948:	00000026     &...
8000494c:	00000036     6...
80004950:	0000003f     ?...
80004954:	000000f7     ....
80004958:	000000cc     ....
8000495c:	00000034     4...
80004960:	000000a5     ....
80004964:	000000e5     ....
80004968:	000000f1     ....
8000496c:	00000071     q...
80004970:	000000d8     ....
80004974:	00000031     1...
80004978:	00000015     ....
8000497c:	00000004     ....
80004980:	000000c7     ....
80004984:	00000023     #...
80004988:	000000c3     ....
8000498c:	00000018     ....
80004990:	00000096     ....
80004994:	00000005     ....
80004998:	0000009a     ....
8000499c:	00000007     ....
800049a0:	00000012     ....
800049a4:	00000080     ....
800049a8:	000000e2     ....
800049ac:	000000eb     ....
800049b0:	00000027     '...
800049b4:	000000b2     ....
800049b8:	00000075     u...
800049bc:	00000009     ....
800049c0:	00000083     ....
800049c4:	0000002c     ,...
800049c8:	0000001a     ....
800049cc:	0000001b     ....
800049d0:	0000006e     n...
800049d4:	0000005a     Z...
800049d8:	000000a0     ....
800049dc:	00000052     R...
800049e0:	0000003b     ;...
800049e4:	000000d6     ....
800049e8:	000000b3     ....
800049ec:	00000029     )...
800049f0:	000000e3     ....
800049f4:	0000002f     /...
800049f8:	00000084     ....
800049fc:	00000053     S...
80004a00:	000000d1     ....
80004a04:	00000000     ....
80004a08:	000000ed     ....
80004a0c:	00000020      ...
80004a10:	000000fc     ....
80004a14:	000000b1     ....
80004a18:	0000005b     [...
80004a1c:	0000006a     j...
80004a20:	000000cb     ....
80004a24:	000000be     ....
80004a28:	00000039     9...
80004a2c:	0000004a     J...
80004a30:	0000004c     L...
80004a34:	00000058     X...
80004a38:	000000cf     ....
80004a3c:	000000d0     ....
80004a40:	000000ef     ....
80004a44:	000000aa     ....
80004a48:	000000fb     ....
80004a4c:	00000043     C...
80004a50:	0000004d     M...
80004a54:	00000033     3...
80004a58:	00000085     ....
80004a5c:	00000045     E...
80004a60:	000000f9     ....
80004a64:	00000002     ....
80004a68:	0000007f     ....
80004a6c:	00000050     P...
80004a70:	0000003c     <...
80004a74:	0000009f     ....
80004a78:	000000a8     ....
80004a7c:	00000051     Q...
80004a80:	000000a3     ....
80004a84:	00000040     @...
80004a88:	0000008f     ....
80004a8c:	00000092     ....
80004a90:	0000009d     ....
80004a94:	00000038     8...
80004a98:	000000f5     ....
80004a9c:	000000bc     ....
80004aa0:	000000b6     ....
80004aa4:	000000da     ....
80004aa8:	00000021     !...
80004aac:	00000010     ....
80004ab0:	000000ff     ....
80004ab4:	000000f3     ....
80004ab8:	000000d2     ....
80004abc:	000000cd     ....
80004ac0:	0000000c     ....
80004ac4:	00000013     ....
80004ac8:	000000ec     ....
80004acc:	0000005f     _...
80004ad0:	00000097     ....
80004ad4:	00000044     D...
80004ad8:	00000017     ....
80004adc:	000000c4     ....
80004ae0:	000000a7     ....
80004ae4:	0000007e     ~...
80004ae8:	0000003d     =...
80004aec:	00000064     d...
80004af0:	0000005d     ]...
80004af4:	00000019     ....
80004af8:	00000073     s...
80004afc:	00000060     `...
80004b00:	00000081     ....
80004b04:	0000004f     O...
80004b08:	000000dc     ....
80004b0c:	00000022     "...
80004b10:	0000002a     *...
80004b14:	00000090     ....
80004b18:	00000088     ....
80004b1c:	00000046     F...
80004b20:	000000ee     ....
80004b24:	000000b8     ....
80004b28:	00000014     ....
80004b2c:	000000de     ....
80004b30:	0000005e     ^...
80004b34:	0000000b     ....
80004b38:	000000db     ....
80004b3c:	000000e0     ....
80004b40:	00000032     2...
80004b44:	0000003a     :...
80004b48:	0000000a     ....
80004b4c:	00000049     I...
80004b50:	00000006     ....
80004b54:	00000024     $...
80004b58:	0000005c     \...
80004b5c:	000000c2     ....
80004b60:	000000d3     ....
80004b64:	000000ac     ....
80004b68:	00000062     b...
80004b6c:	00000091     ....
80004b70:	00000095     ....
80004b74:	000000e4     ....
80004b78:	00000079     y...
80004b7c:	000000e7     ....
80004b80:	000000c8     ....
80004b84:	00000037     7...
80004b88:	0000006d     m...
80004b8c:	0000008d     ....
80004b90:	000000d5     ....
80004b94:	0000004e     N...
80004b98:	000000a9     ....
80004b9c:	0000006c     l...
80004ba0:	00000056     V...
80004ba4:	000000f4     ....
80004ba8:	000000ea     ....
80004bac:	00000065     e...
80004bb0:	0000007a     z...
80004bb4:	000000ae     ....
80004bb8:	00000008     ....
80004bbc:	000000ba     ....
80004bc0:	00000078     x...
80004bc4:	00000025     %...
80004bc8:	0000002e     ....
80004bcc:	0000001c     ....
80004bd0:	000000a6     ....
80004bd4:	000000b4     ....
80004bd8:	000000c6     ....
80004bdc:	000000e8     ....
80004be0:	000000dd     ....
80004be4:	00000074     t...
80004be8:	0000001f     ....
80004bec:	0000004b     K...
80004bf0:	000000bd     ....
80004bf4:	0000008b     ....
80004bf8:	0000008a     ....
80004bfc:	00000070     p...
80004c00:	0000003e     >...
80004c04:	000000b5     ....
80004c08:	00000066     f...
80004c0c:	00000048     H...
80004c10:	00000003     ....
80004c14:	000000f6     ....
80004c18:	0000000e     ....
80004c1c:	00000061     a...
80004c20:	00000035     5...
80004c24:	00000057     W...
80004c28:	000000b9     ....
80004c2c:	00000086     ....
80004c30:	000000c1     ....
80004c34:	0000001d     ....
80004c38:	0000009e     ....
80004c3c:	000000e1     ....
80004c40:	000000f8     ....
80004c44:	00000098     ....
80004c48:	00000011     ....
80004c4c:	00000069     i...
80004c50:	000000d9     ....
80004c54:	0000008e     ....
80004c58:	00000094     ....
80004c5c:	0000009b     ....
80004c60:	0000001e     ....
80004c64:	00000087     ....
80004c68:	000000e9     ....
80004c6c:	000000ce     ....
80004c70:	00000055     U...
80004c74:	00000028     (...
80004c78:	000000df     ....
80004c7c:	0000008c     ....
80004c80:	000000a1     ....
80004c84:	00000089     ....
80004c88:	0000000d     ....
80004c8c:	000000bf     ....
80004c90:	000000e6     ....
80004c94:	00000042     B...
80004c98:	00000068     h...
80004c9c:	00000041     A...
80004ca0:	00000099     ....
80004ca4:	0000002d     -...
80004ca8:	0000000f     ....
80004cac:	000000b0     ....
80004cb0:	00000054     T...
80004cb4:	000000bb     ....
80004cb8:	00000016     ....

80004cbc <aes_invsbox>:
80004cbc:	00000052     R...
80004cc0:	00000009     ....
80004cc4:	0000006a     j...
80004cc8:	000000d5     ....
80004ccc:	00000030     0...
80004cd0:	00000036     6...
80004cd4:	000000a5     ....
80004cd8:	00000038     8...
80004cdc:	000000bf     ....
80004ce0:	00000040     @...
80004ce4:	000000a3     ....
80004ce8:	0000009e     ....
80004cec:	00000081     ....
80004cf0:	000000f3     ....
80004cf4:	000000d7     ....
80004cf8:	000000fb     ....
80004cfc:	0000007c     |...
80004d00:	000000e3     ....
80004d04:	00000039     9...
80004d08:	00000082     ....
80004d0c:	0000009b     ....
80004d10:	0000002f     /...
80004d14:	000000ff     ....
80004d18:	00000087     ....
80004d1c:	00000034     4...
80004d20:	0000008e     ....
80004d24:	00000043     C...
80004d28:	00000044     D...
80004d2c:	000000c4     ....
80004d30:	000000de     ....
80004d34:	000000e9     ....
80004d38:	000000cb     ....
80004d3c:	00000054     T...
80004d40:	0000007b     {...
80004d44:	00000094     ....
80004d48:	00000032     2...
80004d4c:	000000a6     ....
80004d50:	000000c2     ....
80004d54:	00000023     #...
80004d58:	0000003d     =...
80004d5c:	000000ee     ....
80004d60:	0000004c     L...
80004d64:	00000095     ....
80004d68:	0000000b     ....
80004d6c:	00000042     B...
80004d70:	000000fa     ....
80004d74:	000000c3     ....
80004d78:	0000004e     N...
80004d7c:	00000008     ....
80004d80:	0000002e     ....
80004d84:	000000a1     ....
80004d88:	00000066     f...
80004d8c:	00000028     (...
80004d90:	000000d9     ....
80004d94:	00000024     $...
80004d98:	000000b2     ....
80004d9c:	00000076     v...
80004da0:	0000005b     [...
80004da4:	000000a2     ....
80004da8:	00000049     I...
80004dac:	0000006d     m...
80004db0:	0000008b     ....
80004db4:	000000d1     ....
80004db8:	00000025     %...
80004dbc:	00000072     r...
80004dc0:	000000f8     ....
80004dc4:	000000f6     ....
80004dc8:	00000064     d...
80004dcc:	00000086     ....
80004dd0:	00000068     h...
80004dd4:	00000098     ....
80004dd8:	00000016     ....
80004ddc:	000000d4     ....
80004de0:	000000a4     ....
80004de4:	0000005c     \...
80004de8:	000000cc     ....
80004dec:	0000005d     ]...
80004df0:	00000065     e...
80004df4:	000000b6     ....
80004df8:	00000092     ....
80004dfc:	0000006c     l...
80004e00:	00000070     p...
80004e04:	00000048     H...
80004e08:	00000050     P...
80004e0c:	000000fd     ....
80004e10:	000000ed     ....
80004e14:	000000b9     ....
80004e18:	000000da     ....
80004e1c:	0000005e     ^...
80004e20:	00000015     ....
80004e24:	00000046     F...
80004e28:	00000057     W...
80004e2c:	000000a7     ....
80004e30:	0000008d     ....
80004e34:	0000009d     ....
80004e38:	00000084     ....
80004e3c:	00000090     ....
80004e40:	000000d8     ....
80004e44:	000000ab     ....
80004e48:	00000000     ....
80004e4c:	0000008c     ....
80004e50:	000000bc     ....
80004e54:	000000d3     ....
80004e58:	0000000a     ....
80004e5c:	000000f7     ....
80004e60:	000000e4     ....
80004e64:	00000058     X...
80004e68:	00000005     ....
80004e6c:	000000b8     ....
80004e70:	000000b3     ....
80004e74:	00000045     E...
80004e78:	00000006     ....
80004e7c:	000000d0     ....
80004e80:	0000002c     ,...
80004e84:	0000001e     ....
80004e88:	0000008f     ....
80004e8c:	000000ca     ....
80004e90:	0000003f     ?...
80004e94:	0000000f     ....
80004e98:	00000002     ....
80004e9c:	000000c1     ....
80004ea0:	000000af     ....
80004ea4:	000000bd     ....
80004ea8:	00000003     ....
80004eac:	00000001     ....
80004eb0:	00000013     ....
80004eb4:	0000008a     ....
80004eb8:	0000006b     k...
80004ebc:	0000003a     :...
80004ec0:	00000091     ....
80004ec4:	00000011     ....
80004ec8:	00000041     A...
80004ecc:	0000004f     O...
80004ed0:	00000067     g...
80004ed4:	000000dc     ....
80004ed8:	000000ea     ....
80004edc:	00000097     ....
80004ee0:	000000f2     ....
80004ee4:	000000cf     ....
80004ee8:	000000ce     ....
80004eec:	000000f0     ....
80004ef0:	000000b4     ....
80004ef4:	000000e6     ....
80004ef8:	00000073     s...
80004efc:	00000096     ....
80004f00:	000000ac     ....
80004f04:	00000074     t...
80004f08:	00000022     "...
80004f0c:	000000e7     ....
80004f10:	000000ad     ....
80004f14:	00000035     5...
80004f18:	00000085     ....
80004f1c:	000000e2     ....
80004f20:	000000f9     ....
80004f24:	00000037     7...
80004f28:	000000e8     ....
80004f2c:	0000001c     ....
80004f30:	00000075     u...
80004f34:	000000df     ....
80004f38:	0000006e     n...
80004f3c:	00000047     G...
80004f40:	000000f1     ....
80004f44:	0000001a     ....
80004f48:	00000071     q...
80004f4c:	0000001d     ....
80004f50:	00000029     )...
80004f54:	000000c5     ....
80004f58:	00000089     ....
80004f5c:	0000006f     o...
80004f60:	000000b7     ....
80004f64:	00000062     b...
80004f68:	0000000e     ....
80004f6c:	000000aa     ....
80004f70:	00000018     ....
80004f74:	000000be     ....
80004f78:	0000001b     ....
80004f7c:	000000fc     ....
80004f80:	00000056     V...
80004f84:	0000003e     >...
80004f88:	0000004b     K...
80004f8c:	000000c6     ....
80004f90:	000000d2     ....
80004f94:	00000079     y...
80004f98:	00000020      ...
80004f9c:	0000009a     ....
80004fa0:	000000db     ....
80004fa4:	000000c0     ....
80004fa8:	000000fe     ....
80004fac:	00000078     x...
80004fb0:	000000cd     ....
80004fb4:	0000005a     Z...
80004fb8:	000000f4     ....
80004fbc:	0000001f     ....
80004fc0:	000000dd     ....
80004fc4:	000000a8     ....
80004fc8:	00000033     3...
80004fcc:	00000088     ....
80004fd0:	00000007     ....
80004fd4:	000000c7     ....
80004fd8:	00000031     1...
80004fdc:	000000b1     ....
80004fe0:	00000012     ....
80004fe4:	00000010     ....
80004fe8:	00000059     Y...
80004fec:	00000027     '...
80004ff0:	00000080     ....
80004ff4:	000000ec     ....
80004ff8:	0000005f     _...
80004ffc:	00000060     `...
80005000:	00000051     Q...
80005004:	0000007f     ....
80005008:	000000a9     ....
8000500c:	00000019     ....
80005010:	000000b5     ....
80005014:	0000004a     J...
80005018:	0000000d     ....
8000501c:	0000002d     -...
80005020:	000000e5     ....
80005024:	0000007a     z...
80005028:	0000009f     ....
8000502c:	00000093     ....
80005030:	000000c9     ....
80005034:	0000009c     ....
80005038:	000000ef     ....
8000503c:	000000a0     ....
80005040:	000000e0     ....
80005044:	0000003b     ;...
80005048:	0000004d     M...
8000504c:	000000ae     ....
80005050:	0000002a     *...
80005054:	000000f5     ....
80005058:	000000b0     ....
8000505c:	000000c8     ....
80005060:	000000eb     ....
80005064:	000000bb     ....
80005068:	0000003c     <...
8000506c:	00000083     ....
80005070:	00000053     S...
80005074:	00000099     ....
80005078:	00000061     a...
8000507c:	00000017     ....
80005080:	0000002b     +...
80005084:	00000004     ....
80005088:	0000007e     ~...
8000508c:	000000ba     ....
80005090:	00000077     w...
80005094:	000000d6     ....
80005098:	00000026     &...
8000509c:	000000e1     ....
800050a0:	00000069     i...
800050a4:	00000014     ....
800050a8:	00000063     c...
800050ac:	00000055     U...
800050b0:	00000021     !...
800050b4:	0000000c     ....
800050b8:	0000007d     }...

800050bc <gf_mul>:
800050bc:	00000000     ....
800050c0:	00000000     ....
800050c4:	00000000     ....
800050c8:	00000000     ....
800050cc:	00000000     ....
800050d0:	00000000     ....
800050d4:	00000002     ....
800050d8:	00000003     ....
800050dc:	00000009     ....
800050e0:	0000000b     ....
800050e4:	0000000d     ....
800050e8:	0000000e     ....
800050ec:	00000004     ....
800050f0:	00000006     ....
800050f4:	00000012     ....
800050f8:	00000016     ....
800050fc:	0000001a     ....
80005100:	0000001c     ....
80005104:	00000006     ....
80005108:	00000005     ....
8000510c:	0000001b     ....
80005110:	0000001d     ....
80005114:	00000017     ....
80005118:	00000012     ....
8000511c:	00000008     ....
80005120:	0000000c     ....
80005124:	00000024     $...
80005128:	0000002c     ,...
8000512c:	00000034     4...
80005130:	00000038     8...
80005134:	0000000a     ....
80005138:	0000000f     ....
8000513c:	0000002d     -...
80005140:	00000027     '...
80005144:	00000039     9...
80005148:	00000036     6...
8000514c:	0000000c     ....
80005150:	0000000a     ....
80005154:	00000036     6...
80005158:	0000003a     :...
8000515c:	0000002e     ....
80005160:	00000024     $...
80005164:	0000000e     ....
80005168:	00000009     ....
8000516c:	0000003f     ?...
80005170:	00000031     1...
80005174:	00000023     #...
80005178:	0000002a     *...
8000517c:	00000010     ....
80005180:	00000018     ....
80005184:	00000048     H...
80005188:	00000058     X...
8000518c:	00000068     h...
80005190:	00000070     p...
80005194:	00000012     ....
80005198:	0000001b     ....
8000519c:	00000041     A...
800051a0:	00000053     S...
800051a4:	00000065     e...
800051a8:	0000007e     ~...
800051ac:	00000014     ....
800051b0:	0000001e     ....
800051b4:	0000005a     Z...
800051b8:	0000004e     N...
800051bc:	00000072     r...
800051c0:	0000006c     l...
800051c4:	00000016     ....
800051c8:	0000001d     ....
800051cc:	00000053     S...
800051d0:	00000045     E...
800051d4:	0000007f     ....
800051d8:	00000062     b...
800051dc:	00000018     ....
800051e0:	00000014     ....
800051e4:	0000006c     l...
800051e8:	00000074     t...
800051ec:	0000005c     \...
800051f0:	00000048     H...
800051f4:	0000001a     ....
800051f8:	00000017     ....
800051fc:	00000065     e...
80005200:	0000007f     ....
80005204:	00000051     Q...
80005208:	00000046     F...
8000520c:	0000001c     ....
80005210:	00000012     ....
80005214:	0000007e     ~...
80005218:	00000062     b...
8000521c:	00000046     F...
80005220:	00000054     T...
80005224:	0000001e     ....
80005228:	00000011     ....
8000522c:	00000077     w...
80005230:	00000069     i...
80005234:	0000004b     K...
80005238:	0000005a     Z...
8000523c:	00000020      ...
80005240:	00000030     0...
80005244:	00000090     ....
80005248:	000000b0     ....
8000524c:	000000d0     ....
80005250:	000000e0     ....
80005254:	00000022     "...
80005258:	00000033     3...
8000525c:	00000099     ....
80005260:	000000bb     ....
80005264:	000000dd     ....
80005268:	000000ee     ....
8000526c:	00000024     $...
80005270:	00000036     6...
80005274:	00000082     ....
80005278:	000000a6     ....
8000527c:	000000ca     ....
80005280:	000000fc     ....
80005284:	00000026     &...
80005288:	00000035     5...
8000528c:	0000008b     ....
80005290:	000000ad     ....
80005294:	000000c7     ....
80005298:	000000f2     ....
8000529c:	00000028     (...
800052a0:	0000003c     <...
800052a4:	000000b4     ....
800052a8:	0000009c     ....
800052ac:	000000e4     ....
800052b0:	000000d8     ....
800052b4:	0000002a     *...
800052b8:	0000003f     ?...
800052bc:	000000bd     ....
800052c0:	00000097     ....
800052c4:	000000e9     ....
800052c8:	000000d6     ....
800052cc:	0000002c     ,...
800052d0:	0000003a     :...
800052d4:	000000a6     ....
800052d8:	0000008a     ....
800052dc:	000000fe     ....
800052e0:	000000c4     ....
800052e4:	0000002e     ....
800052e8:	00000039     9...
800052ec:	000000af     ....
800052f0:	00000081     ....
800052f4:	000000f3     ....
800052f8:	000000ca     ....
800052fc:	00000030     0...
80005300:	00000028     (...
80005304:	000000d8     ....
80005308:	000000e8     ....
8000530c:	000000b8     ....
80005310:	00000090     ....
80005314:	00000032     2...
80005318:	0000002b     +...
8000531c:	000000d1     ....
80005320:	000000e3     ....
80005324:	000000b5     ....
80005328:	0000009e     ....
8000532c:	00000034     4...
80005330:	0000002e     ....
80005334:	000000ca     ....
80005338:	000000fe     ....
8000533c:	000000a2     ....
80005340:	0000008c     ....
80005344:	00000036     6...
80005348:	0000002d     -...
8000534c:	000000c3     ....
80005350:	000000f5     ....
80005354:	000000af     ....
80005358:	00000082     ....
8000535c:	00000038     8...
80005360:	00000024     $...
80005364:	000000fc     ....
80005368:	000000c4     ....
8000536c:	0000008c     ....
80005370:	000000a8     ....
80005374:	0000003a     :...
80005378:	00000027     '...
8000537c:	000000f5     ....
80005380:	000000cf     ....
80005384:	00000081     ....
80005388:	000000a6     ....
8000538c:	0000003c     <...
80005390:	00000022     "...
80005394:	000000ee     ....
80005398:	000000d2     ....
8000539c:	00000096     ....
800053a0:	000000b4     ....
800053a4:	0000003e     >...
800053a8:	00000021     !...
800053ac:	000000e7     ....
800053b0:	000000d9     ....
800053b4:	0000009b     ....
800053b8:	000000ba     ....
800053bc:	00000040     @...
800053c0:	00000060     `...
800053c4:	0000003b     ;...
800053c8:	0000007b     {...
800053cc:	000000bb     ....
800053d0:	000000db     ....
800053d4:	00000042     B...
800053d8:	00000063     c...
800053dc:	00000032     2...
800053e0:	00000070     p...
800053e4:	000000b6     ....
800053e8:	000000d5     ....
800053ec:	00000044     D...
800053f0:	00000066     f...
800053f4:	00000029     )...
800053f8:	0000006d     m...
800053fc:	000000a1     ....
80005400:	000000c7     ....
80005404:	00000046     F...
80005408:	00000065     e...
8000540c:	00000020      ...
80005410:	00000066     f...
80005414:	000000ac     ....
80005418:	000000c9     ....
8000541c:	00000048     H...
80005420:	0000006c     l...
80005424:	0000001f     ....
80005428:	00000057     W...
8000542c:	0000008f     ....
80005430:	000000e3     ....
80005434:	0000004a     J...
80005438:	0000006f     o...
8000543c:	00000016     ....
80005440:	0000005c     \...
80005444:	00000082     ....
80005448:	000000ed     ....
8000544c:	0000004c     L...
80005450:	0000006a     j...
80005454:	0000000d     ....
80005458:	00000041     A...
8000545c:	00000095     ....
80005460:	000000ff     ....
80005464:	0000004e     N...
80005468:	00000069     i...
8000546c:	00000004     ....
80005470:	0000004a     J...
80005474:	00000098     ....
80005478:	000000f1     ....
8000547c:	00000050     P...
80005480:	00000078     x...
80005484:	00000073     s...
80005488:	00000023     #...
8000548c:	000000d3     ....
80005490:	000000ab     ....
80005494:	00000052     R...
80005498:	0000007b     {...
8000549c:	0000007a     z...
800054a0:	00000028     (...
800054a4:	000000de     ....
800054a8:	000000a5     ....
800054ac:	00000054     T...
800054b0:	0000007e     ~...
800054b4:	00000061     a...
800054b8:	00000035     5...
800054bc:	000000c9     ....
800054c0:	000000b7     ....
800054c4:	00000056     V...
800054c8:	0000007d     }...
800054cc:	00000068     h...
800054d0:	0000003e     >...
800054d4:	000000c4     ....
800054d8:	000000b9     ....
800054dc:	00000058     X...
800054e0:	00000074     t...
800054e4:	00000057     W...
800054e8:	0000000f     ....
800054ec:	000000e7     ....
800054f0:	00000093     ....
800054f4:	0000005a     Z...
800054f8:	00000077     w...
800054fc:	0000005e     ^...
80005500:	00000004     ....
80005504:	000000ea     ....
80005508:	0000009d     ....
8000550c:	0000005c     \...
80005510:	00000072     r...
80005514:	00000045     E...
80005518:	00000019     ....
8000551c:	000000fd     ....
80005520:	0000008f     ....
80005524:	0000005e     ^...
80005528:	00000071     q...
8000552c:	0000004c     L...
80005530:	00000012     ....
80005534:	000000f0     ....
80005538:	00000081     ....
8000553c:	00000060     `...
80005540:	00000050     P...
80005544:	000000ab     ....
80005548:	000000cb     ....
8000554c:	0000006b     k...
80005550:	0000003b     ;...
80005554:	00000062     b...
80005558:	00000053     S...
8000555c:	000000a2     ....
80005560:	000000c0     ....
80005564:	00000066     f...
80005568:	00000035     5...
8000556c:	00000064     d...
80005570:	00000056     V...
80005574:	000000b9     ....
80005578:	000000dd     ....
8000557c:	00000071     q...
80005580:	00000027     '...
80005584:	00000066     f...
80005588:	00000055     U...
8000558c:	000000b0     ....
80005590:	000000d6     ....
80005594:	0000007c     |...
80005598:	00000029     )...
8000559c:	00000068     h...
800055a0:	0000005c     \...
800055a4:	0000008f     ....
800055a8:	000000e7     ....
800055ac:	0000005f     _...
800055b0:	00000003     ....
800055b4:	0000006a     j...
800055b8:	0000005f     _...
800055bc:	00000086     ....
800055c0:	000000ec     ....
800055c4:	00000052     R...
800055c8:	0000000d     ....
800055cc:	0000006c     l...
800055d0:	0000005a     Z...
800055d4:	0000009d     ....
800055d8:	000000f1     ....
800055dc:	00000045     E...
800055e0:	0000001f     ....
800055e4:	0000006e     n...
800055e8:	00000059     Y...
800055ec:	00000094     ....
800055f0:	000000fa     ....
800055f4:	00000048     H...
800055f8:	00000011     ....
800055fc:	00000070     p...
80005600:	00000048     H...
80005604:	000000e3     ....
80005608:	00000093     ....
8000560c:	00000003     ....
80005610:	0000004b     K...
80005614:	00000072     r...
80005618:	0000004b     K...
8000561c:	000000ea     ....
80005620:	00000098     ....
80005624:	0000000e     ....
80005628:	00000045     E...
8000562c:	00000074     t...
80005630:	0000004e     N...
80005634:	000000f1     ....
80005638:	00000085     ....
8000563c:	00000019     ....
80005640:	00000057     W...
80005644:	00000076     v...
80005648:	0000004d     M...
8000564c:	000000f8     ....
80005650:	0000008e     ....
80005654:	00000014     ....
80005658:	00000059     Y...
8000565c:	00000078     x...
80005660:	00000044     D...
80005664:	000000c7     ....
80005668:	000000bf     ....
8000566c:	00000037     7...
80005670:	00000073     s...
80005674:	0000007a     z...
80005678:	00000047     G...
8000567c:	000000ce     ....
80005680:	000000b4     ....
80005684:	0000003a     :...
80005688:	0000007d     }...
8000568c:	0000007c     |...
80005690:	00000042     B...
80005694:	000000d5     ....
80005698:	000000a9     ....
8000569c:	0000002d     -...
800056a0:	0000006f     o...
800056a4:	0000007e     ~...
800056a8:	00000041     A...
800056ac:	000000dc     ....
800056b0:	000000a2     ....
800056b4:	00000020      ...
800056b8:	00000061     a...
800056bc:	00000080     ....
800056c0:	000000c0     ....
800056c4:	00000076     v...
800056c8:	000000f6     ....
800056cc:	0000006d     m...
800056d0:	000000ad     ....
800056d4:	00000082     ....
800056d8:	000000c3     ....
800056dc:	0000007f     ....
800056e0:	000000fd     ....
800056e4:	00000060     `...
800056e8:	000000a3     ....
800056ec:	00000084     ....
800056f0:	000000c6     ....
800056f4:	00000064     d...
800056f8:	000000e0     ....
800056fc:	00000077     w...
80005700:	000000b1     ....
80005704:	00000086     ....
80005708:	000000c5     ....
8000570c:	0000006d     m...
80005710:	000000eb     ....
80005714:	0000007a     z...
80005718:	000000bf     ....
8000571c:	00000088     ....
80005720:	000000cc     ....
80005724:	00000052     R...
80005728:	000000da     ....
8000572c:	00000059     Y...
80005730:	00000095     ....
80005734:	0000008a     ....
80005738:	000000cf     ....
8000573c:	0000005b     [...
80005740:	000000d1     ....
80005744:	00000054     T...
80005748:	0000009b     ....
8000574c:	0000008c     ....
80005750:	000000ca     ....
80005754:	00000040     @...
80005758:	000000cc     ....
8000575c:	00000043     C...
80005760:	00000089     ....
80005764:	0000008e     ....
80005768:	000000c9     ....
8000576c:	00000049     I...
80005770:	000000c7     ....
80005774:	0000004e     N...
80005778:	00000087     ....
8000577c:	00000090     ....
80005780:	000000d8     ....
80005784:	0000003e     >...
80005788:	000000ae     ....
8000578c:	00000005     ....
80005790:	000000dd     ....
80005794:	00000092     ....
80005798:	000000db     ....
8000579c:	00000037     7...
800057a0:	000000a5     ....
800057a4:	00000008     ....
800057a8:	000000d3     ....
800057ac:	00000094     ....
800057b0:	000000de     ....
800057b4:	0000002c     ,...
800057b8:	000000b8     ....
800057bc:	0000001f     ....
800057c0:	000000c1     ....
800057c4:	00000096     ....
800057c8:	000000dd     ....
800057cc:	00000025     %...
800057d0:	000000b3     ....
800057d4:	00000012     ....
800057d8:	000000cf     ....
800057dc:	00000098     ....
800057e0:	000000d4     ....
800057e4:	0000001a     ....
800057e8:	00000082     ....
800057ec:	00000031     1...
800057f0:	000000e5     ....
800057f4:	0000009a     ....
800057f8:	000000d7     ....
800057fc:	00000013     ....
80005800:	00000089     ....
80005804:	0000003c     <...
80005808:	000000eb     ....
8000580c:	0000009c     ....
80005810:	000000d2     ....
80005814:	00000008     ....
80005818:	00000094     ....
8000581c:	0000002b     +...
80005820:	000000f9     ....
80005824:	0000009e     ....
80005828:	000000d1     ....
8000582c:	00000001     ....
80005830:	0000009f     ....
80005834:	00000026     &...
80005838:	000000f7     ....
8000583c:	000000a0     ....
80005840:	000000f0     ....
80005844:	000000e6     ....
80005848:	00000046     F...
8000584c:	000000bd     ....
80005850:	0000004d     M...
80005854:	000000a2     ....
80005858:	000000f3     ....
8000585c:	000000ef     ....
80005860:	0000004d     M...
80005864:	000000b0     ....
80005868:	00000043     C...
8000586c:	000000a4     ....
80005870:	000000f6     ....
80005874:	000000f4     ....
80005878:	00000050     P...
8000587c:	000000a7     ....
80005880:	00000051     Q...
80005884:	000000a6     ....
80005888:	000000f5     ....
8000588c:	000000fd     ....
80005890:	0000005b     [...
80005894:	000000aa     ....
80005898:	0000005f     _...
8000589c:	000000a8     ....
800058a0:	000000fc     ....
800058a4:	000000c2     ....
800058a8:	0000006a     j...
800058ac:	00000089     ....
800058b0:	00000075     u...
800058b4:	000000aa     ....
800058b8:	000000ff     ....
800058bc:	000000cb     ....
800058c0:	00000061     a...
800058c4:	00000084     ....
800058c8:	0000007b     {...
800058cc:	000000ac     ....
800058d0:	000000fa     ....
800058d4:	000000d0     ....
800058d8:	0000007c     |...
800058dc:	00000093     ....
800058e0:	00000069     i...
800058e4:	000000ae     ....
800058e8:	000000f9     ....
800058ec:	000000d9     ....
800058f0:	00000077     w...
800058f4:	0000009e     ....
800058f8:	00000067     g...
800058fc:	000000b0     ....
80005900:	000000e8     ....
80005904:	000000ae     ....
80005908:	0000001e     ....
8000590c:	000000d5     ....
80005910:	0000003d     =...
80005914:	000000b2     ....
80005918:	000000eb     ....
8000591c:	000000a7     ....
80005920:	00000015     ....
80005924:	000000d8     ....
80005928:	00000033     3...
8000592c:	000000b4     ....
80005930:	000000ee     ....
80005934:	000000bc     ....
80005938:	00000008     ....
8000593c:	000000cf     ....
80005940:	00000021     !...
80005944:	000000b6     ....
80005948:	000000ed     ....
8000594c:	000000b5     ....
80005950:	00000003     ....
80005954:	000000c2     ....
80005958:	0000002f     /...
8000595c:	000000b8     ....
80005960:	000000e4     ....
80005964:	0000008a     ....
80005968:	00000032     2...
8000596c:	000000e1     ....
80005970:	00000005     ....
80005974:	000000ba     ....
80005978:	000000e7     ....
8000597c:	00000083     ....
80005980:	00000039     9...
80005984:	000000ec     ....
80005988:	0000000b     ....
8000598c:	000000bc     ....
80005990:	000000e2     ....
80005994:	00000098     ....
80005998:	00000024     $...
8000599c:	000000fb     ....
800059a0:	00000019     ....
800059a4:	000000be     ....
800059a8:	000000e1     ....
800059ac:	00000091     ....
800059b0:	0000002f     /...
800059b4:	000000f6     ....
800059b8:	00000017     ....
800059bc:	000000c0     ....
800059c0:	000000a0     ....
800059c4:	0000004d     M...
800059c8:	0000008d     ....
800059cc:	000000d6     ....
800059d0:	00000076     v...
800059d4:	000000c2     ....
800059d8:	000000a3     ....
800059dc:	00000044     D...
800059e0:	00000086     ....
800059e4:	000000db     ....
800059e8:	00000078     x...
800059ec:	000000c4     ....
800059f0:	000000a6     ....
800059f4:	0000005f     _...
800059f8:	0000009b     ....
800059fc:	000000cc     ....
80005a00:	0000006a     j...
80005a04:	000000c6     ....
80005a08:	000000a5     ....
80005a0c:	00000056     V...
80005a10:	00000090     ....
80005a14:	000000c1     ....
80005a18:	00000064     d...
80005a1c:	000000c8     ....
80005a20:	000000ac     ....
80005a24:	00000069     i...
80005a28:	000000a1     ....
80005a2c:	000000e2     ....
80005a30:	0000004e     N...
80005a34:	000000ca     ....
80005a38:	000000af     ....
80005a3c:	00000060     `...
80005a40:	000000aa     ....
80005a44:	000000ef     ....
80005a48:	00000040     @...
80005a4c:	000000cc     ....
80005a50:	000000aa     ....
80005a54:	0000007b     {...
80005a58:	000000b7     ....
80005a5c:	000000f8     ....
80005a60:	00000052     R...
80005a64:	000000ce     ....
80005a68:	000000a9     ....
80005a6c:	00000072     r...
80005a70:	000000bc     ....
80005a74:	000000f5     ....
80005a78:	0000005c     \...
80005a7c:	000000d0     ....
80005a80:	000000b8     ....
80005a84:	00000005     ....
80005a88:	000000d5     ....
80005a8c:	000000be     ....
80005a90:	00000006     ....
80005a94:	000000d2     ....
80005a98:	000000bb     ....
80005a9c:	0000000c     ....
80005aa0:	000000de     ....
80005aa4:	000000b3     ....
80005aa8:	00000008     ....
80005aac:	000000d4     ....
80005ab0:	000000be     ....
80005ab4:	00000017     ....
80005ab8:	000000c3     ....
80005abc:	000000a4     ....
80005ac0:	0000001a     ....
80005ac4:	000000d6     ....
80005ac8:	000000bd     ....
80005acc:	0000001e     ....
80005ad0:	000000c8     ....
80005ad4:	000000a9     ....
80005ad8:	00000014     ....
80005adc:	000000d8     ....
80005ae0:	000000b4     ....
80005ae4:	00000021     !...
80005ae8:	000000f9     ....
80005aec:	0000008a     ....
80005af0:	0000003e     >...
80005af4:	000000da     ....
80005af8:	000000b7     ....
80005afc:	00000028     (...
80005b00:	000000f2     ....
80005b04:	00000087     ....
80005b08:	00000030     0...
80005b0c:	000000dc     ....
80005b10:	000000b2     ....
80005b14:	00000033     3...
80005b18:	000000ef     ....
80005b1c:	00000090     ....
80005b20:	00000022     "...
80005b24:	000000de     ....
80005b28:	000000b1     ....
80005b2c:	0000003a     :...
80005b30:	000000e4     ....
80005b34:	0000009d     ....
80005b38:	0000002c     ,...
80005b3c:	000000e0     ....
80005b40:	00000090     ....
80005b44:	000000dd     ....
80005b48:	0000003d     =...
80005b4c:	00000006     ....
80005b50:	00000096     ....
80005b54:	000000e2     ....
80005b58:	00000093     ....
80005b5c:	000000d4     ....
80005b60:	00000036     6...
80005b64:	0000000b     ....
80005b68:	00000098     ....
80005b6c:	000000e4     ....
80005b70:	00000096     ....
80005b74:	000000cf     ....
80005b78:	0000002b     +...
80005b7c:	0000001c     ....
80005b80:	0000008a     ....
80005b84:	000000e6     ....
80005b88:	00000095     ....
80005b8c:	000000c6     ....
80005b90:	00000020      ...
80005b94:	00000011     ....
80005b98:	00000084     ....
80005b9c:	000000e8     ....
80005ba0:	0000009c     ....
80005ba4:	000000f9     ....
80005ba8:	00000011     ....
80005bac:	00000032     2...
80005bb0:	000000ae     ....
80005bb4:	000000ea     ....
80005bb8:	0000009f     ....
80005bbc:	000000f0     ....
80005bc0:	0000001a     ....
80005bc4:	0000003f     ?...
80005bc8:	000000a0     ....
80005bcc:	000000ec     ....
80005bd0:	0000009a     ....
80005bd4:	000000eb     ....
80005bd8:	00000007     ....
80005bdc:	00000028     (...
80005be0:	000000b2     ....
80005be4:	000000ee     ....
80005be8:	00000099     ....
80005bec:	000000e2     ....
80005bf0:	0000000c     ....
80005bf4:	00000025     %...
80005bf8:	000000bc     ....
80005bfc:	000000f0     ....
80005c00:	00000088     ....
80005c04:	00000095     ....
80005c08:	00000065     e...
80005c0c:	0000006e     n...
80005c10:	000000e6     ....
80005c14:	000000f2     ....
80005c18:	0000008b     ....
80005c1c:	0000009c     ....
80005c20:	0000006e     n...
80005c24:	00000063     c...
80005c28:	000000e8     ....
80005c2c:	000000f4     ....
80005c30:	0000008e     ....
80005c34:	00000087     ....
80005c38:	00000073     s...
80005c3c:	00000074     t...
80005c40:	000000fa     ....
80005c44:	000000f6     ....
80005c48:	0000008d     ....
80005c4c:	0000008e     ....
80005c50:	00000078     x...
80005c54:	00000079     y...
80005c58:	000000f4     ....
80005c5c:	000000f8     ....
80005c60:	00000084     ....
80005c64:	000000b1     ....
80005c68:	00000049     I...
80005c6c:	0000005a     Z...
80005c70:	000000de     ....
80005c74:	000000fa     ....
80005c78:	00000087     ....
80005c7c:	000000b8     ....
80005c80:	00000042     B...
80005c84:	00000057     W...
80005c88:	000000d0     ....
80005c8c:	000000fc     ....
80005c90:	00000082     ....
80005c94:	000000a3     ....
80005c98:	0000005f     _...
80005c9c:	00000040     @...
80005ca0:	000000c2     ....
80005ca4:	000000fe     ....
80005ca8:	00000081     ....
80005cac:	000000aa     ....
80005cb0:	00000054     T...
80005cb4:	0000004d     M...
80005cb8:	000000cc     ....
80005cbc:	0000001b     ....
80005cc0:	0000009b     ....
80005cc4:	000000ec     ....
80005cc8:	000000f7     ....
80005ccc:	000000da     ....
80005cd0:	00000041     A...
80005cd4:	00000019     ....
80005cd8:	00000098     ....
80005cdc:	000000e5     ....
80005ce0:	000000fc     ....
80005ce4:	000000d7     ....
80005ce8:	0000004f     O...
80005cec:	0000001f     ....
80005cf0:	0000009d     ....
80005cf4:	000000fe     ....
80005cf8:	000000e1     ....
80005cfc:	000000c0     ....
80005d00:	0000005d     ]...
80005d04:	0000001d     ....
80005d08:	0000009e     ....
80005d0c:	000000f7     ....
80005d10:	000000ea     ....
80005d14:	000000cd     ....
80005d18:	00000053     S...
80005d1c:	00000013     ....
80005d20:	00000097     ....
80005d24:	000000c8     ....
80005d28:	000000db     ....
80005d2c:	000000ee     ....
80005d30:	00000079     y...
80005d34:	00000011     ....
80005d38:	00000094     ....
80005d3c:	000000c1     ....
80005d40:	000000d0     ....
80005d44:	000000e3     ....
80005d48:	00000077     w...
80005d4c:	00000017     ....
80005d50:	00000091     ....
80005d54:	000000da     ....
80005d58:	000000cd     ....
80005d5c:	000000f4     ....
80005d60:	00000065     e...
80005d64:	00000015     ....
80005d68:	00000092     ....
80005d6c:	000000d3     ....
80005d70:	000000c6     ....
80005d74:	000000f9     ....
80005d78:	0000006b     k...
80005d7c:	0000000b     ....
80005d80:	00000083     ....
80005d84:	000000a4     ....
80005d88:	000000af     ....
80005d8c:	000000b2     ....
80005d90:	00000031     1...
80005d94:	00000009     ....
80005d98:	00000080     ....
80005d9c:	000000ad     ....
80005da0:	000000a4     ....
80005da4:	000000bf     ....
80005da8:	0000003f     ?...
80005dac:	0000000f     ....
80005db0:	00000085     ....
80005db4:	000000b6     ....
80005db8:	000000b9     ....
80005dbc:	000000a8     ....
80005dc0:	0000002d     -...
80005dc4:	0000000d     ....
80005dc8:	00000086     ....
80005dcc:	000000bf     ....
80005dd0:	000000b2     ....
80005dd4:	000000a5     ....
80005dd8:	00000023     #...
80005ddc:	00000003     ....
80005de0:	0000008f     ....
80005de4:	00000080     ....
80005de8:	00000083     ....
80005dec:	00000086     ....
80005df0:	00000009     ....
80005df4:	00000001     ....
80005df8:	0000008c     ....
80005dfc:	00000089     ....
80005e00:	00000088     ....
80005e04:	0000008b     ....
80005e08:	00000007     ....
80005e0c:	00000007     ....
80005e10:	00000089     ....
80005e14:	00000092     ....
80005e18:	00000095     ....
80005e1c:	0000009c     ....
80005e20:	00000015     ....
80005e24:	00000005     ....
80005e28:	0000008a     ....
80005e2c:	0000009b     ....
80005e30:	0000009e     ....
80005e34:	00000091     ....
80005e38:	0000001b     ....
80005e3c:	0000003b     ;...
80005e40:	000000ab     ....
80005e44:	0000007c     |...
80005e48:	00000047     G...
80005e4c:	0000000a     ....
80005e50:	000000a1     ....
80005e54:	00000039     9...
80005e58:	000000a8     ....
80005e5c:	00000075     u...
80005e60:	0000004c     L...
80005e64:	00000007     ....
80005e68:	000000af     ....
80005e6c:	0000003f     ?...
80005e70:	000000ad     ....
80005e74:	0000006e     n...
80005e78:	00000051     Q...
80005e7c:	00000010     ....
80005e80:	000000bd     ....
80005e84:	0000003d     =...
80005e88:	000000ae     ....
80005e8c:	00000067     g...
80005e90:	0000005a     Z...
80005e94:	0000001d     ....
80005e98:	000000b3     ....
80005e9c:	00000033     3...
80005ea0:	000000a7     ....
80005ea4:	00000058     X...
80005ea8:	0000006b     k...
80005eac:	0000003e     >...
80005eb0:	00000099     ....
80005eb4:	00000031     1...
80005eb8:	000000a4     ....
80005ebc:	00000051     Q...
80005ec0:	00000060     `...
80005ec4:	00000033     3...
80005ec8:	00000097     ....
80005ecc:	00000037     7...
80005ed0:	000000a1     ....
80005ed4:	0000004a     J...
80005ed8:	0000007d     }...
80005edc:	00000024     $...
80005ee0:	00000085     ....
80005ee4:	00000035     5...
80005ee8:	000000a2     ....
80005eec:	00000043     C...
80005ef0:	00000076     v...
80005ef4:	00000029     )...
80005ef8:	0000008b     ....
80005efc:	0000002b     +...
80005f00:	000000b3     ....
80005f04:	00000034     4...
80005f08:	0000001f     ....
80005f0c:	00000062     b...
80005f10:	000000d1     ....
80005f14:	00000029     )...
80005f18:	000000b0     ....
80005f1c:	0000003d     =...
80005f20:	00000014     ....
80005f24:	0000006f     o...
80005f28:	000000df     ....
80005f2c:	0000002f     /...
80005f30:	000000b5     ....
80005f34:	00000026     &...
80005f38:	00000009     ....
80005f3c:	00000078     x...
80005f40:	000000cd     ....
80005f44:	0000002d     -...
80005f48:	000000b6     ....
80005f4c:	0000002f     /...
80005f50:	00000002     ....
80005f54:	00000075     u...
80005f58:	000000c3     ....
80005f5c:	00000023     #...
80005f60:	000000bf     ....
80005f64:	00000010     ....
80005f68:	00000033     3...
80005f6c:	00000056     V...
80005f70:	000000e9     ....
80005f74:	00000021     !...
80005f78:	000000bc     ....
80005f7c:	00000019     ....
80005f80:	00000038     8...
80005f84:	0000005b     [...
80005f88:	000000e7     ....
80005f8c:	00000027     '...
80005f90:	000000b9     ....
80005f94:	00000002     ....
80005f98:	00000025     %...
80005f9c:	0000004c     L...
80005fa0:	000000f5     ....
80005fa4:	00000025     %...
80005fa8:	000000ba     ....
80005fac:	0000000b     ....
80005fb0:	0000002e     ....
80005fb4:	00000041     A...
80005fb8:	000000fb     ....
80005fbc:	0000005b     [...
80005fc0:	000000fb     ....
80005fc4:	000000d7     ....
80005fc8:	0000008c     ....
80005fcc:	00000061     a...
80005fd0:	0000009a     ....
80005fd4:	00000059     Y...
80005fd8:	000000f8     ....
80005fdc:	000000de     ....
80005fe0:	00000087     ....
80005fe4:	0000006c     l...
80005fe8:	00000094     ....
80005fec:	0000005f     _...
80005ff0:	000000fd     ....
80005ff4:	000000c5     ....
80005ff8:	0000009a     ....
80005ffc:	0000007b     {...
80006000:	00000086     ....
80006004:	0000005d     ]...
80006008:	000000fe     ....
8000600c:	000000cc     ....
80006010:	00000091     ....
80006014:	00000076     v...
80006018:	00000088     ....
8000601c:	00000053     S...
80006020:	000000f7     ....
80006024:	000000f3     ....
80006028:	000000a0     ....
8000602c:	00000055     U...
80006030:	000000a2     ....
80006034:	00000051     Q...
80006038:	000000f4     ....
8000603c:	000000fa     ....
80006040:	000000ab     ....
80006044:	00000058     X...
80006048:	000000ac     ....
8000604c:	00000057     W...
80006050:	000000f1     ....
80006054:	000000e1     ....
80006058:	000000b6     ....
8000605c:	0000004f     O...
80006060:	000000be     ....
80006064:	00000055     U...
80006068:	000000f2     ....
8000606c:	000000e8     ....
80006070:	000000bd     ....
80006074:	00000042     B...
80006078:	000000b0     ....
8000607c:	0000004b     K...
80006080:	000000e3     ....
80006084:	0000009f     ....
80006088:	000000d4     ....
8000608c:	00000009     ....
80006090:	000000ea     ....
80006094:	00000049     I...
80006098:	000000e0     ....
8000609c:	00000096     ....
800060a0:	000000df     ....
800060a4:	00000004     ....
800060a8:	000000e4     ....
800060ac:	0000004f     O...
800060b0:	000000e5     ....
800060b4:	0000008d     ....
800060b8:	000000c2     ....
800060bc:	00000013     ....
800060c0:	000000f6     ....
800060c4:	0000004d     M...
800060c8:	000000e6     ....
800060cc:	00000084     ....
800060d0:	000000c9     ....
800060d4:	0000001e     ....
800060d8:	000000f8     ....
800060dc:	00000043     C...
800060e0:	000000ef     ....
800060e4:	000000bb     ....
800060e8:	000000f8     ....
800060ec:	0000003d     =...
800060f0:	000000d2     ....
800060f4:	00000041     A...
800060f8:	000000ec     ....
800060fc:	000000b2     ....
80006100:	000000f3     ....
80006104:	00000030     0...
80006108:	000000dc     ....
8000610c:	00000047     G...
80006110:	000000e9     ....
80006114:	000000a9     ....
80006118:	000000ee     ....
8000611c:	00000027     '...
80006120:	000000ce     ....
80006124:	00000045     E...
80006128:	000000ea     ....
8000612c:	000000a0     ....
80006130:	000000e5     ....
80006134:	0000002a     *...
80006138:	000000c0     ....
8000613c:	0000007b     {...
80006140:	000000cb     ....
80006144:	00000047     G...
80006148:	0000003c     <...
8000614c:	000000b1     ....
80006150:	0000007a     z...
80006154:	00000079     y...
80006158:	000000c8     ....
8000615c:	0000004e     N...
80006160:	00000037     7...
80006164:	000000bc     ....
80006168:	00000074     t...
8000616c:	0000007f     ....
80006170:	000000cd     ....
80006174:	00000055     U...
80006178:	0000002a     *...
8000617c:	000000ab     ....
80006180:	00000066     f...
80006184:	0000007d     }...
80006188:	000000ce     ....
8000618c:	0000005c     \...
80006190:	00000021     !...
80006194:	000000a6     ....
80006198:	00000068     h...
8000619c:	00000073     s...
800061a0:	000000c7     ....
800061a4:	00000063     c...
800061a8:	00000010     ....
800061ac:	00000085     ....
800061b0:	00000042     B...
800061b4:	00000071     q...
800061b8:	000000c4     ....
800061bc:	0000006a     j...
800061c0:	0000001b     ....
800061c4:	00000088     ....
800061c8:	0000004c     L...
800061cc:	00000077     w...
800061d0:	000000c1     ....
800061d4:	00000071     q...
800061d8:	00000006     ....
800061dc:	0000009f     ....
800061e0:	0000005e     ^...
800061e4:	00000075     u...
800061e8:	000000c2     ....
800061ec:	00000078     x...
800061f0:	0000000d     ....
800061f4:	00000092     ....
800061f8:	00000050     P...
800061fc:	0000006b     k...
80006200:	000000d3     ....
80006204:	0000000f     ....
80006208:	00000064     d...
8000620c:	000000d9     ....
80006210:	0000000a     ....
80006214:	00000069     i...
80006218:	000000d0     ....
8000621c:	00000006     ....
80006220:	0000006f     o...
80006224:	000000d4     ....
80006228:	00000004     ....
8000622c:	0000006f     o...
80006230:	000000d5     ....
80006234:	0000001d     ....
80006238:	00000072     r...
8000623c:	000000c3     ....
80006240:	00000016     ....
80006244:	0000006d     m...
80006248:	000000d6     ....
8000624c:	00000014     ....
80006250:	00000079     y...
80006254:	000000ce     ....
80006258:	00000018     ....
8000625c:	00000063     c...
80006260:	000000df     ....
80006264:	0000002b     +...
80006268:	00000048     H...
8000626c:	000000ed     ....
80006270:	00000032     2...
80006274:	00000061     a...
80006278:	000000dc     ....
8000627c:	00000022     "...
80006280:	00000043     C...
80006284:	000000e0     ....
80006288:	0000003c     <...
8000628c:	00000067     g...
80006290:	000000d9     ....
80006294:	00000039     9...
80006298:	0000005e     ^...
8000629c:	000000f7     ....
800062a0:	0000002e     ....
800062a4:	00000065     e...
800062a8:	000000da     ....
800062ac:	00000030     0...
800062b0:	00000055     U...
800062b4:	000000fa     ....
800062b8:	00000020      ...
800062bc:	0000009b     ....
800062c0:	0000005b     [...
800062c4:	0000009a     ....
800062c8:	00000001     ....
800062cc:	000000b7     ....
800062d0:	000000ec     ....
800062d4:	00000099     ....
800062d8:	00000058     X...
800062dc:	00000093     ....
800062e0:	0000000a     ....
800062e4:	000000ba     ....
800062e8:	000000e2     ....
800062ec:	0000009f     ....
800062f0:	0000005d     ]...
800062f4:	00000088     ....
800062f8:	00000017     ....
800062fc:	000000ad     ....
80006300:	000000f0     ....
80006304:	0000009d     ....
80006308:	0000005e     ^...
8000630c:	00000081     ....
80006310:	0000001c     ....
80006314:	000000a0     ....
80006318:	000000fe     ....
8000631c:	00000093     ....
80006320:	00000057     W...
80006324:	000000be     ....
80006328:	0000002d     -...
8000632c:	00000083     ....
80006330:	000000d4     ....
80006334:	00000091     ....
80006338:	00000054     T...
8000633c:	000000b7     ....
80006340:	00000026     &...
80006344:	0000008e     ....
80006348:	000000da     ....
8000634c:	00000097     ....
80006350:	00000051     Q...
80006354:	000000ac     ....
80006358:	0000003b     ;...
8000635c:	00000099     ....
80006360:	000000c8     ....
80006364:	00000095     ....
80006368:	00000052     R...
8000636c:	000000a5     ....
80006370:	00000030     0...
80006374:	00000094     ....
80006378:	000000c6     ....
8000637c:	0000008b     ....
80006380:	00000043     C...
80006384:	000000d2     ....
80006388:	00000059     Y...
8000638c:	000000df     ....
80006390:	0000009c     ....
80006394:	00000089     ....
80006398:	00000040     @...
8000639c:	000000db     ....
800063a0:	00000052     R...
800063a4:	000000d2     ....
800063a8:	00000092     ....
800063ac:	0000008f     ....
800063b0:	00000045     E...
800063b4:	000000c0     ....
800063b8:	0000004f     O...
800063bc:	000000c5     ....
800063c0:	00000080     ....
800063c4:	0000008d     ....
800063c8:	00000046     F...
800063cc:	000000c9     ....
800063d0:	00000044     D...
800063d4:	000000c8     ....
800063d8:	0000008e     ....
800063dc:	00000083     ....
800063e0:	0000004f     O...
800063e4:	000000f6     ....
800063e8:	00000075     u...
800063ec:	000000eb     ....
800063f0:	000000a4     ....
800063f4:	00000081     ....
800063f8:	0000004c     L...
800063fc:	000000ff     ....
80006400:	0000007e     ~...
80006404:	000000e6     ....
80006408:	000000aa     ....
8000640c:	00000087     ....
80006410:	00000049     I...
80006414:	000000e4     ....
80006418:	00000063     c...
8000641c:	000000f1     ....
80006420:	000000b8     ....
80006424:	00000085     ....
80006428:	0000004a     J...
8000642c:	000000ed     ....
80006430:	00000068     h...
80006434:	000000fc     ....
80006438:	000000b6     ....
8000643c:	000000bb     ....
80006440:	0000006b     k...
80006444:	0000000a     ....
80006448:	000000b1     ....
8000644c:	00000067     g...
80006450:	0000000c     ....
80006454:	000000b9     ....
80006458:	00000068     h...
8000645c:	00000003     ....
80006460:	000000ba     ....
80006464:	0000006a     j...
80006468:	00000002     ....
8000646c:	000000bf     ....
80006470:	0000006d     m...
80006474:	00000018     ....
80006478:	000000a7     ....
8000647c:	0000007d     }...
80006480:	00000010     ....
80006484:	000000bd     ....
80006488:	0000006e     n...
8000648c:	00000011     ....
80006490:	000000ac     ....
80006494:	00000070     p...
80006498:	0000001e     ....
8000649c:	000000b3     ....
800064a0:	00000067     g...
800064a4:	0000002e     ....
800064a8:	0000009d     ....
800064ac:	00000053     S...
800064b0:	00000034     4...
800064b4:	000000b1     ....
800064b8:	00000064     d...
800064bc:	00000027     '...
800064c0:	00000096     ....
800064c4:	0000005e     ^...
800064c8:	0000003a     :...
800064cc:	000000b7     ....
800064d0:	00000061     a...
800064d4:	0000003c     <...
800064d8:	0000008b     ....
800064dc:	00000049     I...
800064e0:	00000028     (...
800064e4:	000000b5     ....
800064e8:	00000062     b...
800064ec:	00000035     5...
800064f0:	00000080     ....
800064f4:	00000044     D...
800064f8:	00000026     &...
800064fc:	000000ab     ....
80006500:	00000073     s...
80006504:	00000042     B...
80006508:	000000e9     ....
8000650c:	0000000f     ....
80006510:	0000007c     |...
80006514:	000000a9     ....
80006518:	00000070     p...
8000651c:	0000004b     K...
80006520:	000000e2     ....
80006524:	00000002     ....
80006528:	00000072     r...
8000652c:	000000af     ....
80006530:	00000075     u...
80006534:	00000050     P...
80006538:	000000ff     ....
8000653c:	00000015     ....
80006540:	00000060     `...
80006544:	000000ad     ....
80006548:	00000076     v...
8000654c:	00000059     Y...
80006550:	000000f4     ....
80006554:	00000018     ....
80006558:	0000006e     n...
8000655c:	000000a3     ....
80006560:	0000007f     ....
80006564:	00000066     f...
80006568:	000000c5     ....
8000656c:	0000003b     ;...
80006570:	00000044     D...
80006574:	000000a1     ....
80006578:	0000007c     |...
8000657c:	0000006f     o...
80006580:	000000ce     ....
80006584:	00000036     6...
80006588:	0000004a     J...
8000658c:	000000a7     ....
80006590:	00000079     y...
80006594:	00000074     t...
80006598:	000000d3     ....
8000659c:	00000021     !...
800065a0:	00000058     X...
800065a4:	000000a5     ....
800065a8:	0000007a     z...
800065ac:	0000007d     }...
800065b0:	000000d8     ....
800065b4:	0000002c     ,...
800065b8:	00000056     V...
800065bc:	000000db     ....
800065c0:	0000003b     ;...
800065c4:	000000a1     ....
800065c8:	0000007a     z...
800065cc:	0000000c     ....
800065d0:	00000037     7...
800065d4:	000000d9     ....
800065d8:	00000038     8...
800065dc:	000000a8     ....
800065e0:	00000071     q...
800065e4:	00000001     ....
800065e8:	00000039     9...
800065ec:	000000df     ....
800065f0:	0000003d     =...
800065f4:	000000b3     ....
800065f8:	0000006c     l...
800065fc:	00000016     ....
80006600:	0000002b     +...
80006604:	000000dd     ....
80006608:	0000003e     >...
8000660c:	000000ba     ....
80006610:	00000067     g...
80006614:	0000001b     ....
80006618:	00000025     %...
8000661c:	000000d3     ....
80006620:	00000037     7...
80006624:	00000085     ....
80006628:	00000056     V...
8000662c:	00000038     8...
80006630:	0000000f     ....
80006634:	000000d1     ....
80006638:	00000034     4...
8000663c:	0000008c     ....
80006640:	0000005d     ]...
80006644:	00000035     5...
80006648:	00000001     ....
8000664c:	000000d7     ....
80006650:	00000031     1...
80006654:	00000097     ....
80006658:	00000040     @...
8000665c:	00000022     "...
80006660:	00000013     ....
80006664:	000000d5     ....
80006668:	00000032     2...
8000666c:	0000009e     ....
80006670:	0000004b     K...
80006674:	0000002f     /...
80006678:	0000001d     ....
8000667c:	000000cb     ....
80006680:	00000023     #...
80006684:	000000e9     ....
80006688:	00000022     "...
8000668c:	00000064     d...
80006690:	00000047     G...
80006694:	000000c9     ....
80006698:	00000020      ...
8000669c:	000000e0     ....
800066a0:	00000029     )...
800066a4:	00000069     i...
800066a8:	00000049     I...
800066ac:	000000cf     ....
800066b0:	00000025     %...
800066b4:	000000fb     ....
800066b8:	00000034     4...
800066bc:	0000007e     ~...
800066c0:	0000005b     [...
800066c4:	000000cd     ....
800066c8:	00000026     &...
800066cc:	000000f2     ....
800066d0:	0000003f     ?...
800066d4:	00000073     s...
800066d8:	00000055     U...
800066dc:	000000c3     ....
800066e0:	0000002f     /...
800066e4:	000000cd     ....
800066e8:	0000000e     ....
800066ec:	00000050     P...
800066f0:	0000007f     ....
800066f4:	000000c1     ....
800066f8:	0000002c     ,...
800066fc:	000000c4     ....
80006700:	00000005     ....
80006704:	0000005d     ]...
80006708:	00000071     q...
8000670c:	000000c7     ....
80006710:	00000029     )...
80006714:	000000df     ....
80006718:	00000018     ....
8000671c:	0000004a     J...
80006720:	00000063     c...
80006724:	000000c5     ....
80006728:	0000002a     *...
8000672c:	000000d6     ....
80006730:	00000013     ....
80006734:	00000047     G...
80006738:	0000006d     m...
8000673c:	000000fb     ....
80006740:	0000000b     ....
80006744:	00000031     1...
80006748:	000000ca     ....
8000674c:	000000dc     ....
80006750:	000000d7     ....
80006754:	000000f9     ....
80006758:	00000008     ....
8000675c:	00000038     8...
80006760:	000000c1     ....
80006764:	000000d1     ....
80006768:	000000d9     ....
8000676c:	000000ff     ....
80006770:	0000000d     ....
80006774:	00000023     #...
80006778:	000000dc     ....
8000677c:	000000c6     ....
80006780:	000000cb     ....
80006784:	000000fd     ....
80006788:	0000000e     ....
8000678c:	0000002a     *...
80006790:	000000d7     ....
80006794:	000000cb     ....
80006798:	000000c5     ....
8000679c:	000000f3     ....
800067a0:	00000007     ....
800067a4:	00000015     ....
800067a8:	000000e6     ....
800067ac:	000000e8     ....
800067b0:	000000ef     ....
800067b4:	000000f1     ....
800067b8:	00000004     ....
800067bc:	0000001c     ....
800067c0:	000000ed     ....
800067c4:	000000e5     ....
800067c8:	000000e1     ....
800067cc:	000000f7     ....
800067d0:	00000001     ....
800067d4:	00000007     ....
800067d8:	000000f0     ....
800067dc:	000000f2     ....
800067e0:	000000f3     ....
800067e4:	000000f5     ....
800067e8:	00000002     ....
800067ec:	0000000e     ....
800067f0:	000000fb     ....
800067f4:	000000ff     ....
800067f8:	000000fd     ....
800067fc:	000000eb     ....
80006800:	00000013     ....
80006804:	00000079     y...
80006808:	00000092     ....
8000680c:	000000b4     ....
80006810:	000000a7     ....
80006814:	000000e9     ....
80006818:	00000010     ....
8000681c:	00000070     p...
80006820:	00000099     ....
80006824:	000000b9     ....
80006828:	000000a9     ....
8000682c:	000000ef     ....
80006830:	00000015     ....
80006834:	0000006b     k...
80006838:	00000084     ....
8000683c:	000000ae     ....
80006840:	000000bb     ....
80006844:	000000ed     ....
80006848:	00000016     ....
8000684c:	00000062     b...
80006850:	0000008f     ....
80006854:	000000a3     ....
80006858:	000000b5     ....
8000685c:	000000e3     ....
80006860:	0000001f     ....
80006864:	0000005d     ]...
80006868:	000000be     ....
8000686c:	00000080     ....
80006870:	0000009f     ....
80006874:	000000e1     ....
80006878:	0000001c     ....
8000687c:	00000054     T...
80006880:	000000b5     ....
80006884:	0000008d     ....
80006888:	00000091     ....
8000688c:	000000e7     ....
80006890:	00000019     ....
80006894:	0000004f     O...
80006898:	000000a8     ....
8000689c:	0000009a     ....
800068a0:	00000083     ....
800068a4:	000000e5     ....
800068a8:	0000001a     ....
800068ac:	00000046     F...
800068b0:	000000a3     ....
800068b4:	00000097     ....
800068b8:	0000008d     ....

800068bc <start_print>:
800068bc:	6b736174     task
800068c0:	53454120      AES
800068c4:	414c5320      SLA
800068c8:	32204556     VE 2
800068cc:	0000000a     ....

800068d0 <config_print>:
800068d0:	76616c53     Slav
800068d4:	6f632065     e co
800068d8:	6769666e     nfig
800068dc:	74617275     urat
800068e0:	0a6e6f69     ion.
800068e4:	00000000     ....

800068e8 <myID_print>:
800068e8:	203e3e20      >> 
800068ec:	4920794d     My I
800068f0:	00203a44     D: .

800068f4 <operation_print>:
800068f4:	65704f0a     .Ope
800068f8:	69746172     rati
800068fc:	003a6e6f     on:.

80006900 <blocks_print>:
80006900:	636f6c42     Bloc
80006904:	003a736b     ks:.

80006908 <receiv_print>:
80006908:	65636572     rece
8000690c:	64657669     ived
80006910:	67736d20      msg
80006914:	0000203a     : ..

80006918 <encript_print>:
80006918:	72636e65     encr
8000691c:	0a747069     ipt.
80006920:	00000000     ....

80006924 <dencript_print>:
80006924:	636e6564     denc
80006928:	74706972     ript
8000692c:	0000000a     ....

80006930 <finish_print>:
80006930:	6b736174     task
80006934:	53454120      AES
80006938:	414c5320      SLA
8000693c:	32204556     VE 2
80006940:	6e696620      fin
80006944:	65687369     ishe
80006948:	00000a64     d...

8000694c <Rcon.1067>:
8000694c:	01000000     ....
80006950:	02000000     ....
80006954:	04000000     ....
80006958:	08000000     ....
8000695c:	10000000     ....
80006960:	20000000     ... 
80006964:	40000000     ...@
80006968:	80000000     ....
8000696c:	1b000000     ....
80006970:	36000000     ...6
80006974:	6c000000     ...l
80006978:	d8000000     ....
8000697c:	ab000000     ....
80006980:	4d000000     ...M
80006984:	9a000000     ....

80006988 <key.1152>:
80006988:	00000060     `...
8000698c:	0000003d     =...
80006990:	000000eb     ....
80006994:	00000010     ....
80006998:	00000015     ....
8000699c:	000000ca     ....
800069a0:	00000071     q...
800069a4:	000000be     ....
800069a8:	0000002b     +...
800069ac:	00000073     s...
800069b0:	000000ae     ....
800069b4:	000000f0     ....
800069b8:	00000085     ....
800069bc:	0000007d     }...
800069c0:	00000077     w...
800069c4:	00000081     ....
800069c8:	0000001f     ....
800069cc:	00000035     5...
800069d0:	0000002c     ,...
800069d4:	00000007     ....
800069d8:	0000003b     ;...
800069dc:	00000061     a...
800069e0:	00000008     ....
800069e4:	000000d7     ....
800069e8:	0000002d     -...
800069ec:	00000098     ....
800069f0:	00000010     ....
800069f4:	000000a3     ....
800069f8:	00000009     ....
800069fc:	00000014     ....
80006a00:	000000df     ....
80006a04:	000000f4     ....

80006a08 <id.1148>:
80006a08:	ffffffff     ....

80006a0c <flag.1147>:
80006a0c:	00000001     ....

Disassembly of section .bss:

80006a10 <theMessage>:
80006a10:	00000000     ....
80006a14:	00000000     ....
80006a18:	00000000     ....
80006a1c:	00000000     ....
80006a20:	00000000     ....
80006a24:	00000000     ....
80006a28:	00000000     ....
80006a2c:	00000000     ....
80006a30:	00000000     ....
80006a34:	00000000     ....
80006a38:	00000000     ....
80006a3c:	00000000     ....
80006a40:	00000000     ....
80006a44:	00000000     ....
80006a48:	00000000     ....
80006a4c:	00000000     ....
80006a50:	00000000     ....
80006a54:	00000000     ....
80006a58:	00000000     ....
80006a5c:	00000000     ....
80006a60:	00000000     ....
80006a64:	00000000     ....
80006a68:	00000000     ....
80006a6c:	00000000     ....
80006a70:	00000000     ....
80006a74:	00000000     ....
80006a78:	00000000     ....
80006a7c:	00000000     ....
80006a80:	00000000     ....
80006a84:	00000000     ....
80006a88:	00000000     ....
80006a8c:	00000000     ....
80006a90:	00000000     ....
80006a94:	00000000     ....
80006a98:	00000000     ....
80006a9c:	00000000     ....
80006aa0:	00000000     ....
80006aa4:	00000000     ....
80006aa8:	00000000     ....
80006aac:	00000000     ....
80006ab0:	00000000     ....
80006ab4:	00000000     ....
80006ab8:	00000000     ....
80006abc:	00000000     ....
80006ac0:	00000000     ....
80006ac4:	00000000     ....
80006ac8:	00000000     ....
80006acc:	00000000     ....
80006ad0:	00000000     ....
80006ad4:	00000000     ....
80006ad8:	00000000     ....
80006adc:	00000000     ....
80006ae0:	00000000     ....
80006ae4:	00000000     ....
80006ae8:	00000000     ....
80006aec:	00000000     ....
80006af0:	00000000     ....
80006af4:	00000000     ....
80006af8:	00000000     ....
80006afc:	00000000     ....
80006b00:	00000000     ....
80006b04:	00000000     ....
80006b08:	00000000     ....
80006b0c:	00000000     ....
80006b10:	00000000     ....
80006b14:	00000000     ....
80006b18:	00000000     ....
80006b1c:	00000000     ....
80006b20:	00000000     ....
80006b24:	00000000     ....
80006b28:	00000000     ....
80006b2c:	00000000     ....
80006b30:	00000000     ....
80006b34:	00000000     ....
80006b38:	00000000     ....
80006b3c:	00000000     ....
80006b40:	00000000     ....
80006b44:	00000000     ....
80006b48:	00000000     ....
80006b4c:	00000000     ....
80006b50:	00000000     ....
80006b54:	00000000     ....
80006b58:	00000000     ....
80006b5c:	00000000     ....
80006b60:	00000000     ....
80006b64:	00000000     ....
80006b68:	00000000     ....
80006b6c:	00000000     ....
80006b70:	00000000     ....
80006b74:	00000000     ....
80006b78:	00000000     ....
80006b7c:	00000000     ....
80006b80:	00000000     ....
80006b84:	00000000     ....
80006b88:	00000000     ....
80006b8c:	00000000     ....
80006b90:	00000000     ....
80006b94:	00000000     ....
80006b98:	00000000     ....
80006b9c:	00000000     ....
80006ba0:	00000000     ....
80006ba4:	00000000     ....
80006ba8:	00000000     ....
80006bac:	00000000     ....
80006bb0:	00000000     ....
80006bb4:	00000000     ....
80006bb8:	00000000     ....
80006bbc:	00000000     ....
80006bc0:	00000000     ....
80006bc4:	00000000     ....
80006bc8:	00000000     ....
80006bcc:	00000000     ....
80006bd0:	00000000     ....
80006bd4:	00000000     ....
80006bd8:	00000000     ....
80006bdc:	00000000     ....
80006be0:	00000000     ....
80006be4:	00000000     ....
80006be8:	00000000     ....
80006bec:	00000000     ....
80006bf0:	00000000     ....
80006bf4:	00000000     ....
80006bf8:	00000000     ....
80006bfc:	00000000     ....
80006c00:	00000000     ....
80006c04:	00000000     ....
80006c08:	00000000     ....
80006c0c:	00000000     ....
80006c10:	00000000     ....

80006c14 <temp.1066>:
80006c14:	00000000     ....

80006c18 <col.1101>:
80006c18:	00000000     ....
80006c1c:	00000000     ....
80006c20:	00000000     ....
80006c24:	00000000     ....

80006c28 <col.1105>:
80006c28:	00000000     ....
80006c2c:	00000000     ....
80006c30:	00000000     ....
80006c34:	00000000     ....

80006c38 <state.1112>:
80006c38:	00000000     ....
80006c3c:	00000000     ....
80006c40:	00000000     ....
80006c44:	00000000     ....
80006c48:	00000000     ....
80006c4c:	00000000     ....
80006c50:	00000000     ....
80006c54:	00000000     ....
80006c58:	00000000     ....
80006c5c:	00000000     ....
80006c60:	00000000     ....
80006c64:	00000000     ....
80006c68:	00000000     ....
80006c6c:	00000000     ....
80006c70:	00000000     ....
80006c74:	00000000     ....

80006c78 <state.1119>:
80006c78:	00000000     ....
80006c7c:	00000000     ....
80006c80:	00000000     ....
80006c84:	00000000     ....
80006c88:	00000000     ....
80006c8c:	00000000     ....
80006c90:	00000000     ....
80006c94:	00000000     ....
80006c98:	00000000     ....
80006c9c:	00000000     ....
80006ca0:	00000000     ....
80006ca4:	00000000     ....
80006ca8:	00000000     ....
80006cac:	00000000     ....
80006cb0:	00000000     ....
80006cb4:	00000000     ....

80006cb8 <key_schedule.1143>:
80006cb8:	00000000     ....
80006cbc:	00000000     ....
80006cc0:	00000000     ....
80006cc4:	00000000     ....
80006cc8:	00000000     ....
80006ccc:	00000000     ....
80006cd0:	00000000     ....
80006cd4:	00000000     ....
80006cd8:	00000000     ....
80006cdc:	00000000     ....
80006ce0:	00000000     ....
80006ce4:	00000000     ....
80006ce8:	00000000     ....
80006cec:	00000000     ....
80006cf0:	00000000     ....
80006cf4:	00000000     ....
80006cf8:	00000000     ....
80006cfc:	00000000     ....
80006d00:	00000000     ....
80006d04:	00000000     ....
80006d08:	00000000     ....
80006d0c:	00000000     ....
80006d10:	00000000     ....
80006d14:	00000000     ....
80006d18:	00000000     ....
80006d1c:	00000000     ....
80006d20:	00000000     ....
80006d24:	00000000     ....
80006d28:	00000000     ....
80006d2c:	00000000     ....
80006d30:	00000000     ....
80006d34:	00000000     ....
80006d38:	00000000     ....
80006d3c:	00000000     ....
80006d40:	00000000     ....
80006d44:	00000000     ....
80006d48:	00000000     ....
80006d4c:	00000000     ....
80006d50:	00000000     ....
80006d54:	00000000     ....
80006d58:	00000000     ....
80006d5c:	00000000     ....
80006d60:	00000000     ....
80006d64:	00000000     ....
80006d68:	00000000     ....
80006d6c:	00000000     ....
80006d70:	00000000     ....
80006d74:	00000000     ....
80006d78:	00000000     ....
80006d7c:	00000000     ....
80006d80:	00000000     ....
80006d84:	00000000     ....
80006d88:	00000000     ....
80006d8c:	00000000     ....
80006d90:	00000000     ....
80006d94:	00000000     ....
80006d98:	00000000     ....
80006d9c:	00000000     ....
80006da0:	00000000     ....
80006da4:	00000000     ....

80006da8 <input_text.1151>:
80006da8:	00000000     ....
80006dac:	00000000     ....
80006db0:	00000000     ....
80006db4:	00000000     ....
80006db8:	00000000     ....
80006dbc:	00000000     ....
80006dc0:	00000000     ....
80006dc4:	00000000     ....
80006dc8:	00000000     ....
80006dcc:	00000000     ....
80006dd0:	00000000     ....
80006dd4:	00000000     ....
80006dd8:	00000000     ....
80006ddc:	00000000     ....
80006de0:	00000000     ....
80006de4:	00000000     ....

80006de8 <i.1149>:
80006de8:	00000000     ....

80006dec <op_mode.1145>:
80006dec:	00000000     ....

80006df0 <qtd_messages.1144>:
80006df0:	00000000     ....

80006df4 <x.1146>:
80006df4:	00000000     ....

80006df8 <enc_buf.1150>:
80006df8:	00000000     ....
80006dfc:	00000000     ....
80006e00:	00000000     ....
80006e04:	00000000     ....
80006e08:	00000000     ....
80006e0c:	00000000     ....
80006e10:	00000000     ....
80006e14:	00000000     ....
80006e18:	00000000     ....
80006e1c:	00000000     ....
80006e20:	00000000     ....
80006e24:	00000000     ....
80006e28:	00000000     ....
80006e2c:	00000000     ....
80006e30:	00000000     ....
80006e34:	00000000     ....
80006e38:	00000000     ....
80006e3c:	00000000     ....
80006e40:	00000000     ....
80006e44:	00000000     ....
80006e48:	00000000     ....
80006e4c:	00000000     ....
80006e50:	00000000     ....
80006e54:	00000000     ....
80006e58:	00000000     ....
80006e5c:	00000000     ....
80006e60:	00000000     ....
80006e64:	00000000     ....
80006e68:	00000000     ....
80006e6c:	00000000     ....
80006e70:	00000000     ....
80006e74:	00000000     ....
80006e78:	00000000     ....
80006e7c:	00000000     ....
80006e80:	00000000     ....
80006e84:	00000000     ....
80006e88:	00000000     ....
80006e8c:	00000000     ....
80006e90:	00000000     ....
80006e94:	00000000     ....
80006e98:	00000000     ....
80006e9c:	00000000     ....
80006ea0:	00000000     ....
80006ea4:	00000000     ....
80006ea8:	00000000     ....
80006eac:	00000000     ....
80006eb0:	00000000     ....
80006eb4:	00000000     ....
80006eb8:	00000000     ....
80006ebc:	00000000     ....
80006ec0:	00000000     ....
80006ec4:	00000000     ....
80006ec8:	00000000     ....
80006ecc:	00000000     ....
80006ed0:	00000000     ....
80006ed4:	00000000     ....
80006ed8:	00000000     ....
80006edc:	00000000     ....
80006ee0:	00000000     ....
80006ee4:	00000000     ....
80006ee8:	00000000     ....
80006eec:	00000000     ....
80006ef0:	00000000     ....
80006ef4:	00000000     ....
80006ef8:	00000000     ....
80006efc:	00000000     ....
80006f00:	00000000     ....
80006f04:	00000000     ....
80006f08:	00000000     ....
80006f0c:	00000000     ....
80006f10:	00000000     ....
80006f14:	00000000     ....
80006f18:	00000000     ....
80006f1c:	00000000     ....
80006f20:	00000000     ....
80006f24:	00000000     ....
80006f28:	00000000     ....
80006f2c:	00000000     ....
80006f30:	00000000     ....
80006f34:	00000000     ....
80006f38:	00000000     ....
80006f3c:	00000000     ....
80006f40:	00000000     ....
80006f44:	00000000     ....
80006f48:	00000000     ....
80006f4c:	00000000     ....
80006f50:	00000000     ....
80006f54:	00000000     ....
80006f58:	00000000     ....
80006f5c:	00000000     ....
80006f60:	00000000     ....
80006f64:	00000000     ....
80006f68:	00000000     ....
80006f6c:	00000000     ....
80006f70:	00000000     ....
80006f74:	00000000     ....
80006f78:	00000000     ....
80006f7c:	00000000     ....
80006f80:	00000000     ....
80006f84:	00000000     ....
80006f88:	00000000     ....
80006f8c:	00000000     ....
80006f90:	00000000     ....
80006f94:	00000000     ....
80006f98:	00000000     ....
80006f9c:	00000000     ....
80006fa0:	00000000     ....
80006fa4:	00000000     ....
80006fa8:	00000000     ....
80006fac:	00000000     ....
80006fb0:	00000000     ....
80006fb4:	00000000     ....
80006fb8:	00000000     ....
80006fbc:	00000000     ....
80006fc0:	00000000     ....
80006fc4:	00000000     ....
80006fc8:	00000000     ....
80006fcc:	00000000     ....
80006fd0:	00000000     ....
80006fd4:	00000000     ....
80006fd8:	00000000     ....
80006fdc:	00000000     ....
80006fe0:	00000000     ....
80006fe4:	00000000     ....
80006fe8:	00000000     ....
80006fec:	00000000     ....
80006ff0:	00000000     ....
80006ff4:	00000000     ....
