
miv-rv32im-freertos-port-test.elf:     file format elf32-littleriscv
miv-rv32im-freertos-port-test.elf
architecture: riscv:rv32, flags 0x00000112:
EXEC_P, HAS_SYMS, D_PAGED
start address 0x80000000

Program Header:
    LOAD off    0x00001000 vaddr 0x80000000 paddr 0x80000000 align 2**12
         filesz 0x00009630 memsz 0x00046f90 flags rwx

Sections:
Idx Name           Size      VMA       LMA       File off  Algn  Flags
  0 .text          00009530  80000000  80000000  00001000  2**4  CONTENTS, ALLOC, LOAD, READONLY, CODE
  1 .sdata         00000020  80009530  80009530  0000a530  2**4  CONTENTS, ALLOC, LOAD, DATA
  2 .data          000000e0  80009550  80009550  0000a550  2**4  CONTENTS, ALLOC, LOAD, DATA
  3 .sbss          000000a0  80009630  80009630  0000a630  2**4  ALLOC
  4 .bss           0001d8c0  800096d0  800096d0  0000a630  2**4  ALLOC
  5 .heap          00010000  80026f90  80026f90  0000a630  2**4  ALLOC
  6 .stack         00010000  80036f90  80036f90  0000a630  2**4  ALLOC
  7 .debug_line    0000c614  00000000  00000000  0000a630  2**0  CONTENTS, READONLY, DEBUGGING
  8 .debug_info    00011123  00000000  00000000  00016c44  2**0  CONTENTS, READONLY, DEBUGGING
  9 .debug_abbrev  00002fcc  00000000  00000000  00027d67  2**0  CONTENTS, READONLY, DEBUGGING
 10 .debug_aranges 000009d0  00000000  00000000  0002ad38  2**3  CONTENTS, READONLY, DEBUGGING
 11 .debug_str     000134db  00000000  00000000  0002b708  2**0  CONTENTS, READONLY, DEBUGGING
 12 .debug_ranges  00000898  00000000  00000000  0003ebe3  2**0  CONTENTS, READONLY, DEBUGGING
 13 .debug_macro   00005c73  00000000  00000000  0003f47b  2**0  CONTENTS, READONLY, DEBUGGING
 14 .comment       00000039  00000000  00000000  000450ee  2**0  CONTENTS, READONLY
 15 .debug_frame   00002430  00000000  00000000  00045128  2**2  CONTENTS, READONLY, DEBUGGING
SYMBOL TABLE:
80000000 l    d  .text	00000000 .text
80009530 l    d  .sdata	00000000 .sdata
80009550 l    d  .data	00000000 .data
80009630 l    d  .sbss	00000000 .sbss
800096d0 l    d  .bss	00000000 .bss
80026f90 l    d  .heap	00000000 .heap
80036f90 l    d  .stack	00000000 .stack
00000000 l    d  .debug_line	00000000 .debug_line
00000000 l    d  .debug_info	00000000 .debug_info
00000000 l    d  .debug_abbrev	00000000 .debug_abbrev
00000000 l    d  .debug_aranges	00000000 .debug_aranges
00000000 l    d  .debug_str	00000000 .debug_str
00000000 l    d  .debug_ranges	00000000 .debug_ranges
00000000 l    d  .debug_macro	00000000 .debug_macro
00000000 l    d  .comment	00000000 .comment
00000000 l    d  .debug_frame	00000000 .debug_frame
00000000 l    df *ABS*	00000000 ./riscv_hal/entry.o
8000000c l       .text	00000000 handle_reset
80000004 l       .text	00000000 nmi_vector
80000008 l       .text	00000000 trap_vector
80000030 l       .text	00000000 trap_entry
00000000 l    df *ABS*	00000000 init.c
80000180 l     F .text	00000050 zero_section
00000000 l    df *ABS*	00000000 riscv_hal.c
80000258 l     F .text	000000b8 PLIC_DisableIRQ
80000310 l     F .text	00000044 PLIC_ClaimIRQ
80000354 l     F .text	0000004c PLIC_CompleteIRQ
80009630 l     O .sbss	00000008 g_systick_increment
00000000 l    df *ABS*	00000000 riscv_hal_stubs.c
00000000 l    df *ABS*	00000000 syscall.c
80009638 l     O .sbss	00000008 g_stdio_uart
80009640 l     O .sbss	00000004 g_stdio_uart_init_done
80000e3c l     F .text	00000030 stub
00000000 l    df *ABS*	00000000 core_uart_apb.c
00000000 l    df *ABS*	00000000 heap_2.c
800096d0 l     O .bss	00019000 ucHeap
80009644 l     O .sbss	00000008 xStart
8000964c l     O .sbss	00000008 xEnd
80009530 l     O .sdata	00000004 xFreeBytesRemaining
80009654 l     O .sbss	00000004 xHeapHasBeenInitialised.2777
80001550 l     F .text	00000074 prvHeapInit
00000000 l    df *ABS*	00000000 port.c
800015c4 l     F .text	0000004c raise_soft_interrupt
80009534 l     O .sdata	00000004 uxCriticalNesting
80009538 l     O .sdata	00000004 mtime
8000953c l     O .sdata	00000004 mtimecmp
80001684 l     F .text	000000cc prvSetNextTimerInterrupt
8000181c l     F .text	0000002c prvTaskExitError
00000000 l    df *ABS*	00000000 list.c
00000000 l    df *ABS*	00000000 string.c
00000000 l    df *ABS*	00000000 tasks.c
800226d0 l     O .bss	00000064 pxReadyTasksLists
80022734 l     O .bss	00000014 xDelayedTaskList1
80022748 l     O .bss	00000014 xDelayedTaskList2
80009660 l     O .sbss	00000004 pxDelayedTaskList
80009664 l     O .sbss	00000004 pxOverflowDelayedTaskList
8002275c l     O .bss	00000014 xPendingReadyList
80022770 l     O .bss	00000014 xTasksWaitingTermination
80009668 l     O .sbss	00000004 uxTasksDeleted
80022784 l     O .bss	00000014 xSuspendedTaskList
8000966c l     O .sbss	00000004 uxCurrentNumberOfTasks
80009670 l     O .sbss	00000004 xTickCount
80009674 l     O .sbss	00000004 uxTopReadyPriority
80009678 l     O .sbss	00000004 xSchedulerRunning
8000967c l     O .sbss	00000004 uxPendedTicks
80009680 l     O .sbss	00000004 xYieldPending
80009684 l     O .sbss	00000004 xNumOfOverflows
80009688 l     O .sbss	00000004 uxTaskNumber
8000968c l     O .sbss	00000004 xNextTaskUnblockTime
80009690 l     O .sbss	00000004 uxSchedulerSuspended
80002eb0 l     F .text	000000c0 prvAllocateTCBAndStack
80002b90 l     F .text	00000138 prvInitialiseTCBVariables
80002cc8 l     F .text	000000c0 prvInitialiseTaskLists
80002fb0 l     F .text	00000060 prvResetNextTaskUnblockTime
80002e28 l     F .text	00000088 prvAddCurrentTaskToDelayedList
80002394 l     F .text	0000009c prvTaskIsTaskSuspended
80002b5c l     F .text	00000034 prvIdleTask
80002d88 l     F .text	000000a0 prvCheckTasksWaitingTermination
80002f70 l     F .text	00000040 prvDeleteTCB
00000000 l    df *ABS*	00000000 globalMaster.c
00000000 l    df *ABS*	00000000 applications.c
00000000 l    df *ABS*	00000000 packet.c
00000000 l    df *ABS*	00000000 dvfs.c
00000000 l    df *ABS*	00000000 thermal.c
00000000 l    df *ABS*	00000000 chronos.c
80006294 l     F .text	000000b4 PLIC_EnableIRQ
80006348 l     F .text	0000003c PLIC_SetPriority
00000000 l    df *ABS*	00000000 main.c
80007be8 l     F .text	000000d0 PLIC_init
80007e9c l     F .text	00000830 vNI_RX_HandlerTask
800086cc l     F .text	00000070 vNI_TX_HandlerTask
8000873c l     F .text	00000054 vNI_TMR_HandlerTask
80008790 l     F .text	000000b4 GlobalManagerTask
00000000 l    df *ABS*	00000000 syswrite.c
00000000 l    df *ABS*	00000000 writer.c
00000000 l    df *ABS*	00000000 impure.c
800095d0 l     O .data	00000060 impure_data
80009698 g     O .sbss	00000004 eastFlits_last
80001870 g     F .text	0000002c vPortSetInterruptMask
800096a0 g     O .sbss	00000004 westFlits_last
80008e0c g     O .text	0000000c readEnergyMemory
80001644 g     F .text	00000040 vPortExitCritical
00010000 g       *ABS*	00000000 STACK_SIZE
80026f74 g     O .bss	00000004 memFlits
80022798 g     O .bss	00000004 SendingSlot
80000a14  w    F .text	00000020 External_11_IRQHandler
80009d30 g       .sdata	00000000 __global_pointer$
80006524 g     F .text	00000048 printsv
800096b4 g     O .sbss	00000004 southPackets_last
80009550 g       *ABS*	00000000 __data_load
80001930 g     F .text	000000e4 SysTick_Handler
80000954  w    F .text	00000020 External_5_IRQHandler
80005384 g     F .text	0000010c API_PipeInitialization
800036f8 g     F .text	00000128 API_TilesReset
8000101c g       .text	00000000 HW_get_8bit_reg_field
80003038 g     F .text	0000003c vTaskEnterCritical
80006860 g     F .text	00000080 reverse
80008e30 g     O .text	0000000c loadStoreDyn
80007b5c g     F .text	00000070 API_AddPendingReq
80022d90 g     O .bss	00000040 priorityMatrix
8000585c g     F .text	00000110 API_checkPipe
8000965c g     O .sbss	00000004 pxCurrentTCB
80009630 g       .sbss	00000000 __sbss_start
80006384 g     F .text	000000f4 Chronos_init
80005994 g     F .text	0000002c API_setFreqScale
80022d8c g     O .bss	00000004 errno
8002279c g     O .bss	000000f0 ServicePipe
80000f54 g       .text	00000000 HW_set_32bit_reg
80008e24 g     O .text	0000000c arithDyn
80000b34  w    F .text	00000020 External_20_IRQHandler
8002288c g     O .bss	00000004 NI_RX_Handler
80001a14 g     F .text	00000044 xPortStartScheduler
800003a0 g     F .text	00000024 __enable_irq
80001f2c g     F .text	0000021c xTaskGenericCreate
80005690 g     F .text	000000b4 API_GetServiceSlot
80009530 g       .sdata	00000000 __sdata_start
80001484 g     F .text	000000cc vPortFree
80022890 g     O .bss	00000004 messageID
80006ac0 g     F .text	000000c4 API_PushSendQueue
80026f78 g     O .bss	00000008 g_uart
80000ff4 g       .text	00000000 HW_set_8bit_reg_field
80000bf4  w    F .text	00000020 External_26_IRQHandler
800007a4 g     F .text	00000170 handle_trap
80003614 g     F .text	00000084 API_GetApplicationFreeSlot
80001c00 g     F .text	00000088 vListInsertEnd
80005c04 g     F .text	000000a4 getNumberOfPorts
00080000 g       *ABS*	00000000 RAM_SIZE
800009f4  w    F .text	00000020 External_10_IRQHandler
80022dd0 g     O .bss	00000780 applications
80022894 g     O .bss	00000240 ServiceMessage
800096c0 g     O .sbss	00000004 API_SystemFinish
800064e8 g     F .text	0000003c printi
8000251c g     F .text	00000118 xTaskResumeFromISR
8000969c g     O .sbss	00000004 eastPackets_last
80001bd8 g     F .text	00000028 vListInitialiseItem
80007bcc g     F .text	0000001c API_NI_Handler
80001848 g     F .text	00000028 vPortClearInterruptMask
80000c74  w    F .text	00000020 External_30_IRQHandler
800096a4 g     O .sbss	00000004 westPackets_last
80000ad4  w    F .text	00000020 External_17_IRQHandler
80036f90 g       .heap	00000000 _heap_end
80000dec g     F .text	00000050 _isatty
80026f90 g       .bss	00000000 __bss_end
80000510 g     F .text	00000294 handle_syscall
80003430 g     F .text	000001e4 API_AddApplication
800012a8 g     F .text	000001dc pvPortMalloc
80005490 g     F .text	00000200 API_GetMessageSlot
80003bf4 g     F .text	000003d0 API_DealocateTask
800001d0 g     F .text	0000006c _init
80001b74 g     F .text	00000064 vListInitialise
80000fe4 g       .text	00000000 HW_set_8bit_reg
80000fec g       .text	00000000 HW_get_8bit_reg
8000284c g     F .text	00000038 xTaskGetTickCount
80023550 g     O .bss	00000004 temperatureUpdated
8000391c g     F .text	000002d8 API_AllocateTasks
80004aa4 g     F .text	000000a8 API_TaskListInit
80004c80 g     F .text	000002a4 API_TaskAllocation
800096ac g     O .sbss	00000004 northPackets_last
80004254 g     F .text	00000140 API_ClearTaskSlotFromTile
80004c00 g     F .text	00000080 API_GetFreeTaskSlot
80005bb0 g     F .text	00000054 resetExecutedInstructions
800096d0 g       .sbss	00000000 __sbss_end
80004ffc g     F .text	000000d4 API_TaskStart
80000f64 g       .text	00000000 HW_set_32bit_reg_field
80008844 g     F .text	0000001c write
80004638 g     F .text	00000068 API_TaskAllocated
80007e6c g     F .text	00000014 vApplicationMallocFailedHook
80000bd4  w    F .text	00000020 External_25_IRQHandler
80005ca8 g     F .text	0000026c estimateNoCActivity
80046f90 g       .stack	00000000 __stack_top
80000c54  w    F .text	00000020 External_29_IRQHandler
800096a8 g     O .sbss	00000004 northFlits_last
80022ad4 g     O .bss	00000034 incommingPacket
80002148 g     F .text	000000dc vTaskDelete
800011f8 g     F .text	000000b0 UART_polled_tx_string
80026f70 g     O .bss	00000004 selectedFrequencyScale
80000cb4 g     F .text	000000e8 write_hex
80000a54  w    F .text	00000020 External_13_IRQHandler
800066d0 g     F .text	0000006c External_2_IRQHandler
00010000 g       *ABS*	00000000 HEAP_SIZE
80000a34  w    F .text	00000020 External_12_IRQHandler
80009694 g     O .sbss	00000004 thermalPacket_pending
80006a80 g     F .text	00000040 makeAddress
80001144 g     F .text	000000b4 UART_send
800030c4 g     F .text	000000f4 ulTaskNotifyTake
80006620 g     F .text	0000004c SendRaw
80000000 g       .text	00000000 _start
8000596c g     F .text	00000028 API_setFreqIdle
800026c4 g     F .text	00000028 vTaskSuspendAll
80006c68 g     F .text	000000a0 API_PopSendQueue
800048e4 g     F .text	000001c0 API_StartTasks
800003c4 g     F .text	000000a8 handle_m_timer_interrupt
80006478 g     F .text	00000070 prints
80001d5c g     F .text	00000098 uxListRemove
800046a0 g     F .text	00000244 API_ApplicationStart
8000666c g     F .text	00000064 NI_enable_irq
80009530 g       *ABS*	00000000 __sdata_load
80009630 g       .data	00000000 __data_end
80002430 g     F .text	000000ec vTaskResume
80002a70 g     F .text	000000ec vTaskSwitchContext
80000af4  w    F .text	00000020 External_18_IRQHandler
80000f8c g       .text	00000000 HW_get_32bit_reg_field
80008ddc g     O .text	0000000c powerAvgBufferIdle
800068e0 g     F .text	000001a0 myItoa
800022a8 g     F .text	000000ec vTaskSuspend
80000b74  w    F .text	00000020 External_22_IRQHandler
80000a94  w    F .text	00000020 External_15_IRQHandler
80001b4c g     F .text	00000028 vPortYield
80004b4c g     F .text	000000b4 API_GetCurrentTaskSlot
80000000 g       *ABS*	00000000 RAM_START_ADDRESS
800096d0 g       .bss	00000000 __bss_start
80023658 g     O .bss	00003918 TaskList
80000ab4  w    F .text	00000020 External_16_IRQHandler
80001df4 g     F .text	000000e8 memset
80007cb8 g     F .text	000001b4 main
80006814 g     F .text	0000004c mySwap
800059f4 g     F .text	00000054 API_applyFreqScale
80001c88 g     F .text	000000d4 vListInsert
80000c34  w    F .text	00000020 External_28_IRQHandler
80007938 g     F .text	00000224 API_CheckMessagePipe
80006b84 g     F .text	000000e4 API_PrioritySend
80003698 g     F .text	00000060 API_ApplicationsReset
80003010 g     F .text	00000028 xTaskGetCurrentTaskHandle
80000fa4 g       .text	00000000 HW_get_16bit_reg
80009550 g       .sdata	00000000 __sdata_end
800050d0 g     F .text	000002b4 API_FinishRunningTask
80008e00 g     O .text	0000000c powerSwitchControlActive
80036f90 g       .heap	00000000 __heap_end
80000a74  w    F .text	00000020 External_14_IRQHandler
800040f8 g     F .text	0000015c API_GetTaskSlotFromTile
80003fc4 g     F .text	00000134 getNextPriorityAddr
800096b0 g     O .sbss	00000004 southFlits_last
80004480 g     F .text	000001b8 API_RepositoryAllocation
8000023c g     F .text	0000001c _fini
800026ec g     F .text	00000160 xTaskResumeAll
80002634 g     F .text	00000090 vTaskStartScheduler
800070b0 g     F .text	00000450 API_SendMessage
80009550 g     O .data	00000080 ext_irq_handler_table
80022b08 g     O .bss	00000020 SendingQueue
80008860 g     F .text	00000054 _write_r
80000fac g       .text	00000000 HW_set_16bit_reg_field
80006f40 g     F .text	00000170 API_AckTaskAllocation
80022b28 g     O .bss	00000004 SendingQueue_tail
80009540 g     O .sdata	00000004 _impure_ptr
80036f90 g       .stack	00000000 __stack_bottom
80001a58 g     F .text	000000f4 Software_IRQHandler
80005a48 g     F .text	00000168 API_freqStepUp
80005744 g     F .text	00000118 API_ClearPipeSlot
80000c14  w    F .text	00000020 External_27_IRQHandler
80022b2c g     O .bss	00000240 ThermalPacket
800009b4  w    F .text	00000020 External_8_IRQHandler
800009d4  w    F .text	00000020 External_9_IRQHandler
80026f90 g       .heap	00000000 __heap_start
80000914  w    F .text	00000020 Invalid_IRQHandler
80008de8 g     O .text	0000000c powerSwitchControlIdle
80006d08 g     F .text	00000238 API_Try2Send
8000673c g     F .text	0000006c External_3_IRQHandler
80002884 g     F .text	000001ec xTaskIncrementTick
80008e18 g     O .text	0000000c writeEnergyMemory
80004f24 g     F .text	000000d8 API_GetTaskSlot
80009658 g     O .sbss	00000004 g_startscheduler
800065f8 g     F .text	00000028 getYpos
80000b14  w    F .text	00000020 External_19_IRQHandler
80000e6c g     F .text	000000e8 _write
800065cc g     F .text	0000002c getXpos
80026f90 g       .bss	00000000 _end
80001750 g     F .text	000000cc vPortSetupTimer
80023554 g     O .bss	00000040 SystemTemperature
800059c0 g     F .text	00000034 API_getFreqScale
80022d6c g     O .bss	00000014 str
80022d80 g     O .bss	00000004 NI_TX_Handler
80022d84 g     O .bss	00000004 SendingQueue_front
80003310 g     F .text	00000120 API_RepositoryWakeUp
8000656c g     F .text	00000060 printsvsv
80002224 g     F .text	00000084 vTaskDelay
8000102c g     F .text	00000118 UART_init
80000f5c g       .text	00000000 HW_get_32bit_reg
80022d88 g     O .bss	00000004 NI_TMR_Handler
80008df4 g     O .text	0000000c powerAvgBufferActive
80000d9c g     F .text	00000050 _exit
80000f9c g       .text	00000000 HW_set_16bit_reg
8000769c g     F .text	0000029c API_SendMessageReq
80003074 g     F .text	00000050 vTaskExitCritical
80001edc g     F .text	00000050 strlen
8000189c g     F .text	00000094 pxPortInitialiseStack
80000934  w    F .text	00000020 External_1_IRQHandler
80007500 g     F .text	0000019c API_SendFinishTask
80000974  w    F .text	00000020 External_6_IRQHandler
80000c94  w    F .text	00000020 External_31_IRQHandler
80004394 g     F .text	000000ec API_GetSystemTasksSlots
80001610 g     F .text	00000034 vPortEnterCritical
80009550 g       .data	00000000 __data_start
80005f14 g     F .text	00000380 powerEstimation
80026f80 g     O .bss	00000004 ProcessorAddr
800096bc g     O .sbss	00000004 localPackets_last
80023594 g     O .bss	00000004 priorityPointer
80000b54  w    F .text	00000020 External_21_IRQHandler
80023598 g     O .bss	000000c0 Tiles
800004e0 g     F .text	00000030 handle_m_soft_interrupt
8000046c g     F .text	00000074 handle_m_ext_interrupt
80000fd4 g       .text	00000000 HW_get_16bit_reg_field
80000b94  w    F .text	00000020 External_23_IRQHandler
80000bb4  w    F .text	00000020 External_24_IRQHandler
800096b8 g     O .sbss	00000004 localFlits_last
800067a8 g     F .text	0000006c External_4_IRQHandler
800031b8 g     F .text	00000158 vTaskNotifyGiveFromISR
80003820 g     F .text	000000fc GeneratePatternMatrix
80000994  w    F .text	00000020 External_7_IRQHandler
80007e80 g     F .text	0000001c vApplicationIdleHook



Disassembly of section .text:

80000000 <_start>:
_start():
/casa/workspace/Chronos-RISCV6/FreeRTOS/Debug/../riscv_hal/entry.S:30

  .section      .text.entry
  .globl _start

_start:
  j handle_reset
80000000:	00c0006f          	j	8000000c <handle_reset>

80000004 <nmi_vector>:
nmi_vector():
/casa/workspace/Chronos-RISCV6/FreeRTOS/Debug/../riscv_hal/entry.S:33

nmi_vector:
  j nmi_vector
80000004:	0000006f          	j	80000004 <nmi_vector>

80000008 <trap_vector>:
trap_vector():
/casa/workspace/Chronos-RISCV6/FreeRTOS/Debug/../riscv_hal/entry.S:36

trap_vector:
  j trap_entry
80000008:	0280006f          	j	80000030 <trap_entry>

8000000c <handle_reset>:
handle_reset():
/casa/workspace/Chronos-RISCV6/FreeRTOS/Debug/../riscv_hal/entry.S:39

handle_reset:
  la t0, trap_entry
8000000c:	00000297          	auipc	t0,0x0
80000010:	02428293          	addi	t0,t0,36 # 80000030 <trap_entry>
/casa/workspace/Chronos-RISCV6/FreeRTOS/Debug/../riscv_hal/entry.S:40
  csrw mtvec, t0
80000014:	30529073          	csrw	mtvec,t0
/casa/workspace/Chronos-RISCV6/FreeRTOS/Debug/../riscv_hal/entry.S:41
  csrwi mstatus, 0
80000018:	30005073          	csrwi	mstatus,0
/casa/workspace/Chronos-RISCV6/FreeRTOS/Debug/../riscv_hal/entry.S:42
  csrwi mie, 0
8000001c:	30405073          	csrwi	mie,0
/casa/workspace/Chronos-RISCV6/FreeRTOS/Debug/../riscv_hal/entry.S:60
  lui t0, 0x0
  fscsr t0
#endif

  # initialize global pointer
  la gp, __global_pointer$
80000020:	00018193          	mv	gp,gp
/casa/workspace/Chronos-RISCV6/FreeRTOS/Debug/../riscv_hal/entry.S:63

  # initialize stack pointer
  la sp, __stack_top
80000024:	00047117          	auipc	sp,0x47
80000028:	f6c10113          	addi	sp,sp,-148 # 80046f90 <__stack_top>
/casa/workspace/Chronos-RISCV6/FreeRTOS/Debug/../riscv_hal/entry.S:66

  # perform the rest of initialization in C
  j _init
8000002c:	1a40006f          	j	800001d0 <_init>

80000030 <trap_entry>:
trap_entry():
/casa/workspace/Chronos-RISCV6/FreeRTOS/Debug/../riscv_hal/entry.S:70


trap_entry:
  addi sp, sp, -33*REGBYTES
80000030:	f7c10113          	addi	sp,sp,-132
/casa/workspace/Chronos-RISCV6/FreeRTOS/Debug/../riscv_hal/entry.S:72

  SREG x1, 0 * REGBYTES(sp)
80000034:	00112023          	sw	ra,0(sp)
/casa/workspace/Chronos-RISCV6/FreeRTOS/Debug/../riscv_hal/entry.S:73
  SREG x2, 1 * REGBYTES(sp)
80000038:	00212223          	sw	sp,4(sp)
/casa/workspace/Chronos-RISCV6/FreeRTOS/Debug/../riscv_hal/entry.S:74
  SREG x3, 2 * REGBYTES(sp)
8000003c:	00312423          	sw	gp,8(sp)
/casa/workspace/Chronos-RISCV6/FreeRTOS/Debug/../riscv_hal/entry.S:75
  SREG x4, 3 * REGBYTES(sp)
80000040:	00412623          	sw	tp,12(sp)
/casa/workspace/Chronos-RISCV6/FreeRTOS/Debug/../riscv_hal/entry.S:76
  SREG x5, 4 * REGBYTES(sp)
80000044:	00512823          	sw	t0,16(sp)
/casa/workspace/Chronos-RISCV6/FreeRTOS/Debug/../riscv_hal/entry.S:77
  SREG x6, 5 * REGBYTES(sp)
80000048:	00612a23          	sw	t1,20(sp)
/casa/workspace/Chronos-RISCV6/FreeRTOS/Debug/../riscv_hal/entry.S:78
  SREG x7, 6 * REGBYTES(sp)
8000004c:	00712c23          	sw	t2,24(sp)
/casa/workspace/Chronos-RISCV6/FreeRTOS/Debug/../riscv_hal/entry.S:79
  SREG x8, 7 * REGBYTES(sp)
80000050:	00812e23          	sw	s0,28(sp)
/casa/workspace/Chronos-RISCV6/FreeRTOS/Debug/../riscv_hal/entry.S:80
  SREG x9, 8 * REGBYTES(sp)
80000054:	02912023          	sw	s1,32(sp)
/casa/workspace/Chronos-RISCV6/FreeRTOS/Debug/../riscv_hal/entry.S:81
  SREG x10, 9 * REGBYTES(sp)
80000058:	02a12223          	sw	a0,36(sp)
/casa/workspace/Chronos-RISCV6/FreeRTOS/Debug/../riscv_hal/entry.S:82
  SREG x11, 10 * REGBYTES(sp)
8000005c:	02b12423          	sw	a1,40(sp)
/casa/workspace/Chronos-RISCV6/FreeRTOS/Debug/../riscv_hal/entry.S:83
  SREG x12, 11 * REGBYTES(sp)
80000060:	02c12623          	sw	a2,44(sp)
/casa/workspace/Chronos-RISCV6/FreeRTOS/Debug/../riscv_hal/entry.S:84
  SREG x13, 12 * REGBYTES(sp)
80000064:	02d12823          	sw	a3,48(sp)
/casa/workspace/Chronos-RISCV6/FreeRTOS/Debug/../riscv_hal/entry.S:85
  SREG x14, 13 * REGBYTES(sp)
80000068:	02e12a23          	sw	a4,52(sp)
/casa/workspace/Chronos-RISCV6/FreeRTOS/Debug/../riscv_hal/entry.S:86
  SREG x15, 14 * REGBYTES(sp)
8000006c:	02f12c23          	sw	a5,56(sp)
/casa/workspace/Chronos-RISCV6/FreeRTOS/Debug/../riscv_hal/entry.S:87
  SREG x16, 15 * REGBYTES(sp)
80000070:	03012e23          	sw	a6,60(sp)
/casa/workspace/Chronos-RISCV6/FreeRTOS/Debug/../riscv_hal/entry.S:88
  SREG x17, 16 * REGBYTES(sp)
80000074:	05112023          	sw	a7,64(sp)
/casa/workspace/Chronos-RISCV6/FreeRTOS/Debug/../riscv_hal/entry.S:89
  SREG x18, 17 * REGBYTES(sp)
80000078:	05212223          	sw	s2,68(sp)
/casa/workspace/Chronos-RISCV6/FreeRTOS/Debug/../riscv_hal/entry.S:90
  SREG x19, 18 * REGBYTES(sp)
8000007c:	05312423          	sw	s3,72(sp)
/casa/workspace/Chronos-RISCV6/FreeRTOS/Debug/../riscv_hal/entry.S:91
  SREG x20, 19 * REGBYTES(sp)
80000080:	05412623          	sw	s4,76(sp)
/casa/workspace/Chronos-RISCV6/FreeRTOS/Debug/../riscv_hal/entry.S:92
  SREG x21, 20 * REGBYTES(sp)
80000084:	05512823          	sw	s5,80(sp)
/casa/workspace/Chronos-RISCV6/FreeRTOS/Debug/../riscv_hal/entry.S:93
  SREG x22, 21 * REGBYTES(sp)
80000088:	05612a23          	sw	s6,84(sp)
/casa/workspace/Chronos-RISCV6/FreeRTOS/Debug/../riscv_hal/entry.S:94
  SREG x23, 22 * REGBYTES(sp)
8000008c:	05712c23          	sw	s7,88(sp)
/casa/workspace/Chronos-RISCV6/FreeRTOS/Debug/../riscv_hal/entry.S:95
  SREG x24, 23 * REGBYTES(sp)
80000090:	05812e23          	sw	s8,92(sp)
/casa/workspace/Chronos-RISCV6/FreeRTOS/Debug/../riscv_hal/entry.S:96
  SREG x25, 24 * REGBYTES(sp)
80000094:	07912023          	sw	s9,96(sp)
/casa/workspace/Chronos-RISCV6/FreeRTOS/Debug/../riscv_hal/entry.S:97
  SREG x26, 25 * REGBYTES(sp)
80000098:	07a12223          	sw	s10,100(sp)
/casa/workspace/Chronos-RISCV6/FreeRTOS/Debug/../riscv_hal/entry.S:98
  SREG x27, 26 * REGBYTES(sp)
8000009c:	07b12423          	sw	s11,104(sp)
/casa/workspace/Chronos-RISCV6/FreeRTOS/Debug/../riscv_hal/entry.S:99
  SREG x28, 27 * REGBYTES(sp)
800000a0:	07c12623          	sw	t3,108(sp)
/casa/workspace/Chronos-RISCV6/FreeRTOS/Debug/../riscv_hal/entry.S:100
  SREG x29, 28 * REGBYTES(sp)
800000a4:	07d12823          	sw	t4,112(sp)
/casa/workspace/Chronos-RISCV6/FreeRTOS/Debug/../riscv_hal/entry.S:101
  SREG x30, 29 * REGBYTES(sp)
800000a8:	07e12a23          	sw	t5,116(sp)
/casa/workspace/Chronos-RISCV6/FreeRTOS/Debug/../riscv_hal/entry.S:102
  SREG x31, 30 * REGBYTES(sp)
800000ac:	07f12c23          	sw	t6,120(sp)
/casa/workspace/Chronos-RISCV6/FreeRTOS/Debug/../riscv_hal/entry.S:105

  # Stores the return addr in the stack
  csrr t0, mepc
800000b0:	341022f3          	csrr	t0,mepc
/casa/workspace/Chronos-RISCV6/FreeRTOS/Debug/../riscv_hal/entry.S:106
  SREG t0, 31 * REGBYTES(sp)
800000b4:	06512e23          	sw	t0,124(sp)
/casa/workspace/Chronos-RISCV6/FreeRTOS/Debug/../riscv_hal/entry.S:109

  # store the MIE value in the stack
  li t0, MSTATUS_MIE
800000b8:	00800293          	li	t0,8
/casa/workspace/Chronos-RISCV6/FreeRTOS/Debug/../riscv_hal/entry.S:110
  csrrc t0, mstatus, t0 
800000bc:	3002b2f3          	csrrc	t0,mstatus,t0
/casa/workspace/Chronos-RISCV6/FreeRTOS/Debug/../riscv_hal/entry.S:111
  SREG t0, 32 * REGBYTES(sp) 
800000c0:	08512023          	sw	t0,128(sp)
/casa/workspace/Chronos-RISCV6/FreeRTOS/Debug/../riscv_hal/entry.S:113

  csrr a0, mcause
800000c4:	34202573          	csrr	a0,mcause
/casa/workspace/Chronos-RISCV6/FreeRTOS/Debug/../riscv_hal/entry.S:114
  csrr a1, mepc
800000c8:	341025f3          	csrr	a1,mepc
/casa/workspace/Chronos-RISCV6/FreeRTOS/Debug/../riscv_hal/entry.S:115
  mv a2, sp
800000cc:	00010613          	mv	a2,sp
/casa/workspace/Chronos-RISCV6/FreeRTOS/Debug/../riscv_hal/entry.S:116
  call handle_trap
800000d0:	6d4000ef          	jal	ra,800007a4 <handle_trap>
/casa/workspace/Chronos-RISCV6/FreeRTOS/Debug/../riscv_hal/entry.S:117
  csrw mepc, a0
800000d4:	34151073          	csrw	mepc,a0
/casa/workspace/Chronos-RISCV6/FreeRTOS/Debug/../riscv_hal/entry.S:120

  # Remain in M-mode after mret
  li t0, MSTATUS_MPP
800000d8:	000022b7          	lui	t0,0x2
800000dc:	80028293          	addi	t0,t0,-2048 # 1800 <HEAP_SIZE-0xe800>
/casa/workspace/Chronos-RISCV6/FreeRTOS/Debug/../riscv_hal/entry.S:121
  csrs mstatus, t0
800000e0:	3002a073          	csrs	mstatus,t0
/casa/workspace/Chronos-RISCV6/FreeRTOS/Debug/../riscv_hal/entry.S:126
  #li t0, MSTATUS_MPIE
  #csrs mstatus, t0

  # Restore the interruption status after MRET
  LREG x5, 32 * REGBYTES(sp)  # load the old MIE value to t0
800000e4:	08012283          	lw	t0,128(sp)
/casa/workspace/Chronos-RISCV6/FreeRTOS/Debug/../riscv_hal/entry.S:127
  slli t0, t0, 4              # shifts it to the MPIE position
800000e8:	00429293          	slli	t0,t0,0x4
/casa/workspace/Chronos-RISCV6/FreeRTOS/Debug/../riscv_hal/entry.S:128
  csrs mstatus, t0            # restore the MIE value into the MPIE
800000ec:	3002a073          	csrs	mstatus,t0
/casa/workspace/Chronos-RISCV6/FreeRTOS/Debug/../riscv_hal/entry.S:130
  
  LREG x1, 0 * REGBYTES(sp)
800000f0:	00012083          	lw	ra,0(sp)
/casa/workspace/Chronos-RISCV6/FreeRTOS/Debug/../riscv_hal/entry.S:131
  LREG x2, 1 * REGBYTES(sp)
800000f4:	00412103          	lw	sp,4(sp)
/casa/workspace/Chronos-RISCV6/FreeRTOS/Debug/../riscv_hal/entry.S:132
  LREG x3, 2 * REGBYTES(sp)
800000f8:	00812183          	lw	gp,8(sp)
/casa/workspace/Chronos-RISCV6/FreeRTOS/Debug/../riscv_hal/entry.S:133
  LREG x4, 3 * REGBYTES(sp)
800000fc:	00c12203          	lw	tp,12(sp)
/casa/workspace/Chronos-RISCV6/FreeRTOS/Debug/../riscv_hal/entry.S:134
  LREG x5, 4 * REGBYTES(sp)
80000100:	01012283          	lw	t0,16(sp)
/casa/workspace/Chronos-RISCV6/FreeRTOS/Debug/../riscv_hal/entry.S:135
  LREG x6, 5 * REGBYTES(sp)
80000104:	01412303          	lw	t1,20(sp)
/casa/workspace/Chronos-RISCV6/FreeRTOS/Debug/../riscv_hal/entry.S:136
  LREG x7, 6 * REGBYTES(sp)
80000108:	01812383          	lw	t2,24(sp)
/casa/workspace/Chronos-RISCV6/FreeRTOS/Debug/../riscv_hal/entry.S:137
  LREG x8, 7 * REGBYTES(sp)
8000010c:	01c12403          	lw	s0,28(sp)
/casa/workspace/Chronos-RISCV6/FreeRTOS/Debug/../riscv_hal/entry.S:138
  LREG x9, 8 * REGBYTES(sp)
80000110:	02012483          	lw	s1,32(sp)
/casa/workspace/Chronos-RISCV6/FreeRTOS/Debug/../riscv_hal/entry.S:139
  LREG x10, 9 * REGBYTES(sp)
80000114:	02412503          	lw	a0,36(sp)
/casa/workspace/Chronos-RISCV6/FreeRTOS/Debug/../riscv_hal/entry.S:140
  LREG x11, 10 * REGBYTES(sp)
80000118:	02812583          	lw	a1,40(sp)
/casa/workspace/Chronos-RISCV6/FreeRTOS/Debug/../riscv_hal/entry.S:141
  LREG x12, 11 * REGBYTES(sp)
8000011c:	02c12603          	lw	a2,44(sp)
/casa/workspace/Chronos-RISCV6/FreeRTOS/Debug/../riscv_hal/entry.S:142
  LREG x13, 12 * REGBYTES(sp)
80000120:	03012683          	lw	a3,48(sp)
/casa/workspace/Chronos-RISCV6/FreeRTOS/Debug/../riscv_hal/entry.S:143
  LREG x14, 13 * REGBYTES(sp)
80000124:	03412703          	lw	a4,52(sp)
/casa/workspace/Chronos-RISCV6/FreeRTOS/Debug/../riscv_hal/entry.S:144
  LREG x15, 14 * REGBYTES(sp)
80000128:	03812783          	lw	a5,56(sp)
/casa/workspace/Chronos-RISCV6/FreeRTOS/Debug/../riscv_hal/entry.S:145
  LREG x16, 15 * REGBYTES(sp)
8000012c:	03c12803          	lw	a6,60(sp)
/casa/workspace/Chronos-RISCV6/FreeRTOS/Debug/../riscv_hal/entry.S:146
  LREG x17, 16 * REGBYTES(sp)
80000130:	04012883          	lw	a7,64(sp)
/casa/workspace/Chronos-RISCV6/FreeRTOS/Debug/../riscv_hal/entry.S:147
  LREG x18, 17 * REGBYTES(sp)
80000134:	04412903          	lw	s2,68(sp)
/casa/workspace/Chronos-RISCV6/FreeRTOS/Debug/../riscv_hal/entry.S:148
  LREG x19, 18 * REGBYTES(sp)
80000138:	04812983          	lw	s3,72(sp)
/casa/workspace/Chronos-RISCV6/FreeRTOS/Debug/../riscv_hal/entry.S:149
  LREG x20, 19 * REGBYTES(sp)
8000013c:	04c12a03          	lw	s4,76(sp)
/casa/workspace/Chronos-RISCV6/FreeRTOS/Debug/../riscv_hal/entry.S:150
  LREG x21, 20 * REGBYTES(sp)
80000140:	05012a83          	lw	s5,80(sp)
/casa/workspace/Chronos-RISCV6/FreeRTOS/Debug/../riscv_hal/entry.S:151
  LREG x22, 21 * REGBYTES(sp)
80000144:	05412b03          	lw	s6,84(sp)
/casa/workspace/Chronos-RISCV6/FreeRTOS/Debug/../riscv_hal/entry.S:152
  LREG x23, 22 * REGBYTES(sp)
80000148:	05812b83          	lw	s7,88(sp)
/casa/workspace/Chronos-RISCV6/FreeRTOS/Debug/../riscv_hal/entry.S:153
  LREG x24, 23 * REGBYTES(sp)
8000014c:	05c12c03          	lw	s8,92(sp)
/casa/workspace/Chronos-RISCV6/FreeRTOS/Debug/../riscv_hal/entry.S:154
  LREG x25, 24 * REGBYTES(sp)
80000150:	06012c83          	lw	s9,96(sp)
/casa/workspace/Chronos-RISCV6/FreeRTOS/Debug/../riscv_hal/entry.S:155
  LREG x26, 25 * REGBYTES(sp)
80000154:	06412d03          	lw	s10,100(sp)
/casa/workspace/Chronos-RISCV6/FreeRTOS/Debug/../riscv_hal/entry.S:156
  LREG x27, 26 * REGBYTES(sp)
80000158:	06812d83          	lw	s11,104(sp)
/casa/workspace/Chronos-RISCV6/FreeRTOS/Debug/../riscv_hal/entry.S:157
  LREG x28, 27 * REGBYTES(sp)
8000015c:	06c12e03          	lw	t3,108(sp)
/casa/workspace/Chronos-RISCV6/FreeRTOS/Debug/../riscv_hal/entry.S:158
  LREG x29, 28 * REGBYTES(sp)
80000160:	07012e83          	lw	t4,112(sp)
/casa/workspace/Chronos-RISCV6/FreeRTOS/Debug/../riscv_hal/entry.S:159
  LREG x30, 29 * REGBYTES(sp)
80000164:	07412f03          	lw	t5,116(sp)
/casa/workspace/Chronos-RISCV6/FreeRTOS/Debug/../riscv_hal/entry.S:160
  LREG x31, 30 * REGBYTES(sp)
80000168:	07812f83          	lw	t6,120(sp)
/casa/workspace/Chronos-RISCV6/FreeRTOS/Debug/../riscv_hal/entry.S:162

  addi sp, sp, 33*REGBYTES
8000016c:	08410113          	addi	sp,sp,132
/casa/workspace/Chronos-RISCV6/FreeRTOS/Debug/../riscv_hal/entry.S:163
  mret
80000170:	30200073          	mret
	...

80000180 <zero_section>:
zero_section():
/casa/workspace/Chronos-RISCV6/FreeRTOS/Debug/../riscv_hal/init.c:47
        ++p_vma;
    }
}

static void zero_section(uint32_t * start, uint32_t * end)
{
80000180:	fd010113          	addi	sp,sp,-48
80000184:	02812623          	sw	s0,44(sp)
80000188:	03010413          	addi	s0,sp,48
8000018c:	fca42e23          	sw	a0,-36(s0)
80000190:	fcb42c23          	sw	a1,-40(s0)
/casa/workspace/Chronos-RISCV6/FreeRTOS/Debug/../riscv_hal/init.c:48
    uint32_t * p_zero = start;
80000194:	fdc42783          	lw	a5,-36(s0)
80000198:	fef42623          	sw	a5,-20(s0)
/casa/workspace/Chronos-RISCV6/FreeRTOS/Debug/../riscv_hal/init.c:50
    
    while(p_zero <= end)
8000019c:	0180006f          	j	800001b4 <zero_section+0x34>
/casa/workspace/Chronos-RISCV6/FreeRTOS/Debug/../riscv_hal/init.c:52
    {
        *p_zero = 0;
800001a0:	fec42783          	lw	a5,-20(s0)
800001a4:	0007a023          	sw	zero,0(a5)
/casa/workspace/Chronos-RISCV6/FreeRTOS/Debug/../riscv_hal/init.c:53
        ++p_zero;
800001a8:	fec42783          	lw	a5,-20(s0)
800001ac:	00478793          	addi	a5,a5,4
800001b0:	fef42623          	sw	a5,-20(s0)
/casa/workspace/Chronos-RISCV6/FreeRTOS/Debug/../riscv_hal/init.c:50
    while(p_zero <= end)
800001b4:	fec42703          	lw	a4,-20(s0)
800001b8:	fd842783          	lw	a5,-40(s0)
800001bc:	fee7f2e3          	bleu	a4,a5,800001a0 <zero_section+0x20>
/casa/workspace/Chronos-RISCV6/FreeRTOS/Debug/../riscv_hal/init.c:55
    }
}
800001c0:	00000013          	nop
800001c4:	02c12403          	lw	s0,44(sp)
800001c8:	03010113          	addi	sp,sp,48
800001cc:	00008067          	ret

800001d0 <_init>:
_init():
/casa/workspace/Chronos-RISCV6/FreeRTOS/Debug/../riscv_hal/init.c:58

void _init(void)
{
800001d0:	fe010113          	addi	sp,sp,-32
800001d4:	00112e23          	sw	ra,28(sp)
800001d8:	00812c23          	sw	s0,24(sp)
800001dc:	02010413          	addi	s0,sp,32
/casa/workspace/Chronos-RISCV6/FreeRTOS/Debug/../riscv_hal/init.c:60
    extern int main(int, char**);
    const char *argv0 = "hello";
800001e0:	800097b7          	lui	a5,0x80009
800001e4:	8c078793          	addi	a5,a5,-1856 # 800088c0 <__stack_top+0xfffc1930>
800001e8:	fef42623          	sw	a5,-20(s0)
/casa/workspace/Chronos-RISCV6/FreeRTOS/Debug/../riscv_hal/init.c:61
    char *argv[] = {(char *)argv0, NULL, NULL};
800001ec:	fec42783          	lw	a5,-20(s0)
800001f0:	fef42023          	sw	a5,-32(s0)
800001f4:	fe042223          	sw	zero,-28(s0)
800001f8:	fe042423          	sw	zero,-24(s0)
/casa/workspace/Chronos-RISCV6/FreeRTOS/Debug/../riscv_hal/init.c:66

// Imperas - this is loaded directly by simulator so must not be copied
//    copy_section(&__sdata_load, &__sdata_start, &__sdata_end);
//    copy_section(&__data_load, &__data_start, &__data_end);
    zero_section(&__sbss_start, &__sbss_end);
800001fc:	9a018593          	addi	a1,gp,-1632 # 800096d0 <__sbss_end>
80000200:	90018513          	addi	a0,gp,-1792 # 80009630 <__data_end>
80000204:	f7dff0ef          	jal	ra,80000180 <zero_section>
/casa/workspace/Chronos-RISCV6/FreeRTOS/Debug/../riscv_hal/init.c:67
    zero_section(&__bss_start, &__bss_end);
80000208:	800277b7          	lui	a5,0x80027
8000020c:	f9078593          	addi	a1,a5,-112 # 80026f90 <__stack_top+0xfffe0000>
80000210:	9a018513          	addi	a0,gp,-1632 # 800096d0 <__sbss_end>
80000214:	f6dff0ef          	jal	ra,80000180 <zero_section>
/casa/workspace/Chronos-RISCV6/FreeRTOS/Debug/../riscv_hal/init.c:69
    
    main(1, argv);
80000218:	fe040793          	addi	a5,s0,-32
8000021c:	00078593          	mv	a1,a5
80000220:	00100513          	li	a0,1
80000224:	295070ef          	jal	ra,80007cb8 <main>
/casa/workspace/Chronos-RISCV6/FreeRTOS/Debug/../riscv_hal/init.c:70
}
80000228:	00000013          	nop
8000022c:	01c12083          	lw	ra,28(sp)
80000230:	01812403          	lw	s0,24(sp)
80000234:	02010113          	addi	sp,sp,32
80000238:	00008067          	ret

8000023c <_fini>:
_fini():
/casa/workspace/Chronos-RISCV6/FreeRTOS/Debug/../riscv_hal/init.c:75

/* Function called after main() finishes */
void
_fini()
{
8000023c:	ff010113          	addi	sp,sp,-16
80000240:	00812623          	sw	s0,12(sp)
80000244:	01010413          	addi	s0,sp,16
/casa/workspace/Chronos-RISCV6/FreeRTOS/Debug/../riscv_hal/init.c:76
}
80000248:	00000013          	nop
8000024c:	00c12403          	lw	s0,12(sp)
80000250:	01010113          	addi	sp,sp,16
80000254:	00008067          	ret

80000258 <PLIC_DisableIRQ>:
PLIC_DisableIRQ():
/casa/workspace/Chronos-RISCV6/FreeRTOS/Debug/../riscv_hal/riscv_plic.h:174
 * 	If you wish to disable the external interrupt while the interrupt handler
 * 	for that external interrupt is executing then you must use the return value
 * 	EXT_IRQ_DISABLE to return from the extern interrupt handler.
 */
static inline void PLIC_DisableIRQ(IRQn_Type IRQn)
{
80000258:	fd010113          	addi	sp,sp,-48
8000025c:	02812623          	sw	s0,44(sp)
80000260:	03010413          	addi	s0,sp,48
80000264:	fca42e23          	sw	a0,-36(s0)
/casa/workspace/Chronos-RISCV6/FreeRTOS/Debug/../riscv_hal/riscv_plic.h:175
    unsigned long hart_id = read_csr(mhartid);
80000268:	f14027f3          	csrr	a5,mhartid
8000026c:	fef42623          	sw	a5,-20(s0)
80000270:	fec42783          	lw	a5,-20(s0)
80000274:	fef42423          	sw	a5,-24(s0)
/casa/workspace/Chronos-RISCV6/FreeRTOS/Debug/../riscv_hal/riscv_plic.h:176
    uint32_t current = PLIC->TARGET_ENABLES[hart_id].ENABLES[IRQn / 32];
80000278:	40000737          	lui	a4,0x40000
8000027c:	fdc42783          	lw	a5,-36(s0)
80000280:	0057d793          	srli	a5,a5,0x5
80000284:	fe842683          	lw	a3,-24(s0)
80000288:	00569693          	slli	a3,a3,0x5
8000028c:	00f686b3          	add	a3,a3,a5
80000290:	000017b7          	lui	a5,0x1
80000294:	80078793          	addi	a5,a5,-2048 # 800 <HEAP_SIZE-0xf800>
80000298:	00f687b3          	add	a5,a3,a5
8000029c:	00279793          	slli	a5,a5,0x2
800002a0:	00f707b3          	add	a5,a4,a5
800002a4:	0007a783          	lw	a5,0(a5)
800002a8:	fef42223          	sw	a5,-28(s0)
/casa/workspace/Chronos-RISCV6/FreeRTOS/Debug/../riscv_hal/riscv_plic.h:178

    current &= ~((uint32_t)1 << (IRQn % 32));
800002ac:	fdc42783          	lw	a5,-36(s0)
800002b0:	01f7f793          	andi	a5,a5,31
800002b4:	00100713          	li	a4,1
800002b8:	00f717b3          	sll	a5,a4,a5
800002bc:	fff7c793          	not	a5,a5
800002c0:	fe442703          	lw	a4,-28(s0)
800002c4:	00f777b3          	and	a5,a4,a5
800002c8:	fef42223          	sw	a5,-28(s0)
/casa/workspace/Chronos-RISCV6/FreeRTOS/Debug/../riscv_hal/riscv_plic.h:180

    PLIC->TARGET_ENABLES[hart_id].ENABLES[IRQn / 32] = current;
800002cc:	40000737          	lui	a4,0x40000
800002d0:	fdc42783          	lw	a5,-36(s0)
800002d4:	0057d793          	srli	a5,a5,0x5
800002d8:	fe842683          	lw	a3,-24(s0)
800002dc:	00569693          	slli	a3,a3,0x5
800002e0:	00f686b3          	add	a3,a3,a5
800002e4:	000017b7          	lui	a5,0x1
800002e8:	80078793          	addi	a5,a5,-2048 # 800 <HEAP_SIZE-0xf800>
800002ec:	00f687b3          	add	a5,a3,a5
800002f0:	00279793          	slli	a5,a5,0x2
800002f4:	00f707b3          	add	a5,a4,a5
800002f8:	fe442703          	lw	a4,-28(s0)
800002fc:	00e7a023          	sw	a4,0(a5)
/casa/workspace/Chronos-RISCV6/FreeRTOS/Debug/../riscv_hal/riscv_plic.h:181
}
80000300:	00000013          	nop
80000304:	02c12403          	lw	s0,44(sp)
80000308:	03010113          	addi	sp,sp,48
8000030c:	00008067          	ret

80000310 <PLIC_ClaimIRQ>:
PLIC_ClaimIRQ():
/casa/workspace/Chronos-RISCV6/FreeRTOS/Debug/../riscv_hal/riscv_plic.h:205

/*==============================================================================
 * The function PLIC_ClaimIRQ() claims the interrupt from the PLIC controller.
 */
static inline uint32_t PLIC_ClaimIRQ(void)
{
80000310:	fe010113          	addi	sp,sp,-32
80000314:	00812e23          	sw	s0,28(sp)
80000318:	02010413          	addi	s0,sp,32
/casa/workspace/Chronos-RISCV6/FreeRTOS/Debug/../riscv_hal/riscv_plic.h:206
    unsigned long hart_id = read_csr(mhartid);
8000031c:	f14027f3          	csrr	a5,mhartid
80000320:	fef42623          	sw	a5,-20(s0)
80000324:	fec42783          	lw	a5,-20(s0)
80000328:	fef42423          	sw	a5,-24(s0)
/casa/workspace/Chronos-RISCV6/FreeRTOS/Debug/../riscv_hal/riscv_plic.h:208

    return PLIC->TARGET[hart_id].CLAIM_COMPLETE;
8000032c:	40000737          	lui	a4,0x40000
80000330:	fe842783          	lw	a5,-24(s0)
80000334:	20078793          	addi	a5,a5,512
80000338:	00c79793          	slli	a5,a5,0xc
8000033c:	00f707b3          	add	a5,a4,a5
80000340:	0047a783          	lw	a5,4(a5)
/casa/workspace/Chronos-RISCV6/FreeRTOS/Debug/../riscv_hal/riscv_plic.h:209
}
80000344:	00078513          	mv	a0,a5
80000348:	01c12403          	lw	s0,28(sp)
8000034c:	02010113          	addi	sp,sp,32
80000350:	00008067          	ret

80000354 <PLIC_CompleteIRQ>:
PLIC_CompleteIRQ():
/casa/workspace/Chronos-RISCV6/FreeRTOS/Debug/../riscv_hal/riscv_plic.h:216
/*==============================================================================
 * The function PLIC_CompleteIRQ() indicates to the PLIC controller the interrupt
 * is processed and claim is complete.
 */
static inline void PLIC_CompleteIRQ(uint32_t source)
{
80000354:	fd010113          	addi	sp,sp,-48
80000358:	02812623          	sw	s0,44(sp)
8000035c:	03010413          	addi	s0,sp,48
80000360:	fca42e23          	sw	a0,-36(s0)
/casa/workspace/Chronos-RISCV6/FreeRTOS/Debug/../riscv_hal/riscv_plic.h:217
    unsigned long hart_id = read_csr(mhartid);
80000364:	f14027f3          	csrr	a5,mhartid
80000368:	fef42623          	sw	a5,-20(s0)
8000036c:	fec42783          	lw	a5,-20(s0)
80000370:	fef42423          	sw	a5,-24(s0)
/casa/workspace/Chronos-RISCV6/FreeRTOS/Debug/../riscv_hal/riscv_plic.h:219

    PLIC->TARGET[hart_id].CLAIM_COMPLETE = source;
80000374:	40000737          	lui	a4,0x40000
80000378:	fe842783          	lw	a5,-24(s0)
8000037c:	20078793          	addi	a5,a5,512
80000380:	00c79793          	slli	a5,a5,0xc
80000384:	00f707b3          	add	a5,a4,a5
80000388:	fdc42703          	lw	a4,-36(s0)
8000038c:	00e7a223          	sw	a4,4(a5)
/casa/workspace/Chronos-RISCV6/FreeRTOS/Debug/../riscv_hal/riscv_plic.h:220
}
80000390:	00000013          	nop
80000394:	02c12403          	lw	s0,44(sp)
80000398:	03010113          	addi	sp,sp,48
8000039c:	00008067          	ret

800003a0 <__enable_irq>:
__enable_irq():
/casa/workspace/Chronos-RISCV6/FreeRTOS/Debug/../riscv_hal/riscv_hal.c:96

/*------------------------------------------------------------------------------
 * Enabler all interrupts.
 */
void __enable_irq(void)
{
800003a0:	fe010113          	addi	sp,sp,-32
800003a4:	00812e23          	sw	s0,28(sp)
800003a8:	02010413          	addi	s0,sp,32
/casa/workspace/Chronos-RISCV6/FreeRTOS/Debug/../riscv_hal/riscv_hal.c:97
    set_csr(mstatus, MSTATUS_MIE);
800003ac:	300467f3          	csrrsi	a5,mstatus,8
800003b0:	fef42623          	sw	a5,-20(s0)
/casa/workspace/Chronos-RISCV6/FreeRTOS/Debug/../riscv_hal/riscv_hal.c:98
}
800003b4:	00000013          	nop
800003b8:	01c12403          	lw	s0,28(sp)
800003bc:	02010113          	addi	sp,sp,32
800003c0:	00008067          	ret

800003c4 <handle_m_timer_interrupt>:
handle_m_timer_interrupt():
/casa/workspace/Chronos-RISCV6/FreeRTOS/Debug/../riscv_hal/riscv_hal.c:128

/*------------------------------------------------------------------------------
 * RISC-V interrupt handler for machine timer interrupts.
 */
void handle_m_timer_interrupt()
{
800003c4:	fe010113          	addi	sp,sp,-32
800003c8:	00112e23          	sw	ra,28(sp)
800003cc:	00812c23          	sw	s0,24(sp)
800003d0:	02010413          	addi	s0,sp,32
/casa/workspace/Chronos-RISCV6/FreeRTOS/Debug/../riscv_hal/riscv_hal.c:129
    clear_csr(mie, MIP_MTIP); //  MIP_MTIP (1 << 7)
800003d4:	08000793          	li	a5,128
800003d8:	3047b7f3          	csrrc	a5,mie,a5
800003dc:	fef42623          	sw	a5,-20(s0)
/casa/workspace/Chronos-RISCV6/FreeRTOS/Debug/../riscv_hal/riscv_hal.c:131

    SysTick_Handler();
800003e0:	550010ef          	jal	ra,80001930 <SysTick_Handler>
/casa/workspace/Chronos-RISCV6/FreeRTOS/Debug/../riscv_hal/riscv_hal.c:133

    PRCI->MTIMECMP[read_csr(mhartid)] = PRCI->MTIME + g_systick_increment;
800003e4:	44000737          	lui	a4,0x44000
800003e8:	0000c7b7          	lui	a5,0xc
800003ec:	00f707b3          	add	a5,a4,a5
800003f0:	ffc7a803          	lw	a6,-4(a5) # bffc <HEAP_SIZE-0x4004>
800003f4:	ff87a783          	lw	a5,-8(a5)
800003f8:	9001a583          	lw	a1,-1792(gp) # 80009630 <__data_end>
800003fc:	9041a603          	lw	a2,-1788(gp) # 80009634 <__data_end+0x4>
80000400:	44000537          	lui	a0,0x44000
80000404:	f1402773          	csrr	a4,mhartid
80000408:	fee42423          	sw	a4,-24(s0)
8000040c:	fe842883          	lw	a7,-24(s0)
80000410:	00b786b3          	add	a3,a5,a1
80000414:	00068313          	mv	t1,a3
80000418:	00f33333          	sltu	t1,t1,a5
8000041c:	00c80733          	add	a4,a6,a2
80000420:	00e307b3          	add	a5,t1,a4
80000424:	00078713          	mv	a4,a5
80000428:	00068793          	mv	a5,a3
8000042c:	00070813          	mv	a6,a4
80000430:	00001737          	lui	a4,0x1
80000434:	80070713          	addi	a4,a4,-2048 # 800 <HEAP_SIZE-0xf800>
80000438:	00e88733          	add	a4,a7,a4
8000043c:	00371713          	slli	a4,a4,0x3
80000440:	00e50733          	add	a4,a0,a4
80000444:	00f72023          	sw	a5,0(a4)
80000448:	01072223          	sw	a6,4(a4)
/casa/workspace/Chronos-RISCV6/FreeRTOS/Debug/../riscv_hal/riscv_hal.c:135

    set_csr(mie, MIP_MTIP);
8000044c:	08000793          	li	a5,128
80000450:	3047a7f3          	csrrs	a5,mie,a5
80000454:	fef42223          	sw	a5,-28(s0)
/casa/workspace/Chronos-RISCV6/FreeRTOS/Debug/../riscv_hal/riscv_hal.c:136
    return;
80000458:	00000013          	nop
/casa/workspace/Chronos-RISCV6/FreeRTOS/Debug/../riscv_hal/riscv_hal.c:137
}
8000045c:	01c12083          	lw	ra,28(sp)
80000460:	01812403          	lw	s0,24(sp)
80000464:	02010113          	addi	sp,sp,32
80000468:	00008067          	ret

8000046c <handle_m_ext_interrupt>:
handle_m_ext_interrupt():
/casa/workspace/Chronos-RISCV6/FreeRTOS/Debug/../riscv_hal/riscv_hal.c:182

/*------------------------------------------------------------------------------
 * 
 */
void handle_m_ext_interrupt()
{
8000046c:	fe010113          	addi	sp,sp,-32
80000470:	00112e23          	sw	ra,28(sp)
80000474:	00812c23          	sw	s0,24(sp)
80000478:	02010413          	addi	s0,sp,32
/casa/workspace/Chronos-RISCV6/FreeRTOS/Debug/../riscv_hal/riscv_hal.c:183
    uint32_t int_num  = PLIC_ClaimIRQ();
8000047c:	e95ff0ef          	jal	ra,80000310 <PLIC_ClaimIRQ>
80000480:	fea42623          	sw	a0,-20(s0)
/casa/workspace/Chronos-RISCV6/FreeRTOS/Debug/../riscv_hal/riscv_hal.c:184
    uint8_t disable = EXT_IRQ_KEEP_ENABLED;
80000484:	fe0405a3          	sb	zero,-21(s0)
/casa/workspace/Chronos-RISCV6/FreeRTOS/Debug/../riscv_hal/riscv_hal.c:186

    disable = ext_irq_handler_table[int_num]();
80000488:	800097b7          	lui	a5,0x80009
8000048c:	fec42703          	lw	a4,-20(s0)
80000490:	00271713          	slli	a4,a4,0x2
80000494:	55078793          	addi	a5,a5,1360 # 80009550 <__stack_top+0xfffc25c0>
80000498:	00f707b3          	add	a5,a4,a5
8000049c:	0007a783          	lw	a5,0(a5)
800004a0:	000780e7          	jalr	a5
800004a4:	00050793          	mv	a5,a0
800004a8:	fef405a3          	sb	a5,-21(s0)
/casa/workspace/Chronos-RISCV6/FreeRTOS/Debug/../riscv_hal/riscv_hal.c:188

    PLIC_CompleteIRQ(int_num);
800004ac:	fec42503          	lw	a0,-20(s0)
800004b0:	ea5ff0ef          	jal	ra,80000354 <PLIC_CompleteIRQ>
/casa/workspace/Chronos-RISCV6/FreeRTOS/Debug/../riscv_hal/riscv_hal.c:190

    if(EXT_IRQ_DISABLE == disable)
800004b4:	feb44703          	lbu	a4,-21(s0)
800004b8:	00100793          	li	a5,1
800004bc:	00f71863          	bne	a4,a5,800004cc <handle_m_ext_interrupt+0x60>
/casa/workspace/Chronos-RISCV6/FreeRTOS/Debug/../riscv_hal/riscv_hal.c:192
    {
        PLIC_DisableIRQ((IRQn_Type)int_num);
800004c0:	fec42503          	lw	a0,-20(s0)
800004c4:	d95ff0ef          	jal	ra,80000258 <PLIC_DisableIRQ>
/casa/workspace/Chronos-RISCV6/FreeRTOS/Debug/../riscv_hal/riscv_hal.c:194
    }
    return;
800004c8:	00000013          	nop
800004cc:	00000013          	nop
/casa/workspace/Chronos-RISCV6/FreeRTOS/Debug/../riscv_hal/riscv_hal.c:195
}
800004d0:	01c12083          	lw	ra,28(sp)
800004d4:	01812403          	lw	s0,24(sp)
800004d8:	02010113          	addi	sp,sp,32
800004dc:	00008067          	ret

800004e0 <handle_m_soft_interrupt>:
handle_m_soft_interrupt():
/casa/workspace/Chronos-RISCV6/FreeRTOS/Debug/../riscv_hal/riscv_hal.c:198

void handle_m_soft_interrupt()
{
800004e0:	ff010113          	addi	sp,sp,-16
800004e4:	00112623          	sw	ra,12(sp)
800004e8:	00812423          	sw	s0,8(sp)
800004ec:	01010413          	addi	s0,sp,16
/casa/workspace/Chronos-RISCV6/FreeRTOS/Debug/../riscv_hal/riscv_hal.c:199
    Software_IRQHandler();
800004f0:	568010ef          	jal	ra,80001a58 <Software_IRQHandler>
/casa/workspace/Chronos-RISCV6/FreeRTOS/Debug/../riscv_hal/riscv_hal.c:202

    /*Clear software interrupt*/
    PRCI->MSIP[0] = 0x00;
800004f4:	440007b7          	lui	a5,0x44000
800004f8:	0007a023          	sw	zero,0(a5) # 44000000 <RAM_SIZE+0x43f80000>
/casa/workspace/Chronos-RISCV6/FreeRTOS/Debug/../riscv_hal/riscv_hal.c:203
    return;
800004fc:	00000013          	nop
/casa/workspace/Chronos-RISCV6/FreeRTOS/Debug/../riscv_hal/riscv_hal.c:204
}
80000500:	00c12083          	lw	ra,12(sp)
80000504:	00812403          	lw	s0,8(sp)
80000508:	01010113          	addi	sp,sp,16
8000050c:	00008067          	ret

80000510 <handle_syscall>:
handle_syscall():
/casa/workspace/Chronos-RISCV6/FreeRTOS/Debug/../riscv_hal/riscv_hal.c:207

/* syscall funcion defined at system_call.c */
void handle_syscall(){
80000510:	fd010113          	addi	sp,sp,-48
80000514:	02112623          	sw	ra,44(sp)
80000518:	02812423          	sw	s0,40(sp)
8000051c:	03010413          	addi	s0,sp,48
/casa/workspace/Chronos-RISCV6/FreeRTOS/Debug/../riscv_hal/riscv_hal.c:210
	unsigned int arg0, arg1, arg2, arg3, arg4, arg5, type;
	unsigned int *pointer;
	register long temp asm("t0") = 0;
80000520:	00000293          	li	t0,0
/casa/workspace/Chronos-RISCV6/FreeRTOS/Debug/../riscv_hal/riscv_hal.c:211
	asm("addi	t0, sp, 0");
80000524:	00010293          	mv	t0,sp
/casa/workspace/Chronos-RISCV6/FreeRTOS/Debug/../riscv_hal/riscv_hal.c:213
	
	pointer = (unsigned int *)(temp + (29*4));
80000528:	00028793          	mv	a5,t0
8000052c:	07478793          	addi	a5,a5,116
80000530:	fef42623          	sw	a5,-20(s0)
/casa/workspace/Chronos-RISCV6/FreeRTOS/Debug/../riscv_hal/riscv_hal.c:214
	arg0 =  *pointer;
80000534:	fec42783          	lw	a5,-20(s0)
80000538:	0007a783          	lw	a5,0(a5)
8000053c:	fef42423          	sw	a5,-24(s0)
/casa/workspace/Chronos-RISCV6/FreeRTOS/Debug/../riscv_hal/riscv_hal.c:216

	pointer = (unsigned int *)(temp + (30*4));
80000540:	00028793          	mv	a5,t0
80000544:	07878793          	addi	a5,a5,120
80000548:	fef42623          	sw	a5,-20(s0)
/casa/workspace/Chronos-RISCV6/FreeRTOS/Debug/../riscv_hal/riscv_hal.c:217
	arg1 = *pointer;
8000054c:	fec42783          	lw	a5,-20(s0)
80000550:	0007a783          	lw	a5,0(a5)
80000554:	fef42223          	sw	a5,-28(s0)
/casa/workspace/Chronos-RISCV6/FreeRTOS/Debug/../riscv_hal/riscv_hal.c:219
	
	pointer = (unsigned int *)(temp + (31*4));
80000558:	00028793          	mv	a5,t0
8000055c:	07c78793          	addi	a5,a5,124
80000560:	fef42623          	sw	a5,-20(s0)
/casa/workspace/Chronos-RISCV6/FreeRTOS/Debug/../riscv_hal/riscv_hal.c:220
	arg2 = *pointer;
80000564:	fec42783          	lw	a5,-20(s0)
80000568:	0007a783          	lw	a5,0(a5)
8000056c:	fef42023          	sw	a5,-32(s0)
/casa/workspace/Chronos-RISCV6/FreeRTOS/Debug/../riscv_hal/riscv_hal.c:222

	pointer = (unsigned int *)(temp + (32*4));
80000570:	00028793          	mv	a5,t0
80000574:	08078793          	addi	a5,a5,128
80000578:	fef42623          	sw	a5,-20(s0)
/casa/workspace/Chronos-RISCV6/FreeRTOS/Debug/../riscv_hal/riscv_hal.c:223
	arg3 = *pointer;
8000057c:	fec42783          	lw	a5,-20(s0)
80000580:	0007a783          	lw	a5,0(a5)
80000584:	fcf42e23          	sw	a5,-36(s0)
/casa/workspace/Chronos-RISCV6/FreeRTOS/Debug/../riscv_hal/riscv_hal.c:225

	pointer = (unsigned int *)(temp + (33*4));
80000588:	00028793          	mv	a5,t0
8000058c:	08478793          	addi	a5,a5,132
80000590:	fef42623          	sw	a5,-20(s0)
/casa/workspace/Chronos-RISCV6/FreeRTOS/Debug/../riscv_hal/riscv_hal.c:226
	arg4 = *pointer;
80000594:	fec42783          	lw	a5,-20(s0)
80000598:	0007a783          	lw	a5,0(a5)
8000059c:	fcf42c23          	sw	a5,-40(s0)
/casa/workspace/Chronos-RISCV6/FreeRTOS/Debug/../riscv_hal/riscv_hal.c:228

	pointer = (unsigned int *)(temp + (34*4));
800005a0:	00028793          	mv	a5,t0
800005a4:	08878793          	addi	a5,a5,136
800005a8:	fef42623          	sw	a5,-20(s0)
/casa/workspace/Chronos-RISCV6/FreeRTOS/Debug/../riscv_hal/riscv_hal.c:229
	arg4 = *pointer;
800005ac:	fec42783          	lw	a5,-20(s0)
800005b0:	0007a783          	lw	a5,0(a5)
800005b4:	fcf42c23          	sw	a5,-40(s0)
/casa/workspace/Chronos-RISCV6/FreeRTOS/Debug/../riscv_hal/riscv_hal.c:231

	pointer = (unsigned int *)(temp + (36*4));
800005b8:	00028793          	mv	a5,t0
800005bc:	09078793          	addi	a5,a5,144
800005c0:	fef42623          	sw	a5,-20(s0)
/casa/workspace/Chronos-RISCV6/FreeRTOS/Debug/../riscv_hal/riscv_hal.c:232
	type = *pointer;
800005c4:	fec42783          	lw	a5,-20(s0)
800005c8:	0007a783          	lw	a5,0(a5)
800005cc:	fcf42a23          	sw	a5,-44(s0)
/casa/workspace/Chronos-RISCV6/FreeRTOS/Debug/../riscv_hal/riscv_hal.c:234

	switch (type){
800005d0:	fd442783          	lw	a5,-44(s0)
800005d4:	ff678793          	addi	a5,a5,-10
800005d8:	03800713          	li	a4,56
800005dc:	12f76663          	bltu	a4,a5,80000708 <handle_syscall+0x1f8>
800005e0:	00279713          	slli	a4,a5,0x2
800005e4:	800097b7          	lui	a5,0x80009
800005e8:	95c78793          	addi	a5,a5,-1700 # 8000895c <__stack_top+0xfffc19cc>
800005ec:	00f707b3          	add	a5,a4,a5
800005f0:	0007a783          	lw	a5,0(a5)
800005f4:	00078067          	jr	a5
/casa/workspace/Chronos-RISCV6/FreeRTOS/Debug/../riscv_hal/riscv_hal.c:237

		case SYS_TESTING:
			prints("Detectei uma chamada TESTE de sistema!\n");
800005f8:	800097b7          	lui	a5,0x80009
800005fc:	8c878513          	addi	a0,a5,-1848 # 800088c8 <__stack_top+0xfffc1938>
80000600:	679050ef          	jal	ra,80006478 <prints>
/casa/workspace/Chronos-RISCV6/FreeRTOS/Debug/../riscv_hal/riscv_hal.c:238
			printsv("arg0 ", arg0);
80000604:	fe842783          	lw	a5,-24(s0)
80000608:	00078593          	mv	a1,a5
8000060c:	800097b7          	lui	a5,0x80009
80000610:	8f078513          	addi	a0,a5,-1808 # 800088f0 <__stack_top+0xfffc1960>
80000614:	711050ef          	jal	ra,80006524 <printsv>
/casa/workspace/Chronos-RISCV6/FreeRTOS/Debug/../riscv_hal/riscv_hal.c:239
			printsv("arg1 ", arg1);
80000618:	fe442783          	lw	a5,-28(s0)
8000061c:	00078593          	mv	a1,a5
80000620:	800097b7          	lui	a5,0x80009
80000624:	8f878513          	addi	a0,a5,-1800 # 800088f8 <__stack_top+0xfffc1968>
80000628:	6fd050ef          	jal	ra,80006524 <printsv>
/casa/workspace/Chronos-RISCV6/FreeRTOS/Debug/../riscv_hal/riscv_hal.c:240
			printsv("arg2 ", arg2);
8000062c:	fe042783          	lw	a5,-32(s0)
80000630:	00078593          	mv	a1,a5
80000634:	800097b7          	lui	a5,0x80009
80000638:	90078513          	addi	a0,a5,-1792 # 80008900 <__stack_top+0xfffc1970>
8000063c:	6e9050ef          	jal	ra,80006524 <printsv>
/casa/workspace/Chronos-RISCV6/FreeRTOS/Debug/../riscv_hal/riscv_hal.c:241
			printsv("arg3 ", arg3);
80000640:	fdc42783          	lw	a5,-36(s0)
80000644:	00078593          	mv	a1,a5
80000648:	800097b7          	lui	a5,0x80009
8000064c:	90878513          	addi	a0,a5,-1784 # 80008908 <__stack_top+0xfffc1978>
80000650:	6d5050ef          	jal	ra,80006524 <printsv>
/casa/workspace/Chronos-RISCV6/FreeRTOS/Debug/../riscv_hal/riscv_hal.c:242
			printsv("arg4 ", arg4);
80000654:	fd842783          	lw	a5,-40(s0)
80000658:	00078593          	mv	a1,a5
8000065c:	800097b7          	lui	a5,0x80009
80000660:	91078513          	addi	a0,a5,-1776 # 80008910 <__stack_top+0xfffc1980>
80000664:	6c1050ef          	jal	ra,80006524 <printsv>
/casa/workspace/Chronos-RISCV6/FreeRTOS/Debug/../riscv_hal/riscv_hal.c:243
			printsv("type ", type);
80000668:	fd442783          	lw	a5,-44(s0)
8000066c:	00078593          	mv	a1,a5
80000670:	800097b7          	lui	a5,0x80009
80000674:	91878513          	addi	a0,a5,-1768 # 80008918 <__stack_top+0xfffc1988>
80000678:	6ad050ef          	jal	ra,80006524 <printsv>
/casa/workspace/Chronos-RISCV6/FreeRTOS/Debug/../riscv_hal/riscv_hal.c:244
			break;
8000067c:	1140006f          	j	80000790 <handle_syscall+0x280>
/casa/workspace/Chronos-RISCV6/FreeRTOS/Debug/../riscv_hal/riscv_hal.c:247

        case SYS_PRINTS:
            prints(arg0);
80000680:	fe842783          	lw	a5,-24(s0)
80000684:	00078513          	mv	a0,a5
80000688:	5f1050ef          	jal	ra,80006478 <prints>
/casa/workspace/Chronos-RISCV6/FreeRTOS/Debug/../riscv_hal/riscv_hal.c:248
            UART_polled_tx_string( &g_uart, arg0 );
8000068c:	fe842783          	lw	a5,-24(s0)
80000690:	00078593          	mv	a1,a5
80000694:	800277b7          	lui	a5,0x80027
80000698:	f7878513          	addi	a0,a5,-136 # 80026f78 <__stack_top+0xfffdffe8>
8000069c:	35d000ef          	jal	ra,800011f8 <UART_polled_tx_string>
/casa/workspace/Chronos-RISCV6/FreeRTOS/Debug/../riscv_hal/riscv_hal.c:249
            break;
800006a0:	0f00006f          	j	80000790 <handle_syscall+0x280>
/casa/workspace/Chronos-RISCV6/FreeRTOS/Debug/../riscv_hal/riscv_hal.c:252
        
        case SYS_PRINTI:
            printi(arg0);
800006a4:	fe842783          	lw	a5,-24(s0)
800006a8:	00078513          	mv	a0,a5
800006ac:	63d050ef          	jal	ra,800064e8 <printi>
/casa/workspace/Chronos-RISCV6/FreeRTOS/Debug/../riscv_hal/riscv_hal.c:253
            myItoa(arg0, str, 10);
800006b0:	fe842703          	lw	a4,-24(s0)
800006b4:	00a00613          	li	a2,10
800006b8:	800237b7          	lui	a5,0x80023
800006bc:	d6c78593          	addi	a1,a5,-660 # 80022d6c <__stack_top+0xfffdbddc>
800006c0:	00070513          	mv	a0,a4
800006c4:	21c060ef          	jal	ra,800068e0 <myItoa>
/casa/workspace/Chronos-RISCV6/FreeRTOS/Debug/../riscv_hal/riscv_hal.c:254
            UART_polled_tx_string( &g_uart, (const uint8_t *)str );
800006c8:	800237b7          	lui	a5,0x80023
800006cc:	d6c78593          	addi	a1,a5,-660 # 80022d6c <__stack_top+0xfffdbddc>
800006d0:	800277b7          	lui	a5,0x80027
800006d4:	f7878513          	addi	a0,a5,-136 # 80026f78 <__stack_top+0xfffdffe8>
800006d8:	321000ef          	jal	ra,800011f8 <UART_polled_tx_string>
/casa/workspace/Chronos-RISCV6/FreeRTOS/Debug/../riscv_hal/riscv_hal.c:255
            break;
800006dc:	0b40006f          	j	80000790 <handle_syscall+0x280>
/casa/workspace/Chronos-RISCV6/FreeRTOS/Debug/../riscv_hal/riscv_hal.c:259
        
        case SYS_SEND_MSG:
            //              addr, task
            API_SendMessage(arg0, arg1);
800006e0:	fe442583          	lw	a1,-28(s0)
800006e4:	fe842503          	lw	a0,-24(s0)
800006e8:	1c9060ef          	jal	ra,800070b0 <API_SendMessage>
/casa/workspace/Chronos-RISCV6/FreeRTOS/Debug/../riscv_hal/riscv_hal.c:260
            break;
800006ec:	0a40006f          	j	80000790 <handle_syscall+0x280>
/casa/workspace/Chronos-RISCV6/FreeRTOS/Debug/../riscv_hal/riscv_hal.c:264
        
        case SYS_RECV_MSG:
            //                 addr, task
            API_SendMessageReq(arg0, arg1);
800006f0:	fe442583          	lw	a1,-28(s0)
800006f4:	fe842503          	lw	a0,-24(s0)
800006f8:	7a5060ef          	jal	ra,8000769c <API_SendMessageReq>
/casa/workspace/Chronos-RISCV6/FreeRTOS/Debug/../riscv_hal/riscv_hal.c:265
            break;
800006fc:	0940006f          	j	80000790 <handle_syscall+0x280>
/casa/workspace/Chronos-RISCV6/FreeRTOS/Debug/../riscv_hal/riscv_hal.c:268
        
        case SYS_END_TASK:
            API_FinishRunningTask();
80000700:	1d1040ef          	jal	ra,800050d0 <API_FinishRunningTask>
/casa/workspace/Chronos-RISCV6/FreeRTOS/Debug/../riscv_hal/riscv_hal.c:269
            break;
80000704:	08c0006f          	j	80000790 <handle_syscall+0x280>
/casa/workspace/Chronos-RISCV6/FreeRTOS/Debug/../riscv_hal/riscv_hal.c:272

		default:
			prints("Systemcall no identificada!\n");
80000708:	800097b7          	lui	a5,0x80009
8000070c:	92078513          	addi	a0,a5,-1760 # 80008920 <__stack_top+0xfffc1990>
80000710:	569050ef          	jal	ra,80006478 <prints>
/casa/workspace/Chronos-RISCV6/FreeRTOS/Debug/../riscv_hal/riscv_hal.c:273
			printsv("arg0 ", arg0);
80000714:	fe842783          	lw	a5,-24(s0)
80000718:	00078593          	mv	a1,a5
8000071c:	800097b7          	lui	a5,0x80009
80000720:	8f078513          	addi	a0,a5,-1808 # 800088f0 <__stack_top+0xfffc1960>
80000724:	601050ef          	jal	ra,80006524 <printsv>
/casa/workspace/Chronos-RISCV6/FreeRTOS/Debug/../riscv_hal/riscv_hal.c:274
			printsv("arg1 ", arg1);
80000728:	fe442783          	lw	a5,-28(s0)
8000072c:	00078593          	mv	a1,a5
80000730:	800097b7          	lui	a5,0x80009
80000734:	8f878513          	addi	a0,a5,-1800 # 800088f8 <__stack_top+0xfffc1968>
80000738:	5ed050ef          	jal	ra,80006524 <printsv>
/casa/workspace/Chronos-RISCV6/FreeRTOS/Debug/../riscv_hal/riscv_hal.c:275
			printsv("arg2 ", arg2);
8000073c:	fe042783          	lw	a5,-32(s0)
80000740:	00078593          	mv	a1,a5
80000744:	800097b7          	lui	a5,0x80009
80000748:	90078513          	addi	a0,a5,-1792 # 80008900 <__stack_top+0xfffc1970>
8000074c:	5d9050ef          	jal	ra,80006524 <printsv>
/casa/workspace/Chronos-RISCV6/FreeRTOS/Debug/../riscv_hal/riscv_hal.c:276
			printsv("arg3 ", arg3);
80000750:	fdc42783          	lw	a5,-36(s0)
80000754:	00078593          	mv	a1,a5
80000758:	800097b7          	lui	a5,0x80009
8000075c:	90878513          	addi	a0,a5,-1784 # 80008908 <__stack_top+0xfffc1978>
80000760:	5c5050ef          	jal	ra,80006524 <printsv>
/casa/workspace/Chronos-RISCV6/FreeRTOS/Debug/../riscv_hal/riscv_hal.c:277
			printsv("arg4 ", arg4);
80000764:	fd842783          	lw	a5,-40(s0)
80000768:	00078593          	mv	a1,a5
8000076c:	800097b7          	lui	a5,0x80009
80000770:	91078513          	addi	a0,a5,-1776 # 80008910 <__stack_top+0xfffc1980>
80000774:	5b1050ef          	jal	ra,80006524 <printsv>
/casa/workspace/Chronos-RISCV6/FreeRTOS/Debug/../riscv_hal/riscv_hal.c:278
			printsv("type ", type);
80000778:	fd442783          	lw	a5,-44(s0)
8000077c:	00078593          	mv	a1,a5
80000780:	800097b7          	lui	a5,0x80009
80000784:	91878513          	addi	a0,a5,-1768 # 80008918 <__stack_top+0xfffc1988>
80000788:	59d050ef          	jal	ra,80006524 <printsv>
/casa/workspace/Chronos-RISCV6/FreeRTOS/Debug/../riscv_hal/riscv_hal.c:279
			break;
8000078c:	00000013          	nop
/casa/workspace/Chronos-RISCV6/FreeRTOS/Debug/../riscv_hal/riscv_hal.c:281
	}
	return;
80000790:	00000013          	nop
/casa/workspace/Chronos-RISCV6/FreeRTOS/Debug/../riscv_hal/riscv_hal.c:296
	// 	value = *p;
	// 	printsvsv("i: ", i, " value: ", value);
	// }
    // prints("Cheguei aqui!!!!!!! sucessooo :D\n");
	////////////////////////////////////////////////////
}
80000794:	02c12083          	lw	ra,44(sp)
80000798:	02812403          	lw	s0,40(sp)
8000079c:	03010113          	addi	sp,sp,48
800007a0:	00008067          	ret

800007a4 <handle_trap>:
handle_trap():
/casa/workspace/Chronos-RISCV6/FreeRTOS/Debug/../riscv_hal/riscv_hal.c:302

/*------------------------------------------------------------------------------
 * Trap/Interrupt handler
 */
uintptr_t handle_trap(uintptr_t mcause, uintptr_t epc)
{
800007a4:	fe010113          	addi	sp,sp,-32
800007a8:	00112e23          	sw	ra,28(sp)
800007ac:	00812c23          	sw	s0,24(sp)
800007b0:	02010413          	addi	s0,sp,32
800007b4:	fea42623          	sw	a0,-20(s0)
800007b8:	feb42423          	sw	a1,-24(s0)
/casa/workspace/Chronos-RISCV6/FreeRTOS/Debug/../riscv_hal/riscv_hal.c:303
    if (!(mcause & MCAUSE_INT) && ((mcause & MCAUSE_CAUSE) == ENV_CALL_M || (mcause & MCAUSE_CAUSE) == ENV_CALL_H || (mcause & MCAUSE_CAUSE) == ENV_CALL_S || (mcause & MCAUSE_CAUSE) == ENV_CALL_U)){
800007bc:	fec42783          	lw	a5,-20(s0)
800007c0:	0607cc63          	bltz	a5,80000838 <handle_trap+0x94>
/casa/workspace/Chronos-RISCV6/FreeRTOS/Debug/../riscv_hal/riscv_hal.c:303 (discriminator 1)
800007c4:	fec42703          	lw	a4,-20(s0)
800007c8:	800007b7          	lui	a5,0x80000
800007cc:	fff7c793          	not	a5,a5
800007d0:	00f77733          	and	a4,a4,a5
800007d4:	00b00793          	li	a5,11
800007d8:	04f70663          	beq	a4,a5,80000824 <handle_trap+0x80>
/casa/workspace/Chronos-RISCV6/FreeRTOS/Debug/../riscv_hal/riscv_hal.c:303 (discriminator 2)
800007dc:	fec42703          	lw	a4,-20(s0)
800007e0:	800007b7          	lui	a5,0x80000
800007e4:	fff7c793          	not	a5,a5
800007e8:	00f77733          	and	a4,a4,a5
800007ec:	00a00793          	li	a5,10
800007f0:	02f70a63          	beq	a4,a5,80000824 <handle_trap+0x80>
/casa/workspace/Chronos-RISCV6/FreeRTOS/Debug/../riscv_hal/riscv_hal.c:303 (discriminator 3)
800007f4:	fec42703          	lw	a4,-20(s0)
800007f8:	800007b7          	lui	a5,0x80000
800007fc:	fff7c793          	not	a5,a5
80000800:	00f77733          	and	a4,a4,a5
80000804:	00900793          	li	a5,9
80000808:	00f70e63          	beq	a4,a5,80000824 <handle_trap+0x80>
/casa/workspace/Chronos-RISCV6/FreeRTOS/Debug/../riscv_hal/riscv_hal.c:303 (discriminator 4)
8000080c:	fec42703          	lw	a4,-20(s0)
80000810:	800007b7          	lui	a5,0x80000
80000814:	fff7c793          	not	a5,a5
80000818:	00f77733          	and	a4,a4,a5
8000081c:	00800793          	li	a5,8
80000820:	00f71c63          	bne	a4,a5,80000838 <handle_trap+0x94>
/casa/workspace/Chronos-RISCV6/FreeRTOS/Debug/../riscv_hal/riscv_hal.c:304
        handle_syscall();
80000824:	cedff0ef          	jal	ra,80000510 <handle_syscall>
/casa/workspace/Chronos-RISCV6/FreeRTOS/Debug/../riscv_hal/riscv_hal.c:305
        epc = (uintptr_t) (epc + 4);
80000828:	fe842783          	lw	a5,-24(s0)
8000082c:	00478793          	addi	a5,a5,4 # 80000004 <__stack_top+0xfffb9074>
80000830:	fef42423          	sw	a5,-24(s0)
80000834:	0c40006f          	j	800008f8 <handle_trap+0x154>
/casa/workspace/Chronos-RISCV6/FreeRTOS/Debug/../riscv_hal/riscv_hal.c:307
    }
    else if ((mcause & MCAUSE_INT) && ((mcause & MCAUSE_CAUSE)  == IRQ_M_EXT)){
80000838:	fec42783          	lw	a5,-20(s0)
8000083c:	0207d263          	bgez	a5,80000860 <handle_trap+0xbc>
/casa/workspace/Chronos-RISCV6/FreeRTOS/Debug/../riscv_hal/riscv_hal.c:307 (discriminator 1)
80000840:	fec42703          	lw	a4,-20(s0)
80000844:	800007b7          	lui	a5,0x80000
80000848:	fff7c793          	not	a5,a5
8000084c:	00f77733          	and	a4,a4,a5
80000850:	00b00793          	li	a5,11
80000854:	00f71663          	bne	a4,a5,80000860 <handle_trap+0xbc>
/casa/workspace/Chronos-RISCV6/FreeRTOS/Debug/../riscv_hal/riscv_hal.c:308
        handle_m_ext_interrupt();
80000858:	c15ff0ef          	jal	ra,8000046c <handle_m_ext_interrupt>
8000085c:	09c0006f          	j	800008f8 <handle_trap+0x154>
/casa/workspace/Chronos-RISCV6/FreeRTOS/Debug/../riscv_hal/riscv_hal.c:310
    }
    else if ((mcause & MCAUSE_INT) && ((mcause & MCAUSE_CAUSE)  == IRQ_M_TIMER)){
80000860:	fec42783          	lw	a5,-20(s0)
80000864:	0207d263          	bgez	a5,80000888 <handle_trap+0xe4>
/casa/workspace/Chronos-RISCV6/FreeRTOS/Debug/../riscv_hal/riscv_hal.c:310 (discriminator 1)
80000868:	fec42703          	lw	a4,-20(s0)
8000086c:	800007b7          	lui	a5,0x80000
80000870:	fff7c793          	not	a5,a5
80000874:	00f77733          	and	a4,a4,a5
80000878:	00700793          	li	a5,7
8000087c:	00f71663          	bne	a4,a5,80000888 <handle_trap+0xe4>
/casa/workspace/Chronos-RISCV6/FreeRTOS/Debug/../riscv_hal/riscv_hal.c:311
        handle_m_timer_interrupt();
80000880:	b45ff0ef          	jal	ra,800003c4 <handle_m_timer_interrupt>
80000884:	0740006f          	j	800008f8 <handle_trap+0x154>
/casa/workspace/Chronos-RISCV6/FreeRTOS/Debug/../riscv_hal/riscv_hal.c:313
    }
    else if ((mcause & MCAUSE_INT) && ((mcause & MCAUSE_CAUSE)  == IRQ_M_SOFT)){
80000888:	fec42783          	lw	a5,-20(s0)
8000088c:	0207d263          	bgez	a5,800008b0 <handle_trap+0x10c>
/casa/workspace/Chronos-RISCV6/FreeRTOS/Debug/../riscv_hal/riscv_hal.c:313 (discriminator 1)
80000890:	fec42703          	lw	a4,-20(s0)
80000894:	800007b7          	lui	a5,0x80000
80000898:	fff7c793          	not	a5,a5
8000089c:	00f77733          	and	a4,a4,a5
800008a0:	00300793          	li	a5,3
800008a4:	00f71663          	bne	a4,a5,800008b0 <handle_trap+0x10c>
/casa/workspace/Chronos-RISCV6/FreeRTOS/Debug/../riscv_hal/riscv_hal.c:314
        handle_m_soft_interrupt();
800008a8:	c39ff0ef          	jal	ra,800004e0 <handle_m_soft_interrupt>
800008ac:	04c0006f          	j	800008f8 <handle_trap+0x154>
/casa/workspace/Chronos-RISCV6/FreeRTOS/Debug/../riscv_hal/riscv_hal.c:317
    }
    else{
        write(1, "trap\n", 5);
800008b0:	00500613          	li	a2,5
800008b4:	800097b7          	lui	a5,0x80009
800008b8:	94078593          	addi	a1,a5,-1728 # 80008940 <__stack_top+0xfffc19b0>
800008bc:	00100513          	li	a0,1
800008c0:	785070ef          	jal	ra,80008844 <write>
/casa/workspace/Chronos-RISCV6/FreeRTOS/Debug/../riscv_hal/riscv_hal.c:318
        printsv("epc: ", epc);
800008c4:	fe842783          	lw	a5,-24(s0)
800008c8:	00078593          	mv	a1,a5
800008cc:	800097b7          	lui	a5,0x80009
800008d0:	94878513          	addi	a0,a5,-1720 # 80008948 <__stack_top+0xfffc19b8>
800008d4:	451050ef          	jal	ra,80006524 <printsv>
/casa/workspace/Chronos-RISCV6/FreeRTOS/Debug/../riscv_hal/riscv_hal.c:319
        printsv("mcause: ", mcause);
800008d8:	fec42783          	lw	a5,-20(s0)
800008dc:	00078593          	mv	a1,a5
800008e0:	800097b7          	lui	a5,0x80009
800008e4:	95078513          	addi	a0,a5,-1712 # 80008950 <__stack_top+0xfffc19c0>
800008e8:	43d050ef          	jal	ra,80006524 <printsv>
/casa/workspace/Chronos-RISCV6/FreeRTOS/Debug/../riscv_hal/riscv_hal.c:320
        _exit(mcause);
800008ec:	fec42783          	lw	a5,-20(s0)
800008f0:	00078513          	mv	a0,a5
800008f4:	4a8000ef          	jal	ra,80000d9c <_exit>
/casa/workspace/Chronos-RISCV6/FreeRTOS/Debug/../riscv_hal/riscv_hal.c:324
    }
    
    // Added by Iaan, solves several interruption problems!
    portDISABLE_INTERRUPTS(); 
800008f8:	30047073          	csrci	mstatus,8
/casa/workspace/Chronos-RISCV6/FreeRTOS/Debug/../riscv_hal/riscv_hal.c:325
    return epc;
800008fc:	fe842783          	lw	a5,-24(s0)
/casa/workspace/Chronos-RISCV6/FreeRTOS/Debug/../riscv_hal/riscv_hal.c:326
}
80000900:	00078513          	mv	a0,a5
80000904:	01c12083          	lw	ra,28(sp)
80000908:	01812403          	lw	s0,24(sp)
8000090c:	02010113          	addi	sp,sp,32
80000910:	00008067          	ret

80000914 <Invalid_IRQHandler>:
Invalid_IRQHandler():
/casa/workspace/Chronos-RISCV6/FreeRTOS/Debug/../riscv_hal/riscv_hal_stubs.c:37
{
    ;
}

__attribute__((weak))  uint8_t Invalid_IRQHandler(void)
{
80000914:	ff010113          	addi	sp,sp,-16
80000918:	00812623          	sw	s0,12(sp)
8000091c:	01010413          	addi	s0,sp,16
/casa/workspace/Chronos-RISCV6/FreeRTOS/Debug/../riscv_hal/riscv_hal_stubs.c:38
    return(0);
80000920:	00000793          	li	a5,0
/casa/workspace/Chronos-RISCV6/FreeRTOS/Debug/../riscv_hal/riscv_hal_stubs.c:39
}
80000924:	00078513          	mv	a0,a5
80000928:	00c12403          	lw	s0,12(sp)
8000092c:	01010113          	addi	sp,sp,16
80000930:	00008067          	ret

80000934 <External_1_IRQHandler>:
External_1_IRQHandler():
/casa/workspace/Chronos-RISCV6/FreeRTOS/Debug/../riscv_hal/riscv_hal_stubs.c:42

__attribute__((weak))  uint8_t External_1_IRQHandler(void)
{
80000934:	ff010113          	addi	sp,sp,-16
80000938:	00812623          	sw	s0,12(sp)
8000093c:	01010413          	addi	s0,sp,16
/casa/workspace/Chronos-RISCV6/FreeRTOS/Debug/../riscv_hal/riscv_hal_stubs.c:43
    return(0);
80000940:	00000793          	li	a5,0
/casa/workspace/Chronos-RISCV6/FreeRTOS/Debug/../riscv_hal/riscv_hal_stubs.c:44
}
80000944:	00078513          	mv	a0,a5
80000948:	00c12403          	lw	s0,12(sp)
8000094c:	01010113          	addi	sp,sp,16
80000950:	00008067          	ret

80000954 <External_5_IRQHandler>:
External_5_IRQHandler():
/casa/workspace/Chronos-RISCV6/FreeRTOS/Debug/../riscv_hal/riscv_hal_stubs.c:62
{
    return(0);
}

__attribute__((weak))  uint8_t External_5_IRQHandler(void)
{
80000954:	ff010113          	addi	sp,sp,-16
80000958:	00812623          	sw	s0,12(sp)
8000095c:	01010413          	addi	s0,sp,16
/casa/workspace/Chronos-RISCV6/FreeRTOS/Debug/../riscv_hal/riscv_hal_stubs.c:63
    return(0);
80000960:	00000793          	li	a5,0
/casa/workspace/Chronos-RISCV6/FreeRTOS/Debug/../riscv_hal/riscv_hal_stubs.c:64
}
80000964:	00078513          	mv	a0,a5
80000968:	00c12403          	lw	s0,12(sp)
8000096c:	01010113          	addi	sp,sp,16
80000970:	00008067          	ret

80000974 <External_6_IRQHandler>:
External_6_IRQHandler():
/casa/workspace/Chronos-RISCV6/FreeRTOS/Debug/../riscv_hal/riscv_hal_stubs.c:67

__attribute__((weak))  uint8_t External_6_IRQHandler(void)
{
80000974:	ff010113          	addi	sp,sp,-16
80000978:	00812623          	sw	s0,12(sp)
8000097c:	01010413          	addi	s0,sp,16
/casa/workspace/Chronos-RISCV6/FreeRTOS/Debug/../riscv_hal/riscv_hal_stubs.c:68
    return(0);
80000980:	00000793          	li	a5,0
/casa/workspace/Chronos-RISCV6/FreeRTOS/Debug/../riscv_hal/riscv_hal_stubs.c:69
}
80000984:	00078513          	mv	a0,a5
80000988:	00c12403          	lw	s0,12(sp)
8000098c:	01010113          	addi	sp,sp,16
80000990:	00008067          	ret

80000994 <External_7_IRQHandler>:
External_7_IRQHandler():
/casa/workspace/Chronos-RISCV6/FreeRTOS/Debug/../riscv_hal/riscv_hal_stubs.c:72

__attribute__((weak))  uint8_t External_7_IRQHandler(void)
{
80000994:	ff010113          	addi	sp,sp,-16
80000998:	00812623          	sw	s0,12(sp)
8000099c:	01010413          	addi	s0,sp,16
/casa/workspace/Chronos-RISCV6/FreeRTOS/Debug/../riscv_hal/riscv_hal_stubs.c:73
    return(0);
800009a0:	00000793          	li	a5,0
/casa/workspace/Chronos-RISCV6/FreeRTOS/Debug/../riscv_hal/riscv_hal_stubs.c:74
}
800009a4:	00078513          	mv	a0,a5
800009a8:	00c12403          	lw	s0,12(sp)
800009ac:	01010113          	addi	sp,sp,16
800009b0:	00008067          	ret

800009b4 <External_8_IRQHandler>:
External_8_IRQHandler():
/casa/workspace/Chronos-RISCV6/FreeRTOS/Debug/../riscv_hal/riscv_hal_stubs.c:77

__attribute__((weak))  uint8_t External_8_IRQHandler(void)
{
800009b4:	ff010113          	addi	sp,sp,-16
800009b8:	00812623          	sw	s0,12(sp)
800009bc:	01010413          	addi	s0,sp,16
/casa/workspace/Chronos-RISCV6/FreeRTOS/Debug/../riscv_hal/riscv_hal_stubs.c:78
    return(0);
800009c0:	00000793          	li	a5,0
/casa/workspace/Chronos-RISCV6/FreeRTOS/Debug/../riscv_hal/riscv_hal_stubs.c:79
}
800009c4:	00078513          	mv	a0,a5
800009c8:	00c12403          	lw	s0,12(sp)
800009cc:	01010113          	addi	sp,sp,16
800009d0:	00008067          	ret

800009d4 <External_9_IRQHandler>:
External_9_IRQHandler():
/casa/workspace/Chronos-RISCV6/FreeRTOS/Debug/../riscv_hal/riscv_hal_stubs.c:82

__attribute__((weak))  uint8_t External_9_IRQHandler(void)
{
800009d4:	ff010113          	addi	sp,sp,-16
800009d8:	00812623          	sw	s0,12(sp)
800009dc:	01010413          	addi	s0,sp,16
/casa/workspace/Chronos-RISCV6/FreeRTOS/Debug/../riscv_hal/riscv_hal_stubs.c:83
    return(0);
800009e0:	00000793          	li	a5,0
/casa/workspace/Chronos-RISCV6/FreeRTOS/Debug/../riscv_hal/riscv_hal_stubs.c:84
}
800009e4:	00078513          	mv	a0,a5
800009e8:	00c12403          	lw	s0,12(sp)
800009ec:	01010113          	addi	sp,sp,16
800009f0:	00008067          	ret

800009f4 <External_10_IRQHandler>:
External_10_IRQHandler():
/casa/workspace/Chronos-RISCV6/FreeRTOS/Debug/../riscv_hal/riscv_hal_stubs.c:87

__attribute__((weak))  uint8_t External_10_IRQHandler(void)
{
800009f4:	ff010113          	addi	sp,sp,-16
800009f8:	00812623          	sw	s0,12(sp)
800009fc:	01010413          	addi	s0,sp,16
/casa/workspace/Chronos-RISCV6/FreeRTOS/Debug/../riscv_hal/riscv_hal_stubs.c:88
    return(0);
80000a00:	00000793          	li	a5,0
/casa/workspace/Chronos-RISCV6/FreeRTOS/Debug/../riscv_hal/riscv_hal_stubs.c:89
}
80000a04:	00078513          	mv	a0,a5
80000a08:	00c12403          	lw	s0,12(sp)
80000a0c:	01010113          	addi	sp,sp,16
80000a10:	00008067          	ret

80000a14 <External_11_IRQHandler>:
External_11_IRQHandler():
/casa/workspace/Chronos-RISCV6/FreeRTOS/Debug/../riscv_hal/riscv_hal_stubs.c:92

__attribute__((weak))  uint8_t External_11_IRQHandler(void)
{
80000a14:	ff010113          	addi	sp,sp,-16
80000a18:	00812623          	sw	s0,12(sp)
80000a1c:	01010413          	addi	s0,sp,16
/casa/workspace/Chronos-RISCV6/FreeRTOS/Debug/../riscv_hal/riscv_hal_stubs.c:93
    return(0);
80000a20:	00000793          	li	a5,0
/casa/workspace/Chronos-RISCV6/FreeRTOS/Debug/../riscv_hal/riscv_hal_stubs.c:94
}
80000a24:	00078513          	mv	a0,a5
80000a28:	00c12403          	lw	s0,12(sp)
80000a2c:	01010113          	addi	sp,sp,16
80000a30:	00008067          	ret

80000a34 <External_12_IRQHandler>:
External_12_IRQHandler():
/casa/workspace/Chronos-RISCV6/FreeRTOS/Debug/../riscv_hal/riscv_hal_stubs.c:97

__attribute__((weak))  uint8_t External_12_IRQHandler(void)
{
80000a34:	ff010113          	addi	sp,sp,-16
80000a38:	00812623          	sw	s0,12(sp)
80000a3c:	01010413          	addi	s0,sp,16
/casa/workspace/Chronos-RISCV6/FreeRTOS/Debug/../riscv_hal/riscv_hal_stubs.c:98
    return(0);
80000a40:	00000793          	li	a5,0
/casa/workspace/Chronos-RISCV6/FreeRTOS/Debug/../riscv_hal/riscv_hal_stubs.c:99
}
80000a44:	00078513          	mv	a0,a5
80000a48:	00c12403          	lw	s0,12(sp)
80000a4c:	01010113          	addi	sp,sp,16
80000a50:	00008067          	ret

80000a54 <External_13_IRQHandler>:
External_13_IRQHandler():
/casa/workspace/Chronos-RISCV6/FreeRTOS/Debug/../riscv_hal/riscv_hal_stubs.c:102

__attribute__((weak))  uint8_t External_13_IRQHandler(void)
{
80000a54:	ff010113          	addi	sp,sp,-16
80000a58:	00812623          	sw	s0,12(sp)
80000a5c:	01010413          	addi	s0,sp,16
/casa/workspace/Chronos-RISCV6/FreeRTOS/Debug/../riscv_hal/riscv_hal_stubs.c:103
    return(0);
80000a60:	00000793          	li	a5,0
/casa/workspace/Chronos-RISCV6/FreeRTOS/Debug/../riscv_hal/riscv_hal_stubs.c:104
}
80000a64:	00078513          	mv	a0,a5
80000a68:	00c12403          	lw	s0,12(sp)
80000a6c:	01010113          	addi	sp,sp,16
80000a70:	00008067          	ret

80000a74 <External_14_IRQHandler>:
External_14_IRQHandler():
/casa/workspace/Chronos-RISCV6/FreeRTOS/Debug/../riscv_hal/riscv_hal_stubs.c:107

__attribute__((weak))  uint8_t External_14_IRQHandler(void)
{
80000a74:	ff010113          	addi	sp,sp,-16
80000a78:	00812623          	sw	s0,12(sp)
80000a7c:	01010413          	addi	s0,sp,16
/casa/workspace/Chronos-RISCV6/FreeRTOS/Debug/../riscv_hal/riscv_hal_stubs.c:108
    return(0);
80000a80:	00000793          	li	a5,0
/casa/workspace/Chronos-RISCV6/FreeRTOS/Debug/../riscv_hal/riscv_hal_stubs.c:109
}
80000a84:	00078513          	mv	a0,a5
80000a88:	00c12403          	lw	s0,12(sp)
80000a8c:	01010113          	addi	sp,sp,16
80000a90:	00008067          	ret

80000a94 <External_15_IRQHandler>:
External_15_IRQHandler():
/casa/workspace/Chronos-RISCV6/FreeRTOS/Debug/../riscv_hal/riscv_hal_stubs.c:112

__attribute__((weak))  uint8_t External_15_IRQHandler(void)
{
80000a94:	ff010113          	addi	sp,sp,-16
80000a98:	00812623          	sw	s0,12(sp)
80000a9c:	01010413          	addi	s0,sp,16
/casa/workspace/Chronos-RISCV6/FreeRTOS/Debug/../riscv_hal/riscv_hal_stubs.c:113
    return(0);
80000aa0:	00000793          	li	a5,0
/casa/workspace/Chronos-RISCV6/FreeRTOS/Debug/../riscv_hal/riscv_hal_stubs.c:114
}
80000aa4:	00078513          	mv	a0,a5
80000aa8:	00c12403          	lw	s0,12(sp)
80000aac:	01010113          	addi	sp,sp,16
80000ab0:	00008067          	ret

80000ab4 <External_16_IRQHandler>:
External_16_IRQHandler():
/casa/workspace/Chronos-RISCV6/FreeRTOS/Debug/../riscv_hal/riscv_hal_stubs.c:117

__attribute__((weak))  uint8_t External_16_IRQHandler(void)
{
80000ab4:	ff010113          	addi	sp,sp,-16
80000ab8:	00812623          	sw	s0,12(sp)
80000abc:	01010413          	addi	s0,sp,16
/casa/workspace/Chronos-RISCV6/FreeRTOS/Debug/../riscv_hal/riscv_hal_stubs.c:118
    return(0);
80000ac0:	00000793          	li	a5,0
/casa/workspace/Chronos-RISCV6/FreeRTOS/Debug/../riscv_hal/riscv_hal_stubs.c:119
}
80000ac4:	00078513          	mv	a0,a5
80000ac8:	00c12403          	lw	s0,12(sp)
80000acc:	01010113          	addi	sp,sp,16
80000ad0:	00008067          	ret

80000ad4 <External_17_IRQHandler>:
External_17_IRQHandler():
/casa/workspace/Chronos-RISCV6/FreeRTOS/Debug/../riscv_hal/riscv_hal_stubs.c:122

__attribute__((weak))  uint8_t External_17_IRQHandler(void)
{
80000ad4:	ff010113          	addi	sp,sp,-16
80000ad8:	00812623          	sw	s0,12(sp)
80000adc:	01010413          	addi	s0,sp,16
/casa/workspace/Chronos-RISCV6/FreeRTOS/Debug/../riscv_hal/riscv_hal_stubs.c:123
    return(0);
80000ae0:	00000793          	li	a5,0
/casa/workspace/Chronos-RISCV6/FreeRTOS/Debug/../riscv_hal/riscv_hal_stubs.c:124
}
80000ae4:	00078513          	mv	a0,a5
80000ae8:	00c12403          	lw	s0,12(sp)
80000aec:	01010113          	addi	sp,sp,16
80000af0:	00008067          	ret

80000af4 <External_18_IRQHandler>:
External_18_IRQHandler():
/casa/workspace/Chronos-RISCV6/FreeRTOS/Debug/../riscv_hal/riscv_hal_stubs.c:127

__attribute__((weak))  uint8_t External_18_IRQHandler(void)
{
80000af4:	ff010113          	addi	sp,sp,-16
80000af8:	00812623          	sw	s0,12(sp)
80000afc:	01010413          	addi	s0,sp,16
/casa/workspace/Chronos-RISCV6/FreeRTOS/Debug/../riscv_hal/riscv_hal_stubs.c:128
    return(0);
80000b00:	00000793          	li	a5,0
/casa/workspace/Chronos-RISCV6/FreeRTOS/Debug/../riscv_hal/riscv_hal_stubs.c:129
}
80000b04:	00078513          	mv	a0,a5
80000b08:	00c12403          	lw	s0,12(sp)
80000b0c:	01010113          	addi	sp,sp,16
80000b10:	00008067          	ret

80000b14 <External_19_IRQHandler>:
External_19_IRQHandler():
/casa/workspace/Chronos-RISCV6/FreeRTOS/Debug/../riscv_hal/riscv_hal_stubs.c:132

__attribute__((weak))  uint8_t External_19_IRQHandler(void)
{
80000b14:	ff010113          	addi	sp,sp,-16
80000b18:	00812623          	sw	s0,12(sp)
80000b1c:	01010413          	addi	s0,sp,16
/casa/workspace/Chronos-RISCV6/FreeRTOS/Debug/../riscv_hal/riscv_hal_stubs.c:133
    return(0);
80000b20:	00000793          	li	a5,0
/casa/workspace/Chronos-RISCV6/FreeRTOS/Debug/../riscv_hal/riscv_hal_stubs.c:134
}
80000b24:	00078513          	mv	a0,a5
80000b28:	00c12403          	lw	s0,12(sp)
80000b2c:	01010113          	addi	sp,sp,16
80000b30:	00008067          	ret

80000b34 <External_20_IRQHandler>:
External_20_IRQHandler():
/casa/workspace/Chronos-RISCV6/FreeRTOS/Debug/../riscv_hal/riscv_hal_stubs.c:137

__attribute__((weak))  uint8_t External_20_IRQHandler(void)
{
80000b34:	ff010113          	addi	sp,sp,-16
80000b38:	00812623          	sw	s0,12(sp)
80000b3c:	01010413          	addi	s0,sp,16
/casa/workspace/Chronos-RISCV6/FreeRTOS/Debug/../riscv_hal/riscv_hal_stubs.c:138
    return(0);
80000b40:	00000793          	li	a5,0
/casa/workspace/Chronos-RISCV6/FreeRTOS/Debug/../riscv_hal/riscv_hal_stubs.c:139
}
80000b44:	00078513          	mv	a0,a5
80000b48:	00c12403          	lw	s0,12(sp)
80000b4c:	01010113          	addi	sp,sp,16
80000b50:	00008067          	ret

80000b54 <External_21_IRQHandler>:
External_21_IRQHandler():
/casa/workspace/Chronos-RISCV6/FreeRTOS/Debug/../riscv_hal/riscv_hal_stubs.c:142

__attribute__((weak))  uint8_t External_21_IRQHandler(void)
{
80000b54:	ff010113          	addi	sp,sp,-16
80000b58:	00812623          	sw	s0,12(sp)
80000b5c:	01010413          	addi	s0,sp,16
/casa/workspace/Chronos-RISCV6/FreeRTOS/Debug/../riscv_hal/riscv_hal_stubs.c:143
    return(0);
80000b60:	00000793          	li	a5,0
/casa/workspace/Chronos-RISCV6/FreeRTOS/Debug/../riscv_hal/riscv_hal_stubs.c:144
}
80000b64:	00078513          	mv	a0,a5
80000b68:	00c12403          	lw	s0,12(sp)
80000b6c:	01010113          	addi	sp,sp,16
80000b70:	00008067          	ret

80000b74 <External_22_IRQHandler>:
External_22_IRQHandler():
/casa/workspace/Chronos-RISCV6/FreeRTOS/Debug/../riscv_hal/riscv_hal_stubs.c:147

__attribute__((weak))  uint8_t External_22_IRQHandler(void)
{
80000b74:	ff010113          	addi	sp,sp,-16
80000b78:	00812623          	sw	s0,12(sp)
80000b7c:	01010413          	addi	s0,sp,16
/casa/workspace/Chronos-RISCV6/FreeRTOS/Debug/../riscv_hal/riscv_hal_stubs.c:148
    return(0);
80000b80:	00000793          	li	a5,0
/casa/workspace/Chronos-RISCV6/FreeRTOS/Debug/../riscv_hal/riscv_hal_stubs.c:149
}
80000b84:	00078513          	mv	a0,a5
80000b88:	00c12403          	lw	s0,12(sp)
80000b8c:	01010113          	addi	sp,sp,16
80000b90:	00008067          	ret

80000b94 <External_23_IRQHandler>:
External_23_IRQHandler():
/casa/workspace/Chronos-RISCV6/FreeRTOS/Debug/../riscv_hal/riscv_hal_stubs.c:152

__attribute__((weak))  uint8_t External_23_IRQHandler(void)
{
80000b94:	ff010113          	addi	sp,sp,-16
80000b98:	00812623          	sw	s0,12(sp)
80000b9c:	01010413          	addi	s0,sp,16
/casa/workspace/Chronos-RISCV6/FreeRTOS/Debug/../riscv_hal/riscv_hal_stubs.c:153
    return(0);
80000ba0:	00000793          	li	a5,0
/casa/workspace/Chronos-RISCV6/FreeRTOS/Debug/../riscv_hal/riscv_hal_stubs.c:154
}
80000ba4:	00078513          	mv	a0,a5
80000ba8:	00c12403          	lw	s0,12(sp)
80000bac:	01010113          	addi	sp,sp,16
80000bb0:	00008067          	ret

80000bb4 <External_24_IRQHandler>:
External_24_IRQHandler():
/casa/workspace/Chronos-RISCV6/FreeRTOS/Debug/../riscv_hal/riscv_hal_stubs.c:157

__attribute__((weak))  uint8_t External_24_IRQHandler(void)
{
80000bb4:	ff010113          	addi	sp,sp,-16
80000bb8:	00812623          	sw	s0,12(sp)
80000bbc:	01010413          	addi	s0,sp,16
/casa/workspace/Chronos-RISCV6/FreeRTOS/Debug/../riscv_hal/riscv_hal_stubs.c:158
    return(0);
80000bc0:	00000793          	li	a5,0
/casa/workspace/Chronos-RISCV6/FreeRTOS/Debug/../riscv_hal/riscv_hal_stubs.c:159
}
80000bc4:	00078513          	mv	a0,a5
80000bc8:	00c12403          	lw	s0,12(sp)
80000bcc:	01010113          	addi	sp,sp,16
80000bd0:	00008067          	ret

80000bd4 <External_25_IRQHandler>:
External_25_IRQHandler():
/casa/workspace/Chronos-RISCV6/FreeRTOS/Debug/../riscv_hal/riscv_hal_stubs.c:162

__attribute__((weak))  uint8_t External_25_IRQHandler(void)
{
80000bd4:	ff010113          	addi	sp,sp,-16
80000bd8:	00812623          	sw	s0,12(sp)
80000bdc:	01010413          	addi	s0,sp,16
/casa/workspace/Chronos-RISCV6/FreeRTOS/Debug/../riscv_hal/riscv_hal_stubs.c:163
    return(0);
80000be0:	00000793          	li	a5,0
/casa/workspace/Chronos-RISCV6/FreeRTOS/Debug/../riscv_hal/riscv_hal_stubs.c:164
}
80000be4:	00078513          	mv	a0,a5
80000be8:	00c12403          	lw	s0,12(sp)
80000bec:	01010113          	addi	sp,sp,16
80000bf0:	00008067          	ret

80000bf4 <External_26_IRQHandler>:
External_26_IRQHandler():
/casa/workspace/Chronos-RISCV6/FreeRTOS/Debug/../riscv_hal/riscv_hal_stubs.c:167

__attribute__((weak))  uint8_t External_26_IRQHandler(void)
{
80000bf4:	ff010113          	addi	sp,sp,-16
80000bf8:	00812623          	sw	s0,12(sp)
80000bfc:	01010413          	addi	s0,sp,16
/casa/workspace/Chronos-RISCV6/FreeRTOS/Debug/../riscv_hal/riscv_hal_stubs.c:168
    return(0);
80000c00:	00000793          	li	a5,0
/casa/workspace/Chronos-RISCV6/FreeRTOS/Debug/../riscv_hal/riscv_hal_stubs.c:169
}
80000c04:	00078513          	mv	a0,a5
80000c08:	00c12403          	lw	s0,12(sp)
80000c0c:	01010113          	addi	sp,sp,16
80000c10:	00008067          	ret

80000c14 <External_27_IRQHandler>:
External_27_IRQHandler():
/casa/workspace/Chronos-RISCV6/FreeRTOS/Debug/../riscv_hal/riscv_hal_stubs.c:172

__attribute__((weak))  uint8_t External_27_IRQHandler(void)
{
80000c14:	ff010113          	addi	sp,sp,-16
80000c18:	00812623          	sw	s0,12(sp)
80000c1c:	01010413          	addi	s0,sp,16
/casa/workspace/Chronos-RISCV6/FreeRTOS/Debug/../riscv_hal/riscv_hal_stubs.c:173
    return(0);
80000c20:	00000793          	li	a5,0
/casa/workspace/Chronos-RISCV6/FreeRTOS/Debug/../riscv_hal/riscv_hal_stubs.c:174
}
80000c24:	00078513          	mv	a0,a5
80000c28:	00c12403          	lw	s0,12(sp)
80000c2c:	01010113          	addi	sp,sp,16
80000c30:	00008067          	ret

80000c34 <External_28_IRQHandler>:
External_28_IRQHandler():
/casa/workspace/Chronos-RISCV6/FreeRTOS/Debug/../riscv_hal/riscv_hal_stubs.c:177

__attribute__((weak))  uint8_t External_28_IRQHandler(void)
{
80000c34:	ff010113          	addi	sp,sp,-16
80000c38:	00812623          	sw	s0,12(sp)
80000c3c:	01010413          	addi	s0,sp,16
/casa/workspace/Chronos-RISCV6/FreeRTOS/Debug/../riscv_hal/riscv_hal_stubs.c:178
    return(0);
80000c40:	00000793          	li	a5,0
/casa/workspace/Chronos-RISCV6/FreeRTOS/Debug/../riscv_hal/riscv_hal_stubs.c:179
}
80000c44:	00078513          	mv	a0,a5
80000c48:	00c12403          	lw	s0,12(sp)
80000c4c:	01010113          	addi	sp,sp,16
80000c50:	00008067          	ret

80000c54 <External_29_IRQHandler>:
External_29_IRQHandler():
/casa/workspace/Chronos-RISCV6/FreeRTOS/Debug/../riscv_hal/riscv_hal_stubs.c:182

__attribute__((weak))  uint8_t External_29_IRQHandler(void)
{
80000c54:	ff010113          	addi	sp,sp,-16
80000c58:	00812623          	sw	s0,12(sp)
80000c5c:	01010413          	addi	s0,sp,16
/casa/workspace/Chronos-RISCV6/FreeRTOS/Debug/../riscv_hal/riscv_hal_stubs.c:183
    return(0);
80000c60:	00000793          	li	a5,0
/casa/workspace/Chronos-RISCV6/FreeRTOS/Debug/../riscv_hal/riscv_hal_stubs.c:184
}
80000c64:	00078513          	mv	a0,a5
80000c68:	00c12403          	lw	s0,12(sp)
80000c6c:	01010113          	addi	sp,sp,16
80000c70:	00008067          	ret

80000c74 <External_30_IRQHandler>:
External_30_IRQHandler():
/casa/workspace/Chronos-RISCV6/FreeRTOS/Debug/../riscv_hal/riscv_hal_stubs.c:187

__attribute__((weak))  uint8_t External_30_IRQHandler(void)
{
80000c74:	ff010113          	addi	sp,sp,-16
80000c78:	00812623          	sw	s0,12(sp)
80000c7c:	01010413          	addi	s0,sp,16
/casa/workspace/Chronos-RISCV6/FreeRTOS/Debug/../riscv_hal/riscv_hal_stubs.c:188
    return(0);
80000c80:	00000793          	li	a5,0
/casa/workspace/Chronos-RISCV6/FreeRTOS/Debug/../riscv_hal/riscv_hal_stubs.c:189
}
80000c84:	00078513          	mv	a0,a5
80000c88:	00c12403          	lw	s0,12(sp)
80000c8c:	01010113          	addi	sp,sp,16
80000c90:	00008067          	ret

80000c94 <External_31_IRQHandler>:
External_31_IRQHandler():
/casa/workspace/Chronos-RISCV6/FreeRTOS/Debug/../riscv_hal/riscv_hal_stubs.c:192

__attribute__((weak))  uint8_t External_31_IRQHandler(void)
{
80000c94:	ff010113          	addi	sp,sp,-16
80000c98:	00812623          	sw	s0,12(sp)
80000c9c:	01010413          	addi	s0,sp,16
/casa/workspace/Chronos-RISCV6/FreeRTOS/Debug/../riscv_hal/riscv_hal_stubs.c:193
    return(0);
80000ca0:	00000793          	li	a5,0
/casa/workspace/Chronos-RISCV6/FreeRTOS/Debug/../riscv_hal/riscv_hal_stubs.c:194
}
80000ca4:	00078513          	mv	a0,a5
80000ca8:	00c12403          	lw	s0,12(sp)
80000cac:	01010113          	addi	sp,sp,16
80000cb0:	00008067          	ret

80000cb4 <write_hex>:
write_hex():
/casa/workspace/Chronos-RISCV6/FreeRTOS/Debug/../riscv_hal/syscall.c:55

char *__env[1] = { 0 };
char **environ = __env;

void write_hex(int fd, uint32_t hex)
{
80000cb4:	fd010113          	addi	sp,sp,-48
80000cb8:	02112623          	sw	ra,44(sp)
80000cbc:	02812423          	sw	s0,40(sp)
80000cc0:	03010413          	addi	s0,sp,48
80000cc4:	fca42e23          	sw	a0,-36(s0)
80000cc8:	fcb42c23          	sw	a1,-40(s0)
/casa/workspace/Chronos-RISCV6/FreeRTOS/Debug/../riscv_hal/syscall.c:61
    uint8_t ii;
    uint8_t jj;
    char towrite;
    uint8_t digit;

    write( fd , "0x", 2 );
80000ccc:	00200613          	li	a2,2
80000cd0:	800097b7          	lui	a5,0x80009
80000cd4:	a4078593          	addi	a1,a5,-1472 # 80008a40 <__stack_top+0xfffc1ab0>
80000cd8:	fdc42503          	lw	a0,-36(s0)
80000cdc:	369070ef          	jal	ra,80008844 <write>
/casa/workspace/Chronos-RISCV6/FreeRTOS/Debug/../riscv_hal/syscall.c:63

    for (ii = 8 ; ii > 0; ii--)
80000ce0:	00800793          	li	a5,8
80000ce4:	fef407a3          	sb	a5,-17(s0)
80000ce8:	0980006f          	j	80000d80 <write_hex+0xcc>
/casa/workspace/Chronos-RISCV6/FreeRTOS/Debug/../riscv_hal/syscall.c:65
    {
        jj = ii-1;
80000cec:	fef44783          	lbu	a5,-17(s0)
80000cf0:	fff78793          	addi	a5,a5,-1
80000cf4:	fef40723          	sb	a5,-18(s0)
/casa/workspace/Chronos-RISCV6/FreeRTOS/Debug/../riscv_hal/syscall.c:66
        digit = ((hex & (0xF << (jj*4))) >> (jj*4));
80000cf8:	fee44783          	lbu	a5,-18(s0)
80000cfc:	00279793          	slli	a5,a5,0x2
80000d00:	00f00713          	li	a4,15
80000d04:	00f717b3          	sll	a5,a4,a5
80000d08:	00078713          	mv	a4,a5
80000d0c:	fd842783          	lw	a5,-40(s0)
80000d10:	00f77733          	and	a4,a4,a5
80000d14:	fee44783          	lbu	a5,-18(s0)
80000d18:	00279793          	slli	a5,a5,0x2
80000d1c:	00f757b3          	srl	a5,a4,a5
80000d20:	fef406a3          	sb	a5,-19(s0)
/casa/workspace/Chronos-RISCV6/FreeRTOS/Debug/../riscv_hal/syscall.c:67
        towrite = digit < 0xA ? ('0' + digit) : ('A' +  (digit - 0xA));
80000d24:	fed44703          	lbu	a4,-19(s0)
80000d28:	00900793          	li	a5,9
80000d2c:	00e7ee63          	bltu	a5,a4,80000d48 <write_hex+0x94>
/casa/workspace/Chronos-RISCV6/FreeRTOS/Debug/../riscv_hal/syscall.c:67 (discriminator 1)
80000d30:	fed44783          	lbu	a5,-19(s0)
80000d34:	03078793          	addi	a5,a5,48
80000d38:	0ff7f793          	andi	a5,a5,255
80000d3c:	01879793          	slli	a5,a5,0x18
80000d40:	4187d793          	srai	a5,a5,0x18
80000d44:	0180006f          	j	80000d5c <write_hex+0xa8>
/casa/workspace/Chronos-RISCV6/FreeRTOS/Debug/../riscv_hal/syscall.c:67 (discriminator 2)
80000d48:	fed44783          	lbu	a5,-19(s0)
80000d4c:	03778793          	addi	a5,a5,55
80000d50:	0ff7f793          	andi	a5,a5,255
80000d54:	01879793          	slli	a5,a5,0x18
80000d58:	4187d793          	srai	a5,a5,0x18
/casa/workspace/Chronos-RISCV6/FreeRTOS/Debug/../riscv_hal/syscall.c:67 (discriminator 4)
80000d5c:	fef40623          	sb	a5,-20(s0)
/casa/workspace/Chronos-RISCV6/FreeRTOS/Debug/../riscv_hal/syscall.c:68 (discriminator 4)
        write( fd, &towrite, 1);
80000d60:	fec40793          	addi	a5,s0,-20
80000d64:	00100613          	li	a2,1
80000d68:	00078593          	mv	a1,a5
80000d6c:	fdc42503          	lw	a0,-36(s0)
80000d70:	2d5070ef          	jal	ra,80008844 <write>
/casa/workspace/Chronos-RISCV6/FreeRTOS/Debug/../riscv_hal/syscall.c:63 (discriminator 4)
    for (ii = 8 ; ii > 0; ii--)
80000d74:	fef44783          	lbu	a5,-17(s0)
80000d78:	fff78793          	addi	a5,a5,-1
80000d7c:	fef407a3          	sb	a5,-17(s0)
/casa/workspace/Chronos-RISCV6/FreeRTOS/Debug/../riscv_hal/syscall.c:63 (discriminator 2)
80000d80:	fef44783          	lbu	a5,-17(s0)
80000d84:	f60794e3          	bnez	a5,80000cec <write_hex+0x38>
/casa/workspace/Chronos-RISCV6/FreeRTOS/Debug/../riscv_hal/syscall.c:70
    }
}
80000d88:	00000013          	nop
80000d8c:	02c12083          	lw	ra,44(sp)
80000d90:	02812403          	lw	s0,40(sp)
80000d94:	03010113          	addi	sp,sp,48
80000d98:	00008067          	ret

80000d9c <_exit>:
_exit():
/casa/workspace/Chronos-RISCV6/FreeRTOS/Debug/../riscv_hal/syscall.c:74

               
void _exit(int code)
{
80000d9c:	fd010113          	addi	sp,sp,-48
80000da0:	02112623          	sw	ra,44(sp)
80000da4:	02812423          	sw	s0,40(sp)
80000da8:	03010413          	addi	s0,sp,48
80000dac:	fca42e23          	sw	a0,-36(s0)
/casa/workspace/Chronos-RISCV6/FreeRTOS/Debug/../riscv_hal/syscall.c:76
#ifdef MSCC_STDIO_THRU_CORE_UART_APB
    const char * message = "\nProgam has exited with code:";
80000db0:	800097b7          	lui	a5,0x80009
80000db4:	a4478793          	addi	a5,a5,-1468 # 80008a44 <__stack_top+0xfffc1ab4>
80000db8:	fef42623          	sw	a5,-20(s0)
/casa/workspace/Chronos-RISCV6/FreeRTOS/Debug/../riscv_hal/syscall.c:78

    write(STDERR_FILENO, message, strlen(message));
80000dbc:	fec42503          	lw	a0,-20(s0)
80000dc0:	11c010ef          	jal	ra,80001edc <strlen>
80000dc4:	00050793          	mv	a5,a0
80000dc8:	00078613          	mv	a2,a5
80000dcc:	fec42583          	lw	a1,-20(s0)
80000dd0:	00200513          	li	a0,2
80000dd4:	271070ef          	jal	ra,80008844 <write>
/casa/workspace/Chronos-RISCV6/FreeRTOS/Debug/../riscv_hal/syscall.c:79
    write_hex(STDERR_FILENO, code);
80000dd8:	fdc42783          	lw	a5,-36(s0)
80000ddc:	00078593          	mv	a1,a5
80000de0:	00200513          	li	a0,2
80000de4:	ed1ff0ef          	jal	ra,80000cb4 <write_hex>
/casa/workspace/Chronos-RISCV6/FreeRTOS/Debug/../riscv_hal/syscall.c:82 (discriminator 1)
#endif

    while (1);
80000de8:	0000006f          	j	80000de8 <_exit+0x4c>

80000dec <_isatty>:
_isatty():
/casa/workspace/Chronos-RISCV6/FreeRTOS/Debug/../riscv_hal/syscall.c:101
    curbrk += incr;
    return curbrk - incr;
}

int _isatty(int fd)
{
80000dec:	fe010113          	addi	sp,sp,-32
80000df0:	00812e23          	sw	s0,28(sp)
80000df4:	02010413          	addi	s0,sp,32
80000df8:	fea42623          	sw	a0,-20(s0)
/casa/workspace/Chronos-RISCV6/FreeRTOS/Debug/../riscv_hal/syscall.c:102
    if (fd == STDOUT_FILENO || fd == STDERR_FILENO)
80000dfc:	fec42703          	lw	a4,-20(s0)
80000e00:	00100793          	li	a5,1
80000e04:	00f70863          	beq	a4,a5,80000e14 <_isatty+0x28>
/casa/workspace/Chronos-RISCV6/FreeRTOS/Debug/../riscv_hal/syscall.c:102 (discriminator 1)
80000e08:	fec42703          	lw	a4,-20(s0)
80000e0c:	00200793          	li	a5,2
80000e10:	00f71663          	bne	a4,a5,80000e1c <_isatty+0x30>
/casa/workspace/Chronos-RISCV6/FreeRTOS/Debug/../riscv_hal/syscall.c:104
    {
        return 1;
80000e14:	00100793          	li	a5,1
80000e18:	0140006f          	j	80000e2c <_isatty+0x40>
/casa/workspace/Chronos-RISCV6/FreeRTOS/Debug/../riscv_hal/syscall.c:107
    }

    errno = EBADF;
80000e1c:	800237b7          	lui	a5,0x80023
80000e20:	00900713          	li	a4,9
80000e24:	d8e7a623          	sw	a4,-628(a5) # 80022d8c <__stack_top+0xfffdbdfc>
/casa/workspace/Chronos-RISCV6/FreeRTOS/Debug/../riscv_hal/syscall.c:108
    return 0;
80000e28:	00000793          	li	a5,0
/casa/workspace/Chronos-RISCV6/FreeRTOS/Debug/../riscv_hal/syscall.c:109
}
80000e2c:	00078513          	mv	a0,a5
80000e30:	01c12403          	lw	s0,28(sp)
80000e34:	02010113          	addi	sp,sp,32
80000e38:	00008067          	ret

80000e3c <stub>:
stub():
/casa/workspace/Chronos-RISCV6/FreeRTOS/Debug/../riscv_hal/syscall.c:112

static int stub(int err)
{
80000e3c:	fe010113          	addi	sp,sp,-32
80000e40:	00812e23          	sw	s0,28(sp)
80000e44:	02010413          	addi	s0,sp,32
80000e48:	fea42623          	sw	a0,-20(s0)
/casa/workspace/Chronos-RISCV6/FreeRTOS/Debug/../riscv_hal/syscall.c:113
    errno = err;
80000e4c:	800237b7          	lui	a5,0x80023
80000e50:	fec42703          	lw	a4,-20(s0)
80000e54:	d8e7a623          	sw	a4,-628(a5) # 80022d8c <__stack_top+0xfffdbdfc>
/casa/workspace/Chronos-RISCV6/FreeRTOS/Debug/../riscv_hal/syscall.c:114
    return -1;
80000e58:	fff00793          	li	a5,-1
/casa/workspace/Chronos-RISCV6/FreeRTOS/Debug/../riscv_hal/syscall.c:115
}
80000e5c:	00078513          	mv	a0,a5
80000e60:	01c12403          	lw	s0,28(sp)
80000e64:	02010113          	addi	sp,sp,32
80000e68:	00008067          	ret

80000e6c <_write>:
_write():
/casa/workspace/Chronos-RISCV6/FreeRTOS/Debug/../riscv_hal/syscall.c:226
{
    return stub(ECHILD);
}

ssize_t _write(int fd, const void* ptr, size_t len)
{
80000e6c:	fd010113          	addi	sp,sp,-48
80000e70:	02112623          	sw	ra,44(sp)
80000e74:	02812423          	sw	s0,40(sp)
80000e78:	03010413          	addi	s0,sp,48
80000e7c:	fca42e23          	sw	a0,-36(s0)
80000e80:	fcb42c23          	sw	a1,-40(s0)
80000e84:	fcc42a23          	sw	a2,-44(s0)
/casa/workspace/Chronos-RISCV6/FreeRTOS/Debug/../riscv_hal/syscall.c:229

#ifdef MSCC_STDIO_THRU_CORE_UART_APB
  const uint8_t * current = (const uint8_t *) ptr;
80000e88:	fd842783          	lw	a5,-40(s0)
80000e8c:	fef42423          	sw	a5,-24(s0)
/casa/workspace/Chronos-RISCV6/FreeRTOS/Debug/../riscv_hal/syscall.c:232
  size_t jj;

  if (_isatty(fd))
80000e90:	fdc42503          	lw	a0,-36(s0)
80000e94:	f59ff0ef          	jal	ra,80000dec <_isatty>
80000e98:	00050793          	mv	a5,a0
80000e9c:	08078c63          	beqz	a5,80000f34 <_write+0xc8>
/casa/workspace/Chronos-RISCV6/FreeRTOS/Debug/../riscv_hal/syscall.c:238
  {
        /*--------------------------------------------------------------------------
        * Initialize the UART driver if it is the first time this function is
        * called.
        */
        if ( !g_stdio_uart_init_done )
80000ea0:	9101a783          	lw	a5,-1776(gp) # 80009640 <g_stdio_uart_init_done>
80000ea4:	02079063          	bnez	a5,80000ec4 <_write+0x58>
/casa/workspace/Chronos-RISCV6/FreeRTOS/Debug/../riscv_hal/syscall.c:245
            /******************************************************************************
            * Baud value:
            * This value is calculated using the following equation:
            *      BAUD_VALUE = (CLOCK / (16 * BAUD_RATE)) - 1
            *****************************************************************************/
            UART_init( &g_stdio_uart, MSCC_STDIO_UART_BASE_ADDR, ((SYS_CLK_FREQ/(16 * MSCC_STDIO_BAUD_VALUE))-1), (DATA_8_BITS | NO_PARITY));
80000ea8:	00100693          	li	a3,1
80000eac:	02c00613          	li	a2,44
80000eb0:	700015b7          	lui	a1,0x70001
80000eb4:	90818513          	addi	a0,gp,-1784 # 80009638 <g_stdio_uart>
80000eb8:	174000ef          	jal	ra,8000102c <UART_init>
/casa/workspace/Chronos-RISCV6/FreeRTOS/Debug/../riscv_hal/syscall.c:246
            g_stdio_uart_init_done = 1;
80000ebc:	00100713          	li	a4,1
80000ec0:	90e1a823          	sw	a4,-1776(gp) # 80009640 <g_stdio_uart_init_done>
/casa/workspace/Chronos-RISCV6/FreeRTOS/Debug/../riscv_hal/syscall.c:249
        }

    for (jj = 0; jj < len; jj++)
80000ec4:	fe042623          	sw	zero,-20(s0)
80000ec8:	0580006f          	j	80000f20 <_write+0xb4>
/casa/workspace/Chronos-RISCV6/FreeRTOS/Debug/../riscv_hal/syscall.c:251
    {
        UART_send(&g_stdio_uart, current + jj, 1);
80000ecc:	fe842703          	lw	a4,-24(s0)
80000ed0:	fec42783          	lw	a5,-20(s0)
80000ed4:	00f707b3          	add	a5,a4,a5
80000ed8:	00100613          	li	a2,1
80000edc:	00078593          	mv	a1,a5
80000ee0:	90818513          	addi	a0,gp,-1784 # 80009638 <g_stdio_uart>
80000ee4:	260000ef          	jal	ra,80001144 <UART_send>
/casa/workspace/Chronos-RISCV6/FreeRTOS/Debug/../riscv_hal/syscall.c:252
        if (current[jj] == '\n')
80000ee8:	fe842703          	lw	a4,-24(s0)
80000eec:	fec42783          	lw	a5,-20(s0)
80000ef0:	00f707b3          	add	a5,a4,a5
80000ef4:	0007c703          	lbu	a4,0(a5)
80000ef8:	00a00793          	li	a5,10
80000efc:	00f71c63          	bne	a4,a5,80000f14 <_write+0xa8>
/casa/workspace/Chronos-RISCV6/FreeRTOS/Debug/../riscv_hal/syscall.c:254
        {
            UART_send(&g_stdio_uart, (const uint8_t *)"\r", 1);
80000f00:	00100613          	li	a2,1
80000f04:	800097b7          	lui	a5,0x80009
80000f08:	a6478593          	addi	a1,a5,-1436 # 80008a64 <__stack_top+0xfffc1ad4>
80000f0c:	90818513          	addi	a0,gp,-1784 # 80009638 <g_stdio_uart>
80000f10:	234000ef          	jal	ra,80001144 <UART_send>
/casa/workspace/Chronos-RISCV6/FreeRTOS/Debug/../riscv_hal/syscall.c:249 (discriminator 2)
    for (jj = 0; jj < len; jj++)
80000f14:	fec42783          	lw	a5,-20(s0)
80000f18:	00178793          	addi	a5,a5,1
80000f1c:	fef42623          	sw	a5,-20(s0)
/casa/workspace/Chronos-RISCV6/FreeRTOS/Debug/../riscv_hal/syscall.c:249 (discriminator 1)
80000f20:	fec42703          	lw	a4,-20(s0)
80000f24:	fd442783          	lw	a5,-44(s0)
80000f28:	faf762e3          	bltu	a4,a5,80000ecc <_write+0x60>
/casa/workspace/Chronos-RISCV6/FreeRTOS/Debug/../riscv_hal/syscall.c:257
        }
    }
    return len;
80000f2c:	fd442783          	lw	a5,-44(s0)
80000f30:	0100006f          	j	80000f40 <_write+0xd4>
/casa/workspace/Chronos-RISCV6/FreeRTOS/Debug/../riscv_hal/syscall.c:261
  }
#endif

  return stub(EBADF);
80000f34:	00900513          	li	a0,9
80000f38:	f05ff0ef          	jal	ra,80000e3c <stub>
80000f3c:	00050793          	mv	a5,a0
/casa/workspace/Chronos-RISCV6/FreeRTOS/Debug/../riscv_hal/syscall.c:262
}
80000f40:	00078513          	mv	a0,a5
80000f44:	02c12083          	lw	ra,44(sp)
80000f48:	02812403          	lw	s0,40(sp)
80000f4c:	03010113          	addi	sp,sp,48
80000f50:	00008067          	ret

80000f54 <HW_set_32bit_reg>:
HW_set_32bit_reg():
/casa/workspace/Chronos-RISCV6/FreeRTOS/Debug/../hal/hw_reg_access.S:36
 *
 * a0:   addr_t reg_addr
 * a1:   uint32_t value
 */
HW_set_32bit_reg:
    sw a1, 0(a0)
80000f54:	00b52023          	sw	a1,0(a0) # 44000000 <RAM_SIZE+0x43f80000>
/casa/workspace/Chronos-RISCV6/FreeRTOS/Debug/../hal/hw_reg_access.S:37
    ret
80000f58:	00008067          	ret

80000f5c <HW_get_32bit_reg>:
HW_get_32bit_reg():
/casa/workspace/Chronos-RISCV6/FreeRTOS/Debug/../hal/hw_reg_access.S:47
 *
 * R0:   addr_t reg_addr
 * @return          32 bits value read from the peripheral register.
 */
HW_get_32bit_reg:
    lw a0, 0(a0)
80000f5c:	00052503          	lw	a0,0(a0)
/casa/workspace/Chronos-RISCV6/FreeRTOS/Debug/../hal/hw_reg_access.S:48
    ret
80000f60:	00008067          	ret

80000f64 <HW_set_32bit_reg_field>:
HW_set_32bit_reg_field():
/casa/workspace/Chronos-RISCV6/FreeRTOS/Debug/../hal/hw_reg_access.S:60
 * a1:   int_fast8_t shift
 * a2:   uint32_t mask
 * a3:   uint32_t value
 */
HW_set_32bit_reg_field:
    mv t3, a3
80000f64:	00068e13          	mv	t3,a3
/casa/workspace/Chronos-RISCV6/FreeRTOS/Debug/../hal/hw_reg_access.S:61
    sll t3, t3, a1
80000f68:	00be1e33          	sll	t3,t3,a1
/casa/workspace/Chronos-RISCV6/FreeRTOS/Debug/../hal/hw_reg_access.S:62
    and  t3, t3, a2
80000f6c:	00ce7e33          	and	t3,t3,a2
/casa/workspace/Chronos-RISCV6/FreeRTOS/Debug/../hal/hw_reg_access.S:63
    lw t1, 0(a0)
80000f70:	00052303          	lw	t1,0(a0)
/casa/workspace/Chronos-RISCV6/FreeRTOS/Debug/../hal/hw_reg_access.S:64
    mv t2, a2
80000f74:	00060393          	mv	t2,a2
/casa/workspace/Chronos-RISCV6/FreeRTOS/Debug/../hal/hw_reg_access.S:65
    not t2, t2
80000f78:	fff3c393          	not	t2,t2
/casa/workspace/Chronos-RISCV6/FreeRTOS/Debug/../hal/hw_reg_access.S:66
    and t1, t1, t2
80000f7c:	00737333          	and	t1,t1,t2
/casa/workspace/Chronos-RISCV6/FreeRTOS/Debug/../hal/hw_reg_access.S:67
    or t1, t1, t3
80000f80:	01c36333          	or	t1,t1,t3
/casa/workspace/Chronos-RISCV6/FreeRTOS/Debug/../hal/hw_reg_access.S:68
    sw t1, 0(a0)
80000f84:	00652023          	sw	t1,0(a0)
/casa/workspace/Chronos-RISCV6/FreeRTOS/Debug/../hal/hw_reg_access.S:69
    ret
80000f88:	00008067          	ret

80000f8c <HW_get_32bit_reg_field>:
HW_get_32bit_reg_field():
/casa/workspace/Chronos-RISCV6/FreeRTOS/Debug/../hal/hw_reg_access.S:83
 *
 * @return          32 bits value containing the register field value specified
 *                  as parameter.
 */
HW_get_32bit_reg_field:
    lw a0, 0(a0)
80000f8c:	00052503          	lw	a0,0(a0)
/casa/workspace/Chronos-RISCV6/FreeRTOS/Debug/../hal/hw_reg_access.S:84
    and a0, a0, a2
80000f90:	00c57533          	and	a0,a0,a2
/casa/workspace/Chronos-RISCV6/FreeRTOS/Debug/../hal/hw_reg_access.S:85
    srl a0, a0, a1
80000f94:	00b55533          	srl	a0,a0,a1
/casa/workspace/Chronos-RISCV6/FreeRTOS/Debug/../hal/hw_reg_access.S:86
    ret
80000f98:	00008067          	ret

80000f9c <HW_set_16bit_reg>:
HW_set_16bit_reg():
/casa/workspace/Chronos-RISCV6/FreeRTOS/Debug/../hal/hw_reg_access.S:96
 *
 * a0:   addr_t reg_addr
 * a1:   uint_fast16_t value
 */
HW_set_16bit_reg:
    sh a1, 0(a0)
80000f9c:	00b51023          	sh	a1,0(a0)
/casa/workspace/Chronos-RISCV6/FreeRTOS/Debug/../hal/hw_reg_access.S:97
    ret
80000fa0:	00008067          	ret

80000fa4 <HW_get_16bit_reg>:
HW_get_16bit_reg():
/casa/workspace/Chronos-RISCV6/FreeRTOS/Debug/../hal/hw_reg_access.S:107
 *
 * a0:   addr_t reg_addr
 * @return          16 bits value read from the peripheral register.
 */
HW_get_16bit_reg:
    lh a0, (a0)
80000fa4:	00051503          	lh	a0,0(a0)
/casa/workspace/Chronos-RISCV6/FreeRTOS/Debug/../hal/hw_reg_access.S:108
    ret
80000fa8:	00008067          	ret

80000fac <HW_set_16bit_reg_field>:
HW_set_16bit_reg_field():
/casa/workspace/Chronos-RISCV6/FreeRTOS/Debug/../hal/hw_reg_access.S:121
 * a2:   uint_fast16_t mask
 * a3:   uint_fast16_t value
 * @param value     Value to be written in the specified field.
 */
HW_set_16bit_reg_field:
    mv t3, a3
80000fac:	00068e13          	mv	t3,a3
/casa/workspace/Chronos-RISCV6/FreeRTOS/Debug/../hal/hw_reg_access.S:122
    sll t3, t3, a1
80000fb0:	00be1e33          	sll	t3,t3,a1
/casa/workspace/Chronos-RISCV6/FreeRTOS/Debug/../hal/hw_reg_access.S:123
    and  t3, t3, a2
80000fb4:	00ce7e33          	and	t3,t3,a2
/casa/workspace/Chronos-RISCV6/FreeRTOS/Debug/../hal/hw_reg_access.S:124
    lh t1, 0(a0)
80000fb8:	00051303          	lh	t1,0(a0)
/casa/workspace/Chronos-RISCV6/FreeRTOS/Debug/../hal/hw_reg_access.S:125
    mv t2, a2
80000fbc:	00060393          	mv	t2,a2
/casa/workspace/Chronos-RISCV6/FreeRTOS/Debug/../hal/hw_reg_access.S:126
    not t2, t2
80000fc0:	fff3c393          	not	t2,t2
/casa/workspace/Chronos-RISCV6/FreeRTOS/Debug/../hal/hw_reg_access.S:127
    and t1, t1, t2
80000fc4:	00737333          	and	t1,t1,t2
/casa/workspace/Chronos-RISCV6/FreeRTOS/Debug/../hal/hw_reg_access.S:128
    or t1, t1, t3
80000fc8:	01c36333          	or	t1,t1,t3
/casa/workspace/Chronos-RISCV6/FreeRTOS/Debug/../hal/hw_reg_access.S:129
    sh t1, 0(a0)
80000fcc:	00651023          	sh	t1,0(a0)
/casa/workspace/Chronos-RISCV6/FreeRTOS/Debug/../hal/hw_reg_access.S:130
    ret
80000fd0:	00008067          	ret

80000fd4 <HW_get_16bit_reg_field>:
HW_get_16bit_reg_field():
/casa/workspace/Chronos-RISCV6/FreeRTOS/Debug/../hal/hw_reg_access.S:144
 *
 * @return          16 bits value containing the register field value specified
 *                  as parameter.
 */
HW_get_16bit_reg_field:
    lh a0, 0(a0)
80000fd4:	00051503          	lh	a0,0(a0)
/casa/workspace/Chronos-RISCV6/FreeRTOS/Debug/../hal/hw_reg_access.S:145
    and a0, a0, a2
80000fd8:	00c57533          	and	a0,a0,a2
/casa/workspace/Chronos-RISCV6/FreeRTOS/Debug/../hal/hw_reg_access.S:146
    srl a0, a0, a1
80000fdc:	00b55533          	srl	a0,a0,a1
/casa/workspace/Chronos-RISCV6/FreeRTOS/Debug/../hal/hw_reg_access.S:147
    ret
80000fe0:	00008067          	ret

80000fe4 <HW_set_8bit_reg>:
HW_set_8bit_reg():
/casa/workspace/Chronos-RISCV6/FreeRTOS/Debug/../hal/hw_reg_access.S:157
 *
 * a0:   addr_t reg_addr
 * a1:   uint_fast8_t value
 */
HW_set_8bit_reg:
    sb a1, 0(a0)
80000fe4:	00b50023          	sb	a1,0(a0)
/casa/workspace/Chronos-RISCV6/FreeRTOS/Debug/../hal/hw_reg_access.S:158
    ret
80000fe8:	00008067          	ret

80000fec <HW_get_8bit_reg>:
HW_get_8bit_reg():
/casa/workspace/Chronos-RISCV6/FreeRTOS/Debug/../hal/hw_reg_access.S:168
 *
 * a0:   addr_t reg_addr
 * @return          8 bits value read from the peripheral register.
 */
HW_get_8bit_reg:
    lb a0, 0(a0)
80000fec:	00050503          	lb	a0,0(a0)
/casa/workspace/Chronos-RISCV6/FreeRTOS/Debug/../hal/hw_reg_access.S:169
    ret
80000ff0:	00008067          	ret

80000ff4 <HW_set_8bit_reg_field>:
HW_set_8bit_reg_field():
/casa/workspace/Chronos-RISCV6/FreeRTOS/Debug/../hal/hw_reg_access.S:181
 * a1:   int_fast8_t shift
 * a2:   uint_fast8_t mask
 * a3:   uint_fast8_t value
 */
HW_set_8bit_reg_field:
    mv t3, a3
80000ff4:	00068e13          	mv	t3,a3
/casa/workspace/Chronos-RISCV6/FreeRTOS/Debug/../hal/hw_reg_access.S:182
    sll t3, t3, a1
80000ff8:	00be1e33          	sll	t3,t3,a1
/casa/workspace/Chronos-RISCV6/FreeRTOS/Debug/../hal/hw_reg_access.S:183
    and  t3, t3, a2
80000ffc:	00ce7e33          	and	t3,t3,a2
/casa/workspace/Chronos-RISCV6/FreeRTOS/Debug/../hal/hw_reg_access.S:184
    lb t1, 0(a0)
80001000:	00050303          	lb	t1,0(a0)
/casa/workspace/Chronos-RISCV6/FreeRTOS/Debug/../hal/hw_reg_access.S:185
    mv t2, a2
80001004:	00060393          	mv	t2,a2
/casa/workspace/Chronos-RISCV6/FreeRTOS/Debug/../hal/hw_reg_access.S:186
    not t2, t2
80001008:	fff3c393          	not	t2,t2
/casa/workspace/Chronos-RISCV6/FreeRTOS/Debug/../hal/hw_reg_access.S:187
    and t1, t1, t2
8000100c:	00737333          	and	t1,t1,t2
/casa/workspace/Chronos-RISCV6/FreeRTOS/Debug/../hal/hw_reg_access.S:188
    or t1, t1, t3
80001010:	01c36333          	or	t1,t1,t3
/casa/workspace/Chronos-RISCV6/FreeRTOS/Debug/../hal/hw_reg_access.S:189
    sb t1, 0(a0)
80001014:	00650023          	sb	t1,0(a0)
/casa/workspace/Chronos-RISCV6/FreeRTOS/Debug/../hal/hw_reg_access.S:190
    ret
80001018:	00008067          	ret

8000101c <HW_get_8bit_reg_field>:
HW_get_8bit_reg_field():
/casa/workspace/Chronos-RISCV6/FreeRTOS/Debug/../hal/hw_reg_access.S:204
 *
 * @return          8 bits value containing the register field value specified
 *                  as parameter.
 */
HW_get_8bit_reg_field:
    lb a0, 0(a0)
8000101c:	00050503          	lb	a0,0(a0)
/casa/workspace/Chronos-RISCV6/FreeRTOS/Debug/../hal/hw_reg_access.S:205
    and a0, a0, a2
80001020:	00c57533          	and	a0,a0,a2
/casa/workspace/Chronos-RISCV6/FreeRTOS/Debug/../hal/hw_reg_access.S:206
    srl a0, a0, a1
80001024:	00b55533          	srl	a0,a0,a1
/casa/workspace/Chronos-RISCV6/FreeRTOS/Debug/../hal/hw_reg_access.S:207
    ret
80001028:	00008067          	ret

8000102c <UART_init>:
UART_init():
/casa/workspace/Chronos-RISCV6/FreeRTOS/Debug/../drivers/CoreUARTapb/core_uart_apb.c:46
    UART_instance_t * this_uart,
    addr_t base_addr,
    uint16_t baud_value,
    uint8_t line_config
)
{
8000102c:	fd010113          	addi	sp,sp,-48
80001030:	02112623          	sw	ra,44(sp)
80001034:	02812423          	sw	s0,40(sp)
80001038:	03010413          	addi	s0,sp,48
8000103c:	fca42e23          	sw	a0,-36(s0)
80001040:	fcb42c23          	sw	a1,-40(s0)
80001044:	00060793          	mv	a5,a2
80001048:	00068713          	mv	a4,a3
8000104c:	fcf41b23          	sh	a5,-42(s0)
80001050:	00070793          	mv	a5,a4
80001054:	fcf40aa3          	sb	a5,-43(s0)
/casa/workspace/Chronos-RISCV6/FreeRTOS/Debug/../drivers/CoreUARTapb/core_uart_apb.c:53
    
    HAL_ASSERT( this_uart != NULL_INSTANCE )
    HAL_ASSERT( line_config <= MAX_LINE_CONFIG )
    HAL_ASSERT( baud_value <= MAX_BAUD_VALUE )

    if( ( this_uart != NULL_INSTANCE ) &&
80001058:	fdc42783          	lw	a5,-36(s0)
8000105c:	0c078a63          	beqz	a5,80001130 <UART_init+0x104>
/casa/workspace/Chronos-RISCV6/FreeRTOS/Debug/../drivers/CoreUARTapb/core_uart_apb.c:53 (discriminator 1)
80001060:	fd544703          	lbu	a4,-43(s0)
80001064:	00700793          	li	a5,7
80001068:	0ce7e463          	bltu	a5,a4,80001130 <UART_init+0x104>
/casa/workspace/Chronos-RISCV6/FreeRTOS/Debug/../drivers/CoreUARTapb/core_uart_apb.c:54
        ( line_config <= MAX_LINE_CONFIG ) &&
8000106c:	fd645703          	lhu	a4,-42(s0)
80001070:	000027b7          	lui	a5,0x2
80001074:	0af77e63          	bleu	a5,a4,80001130 <UART_init+0x104>
/casa/workspace/Chronos-RISCV6/FreeRTOS/Debug/../drivers/CoreUARTapb/core_uart_apb.c:60
        ( baud_value <= MAX_BAUD_VALUE ) )
    {
        /*
         * Store lower 8-bits of baud value in CTRL1.
         */
        HAL_set_8bit_reg( base_addr, CTRL1, (uint_fast8_t)(baud_value &
80001078:	fd842783          	lw	a5,-40(s0)
8000107c:	00878713          	addi	a4,a5,8 # 2008 <HEAP_SIZE-0xdff8>
80001080:	fd645783          	lhu	a5,-42(s0)
80001084:	0ff7f793          	andi	a5,a5,255
80001088:	00078593          	mv	a1,a5
8000108c:	00070513          	mv	a0,a4
80001090:	f55ff0ef          	jal	ra,80000fe4 <HW_set_8bit_reg>
/casa/workspace/Chronos-RISCV6/FreeRTOS/Debug/../drivers/CoreUARTapb/core_uart_apb.c:67
    
        /*
         * Extract higher 5-bits of baud value and store in higher 5-bits 
         * of CTRL2, along with line configuration in lower 3 three bits.
         */
        HAL_set_8bit_reg( base_addr, CTRL2, (uint_fast8_t)line_config | 
80001094:	fd842783          	lw	a5,-40(s0)
80001098:	00c78693          	addi	a3,a5,12
8000109c:	fd544703          	lbu	a4,-43(s0)
800010a0:	fd645783          	lhu	a5,-42(s0)
800010a4:	4057d793          	srai	a5,a5,0x5
800010a8:	7f87f793          	andi	a5,a5,2040
800010ac:	00f767b3          	or	a5,a4,a5
800010b0:	00078593          	mv	a1,a5
800010b4:	00068513          	mv	a0,a3
800010b8:	f2dff0ef          	jal	ra,80000fe4 <HW_set_8bit_reg>
/casa/workspace/Chronos-RISCV6/FreeRTOS/Debug/../drivers/CoreUARTapb/core_uart_apb.c:71
                                           (uint_fast8_t)((baud_value &
                                   BAUDVALUE_MSB) >> BAUDVALUE_SHIFT ) );
    
        this_uart->base_address = base_addr;
800010bc:	fdc42783          	lw	a5,-36(s0)
800010c0:	fd842703          	lw	a4,-40(s0)
800010c4:	00e7a023          	sw	a4,0(a5)
/casa/workspace/Chronos-RISCV6/FreeRTOS/Debug/../drivers/CoreUARTapb/core_uart_apb.c:94
        
        /*
         * Flush the receive FIFO of data that may have been received before the
         * driver was initialized.
         */
        rx_full = HAL_get_8bit_reg( this_uart->base_address, STATUS ) &
800010c8:	fdc42783          	lw	a5,-36(s0)
800010cc:	0007a783          	lw	a5,0(a5)
800010d0:	01078793          	addi	a5,a5,16
800010d4:	00078513          	mv	a0,a5
800010d8:	f15ff0ef          	jal	ra,80000fec <HW_get_8bit_reg>
800010dc:	00050793          	mv	a5,a0
800010e0:	0027f793          	andi	a5,a5,2
800010e4:	fef407a3          	sb	a5,-17(s0)
/casa/workspace/Chronos-RISCV6/FreeRTOS/Debug/../drivers/CoreUARTapb/core_uart_apb.c:96
                                                    STATUS_RXFULL_MASK;
        while ( rx_full )
800010e8:	0380006f          	j	80001120 <UART_init+0xf4>
/casa/workspace/Chronos-RISCV6/FreeRTOS/Debug/../drivers/CoreUARTapb/core_uart_apb.c:98
        {
            HAL_get_8bit_reg( this_uart->base_address, RXDATA );
800010ec:	fdc42783          	lw	a5,-36(s0)
800010f0:	0007a783          	lw	a5,0(a5)
800010f4:	00478793          	addi	a5,a5,4
800010f8:	00078513          	mv	a0,a5
800010fc:	ef1ff0ef          	jal	ra,80000fec <HW_get_8bit_reg>
/casa/workspace/Chronos-RISCV6/FreeRTOS/Debug/../drivers/CoreUARTapb/core_uart_apb.c:99
            rx_full = HAL_get_8bit_reg( this_uart->base_address, STATUS ) &
80001100:	fdc42783          	lw	a5,-36(s0)
80001104:	0007a783          	lw	a5,0(a5)
80001108:	01078793          	addi	a5,a5,16
8000110c:	00078513          	mv	a0,a5
80001110:	eddff0ef          	jal	ra,80000fec <HW_get_8bit_reg>
80001114:	00050793          	mv	a5,a0
80001118:	0027f793          	andi	a5,a5,2
8000111c:	fef407a3          	sb	a5,-17(s0)
/casa/workspace/Chronos-RISCV6/FreeRTOS/Debug/../drivers/CoreUARTapb/core_uart_apb.c:96
        while ( rx_full )
80001120:	fef44783          	lbu	a5,-17(s0)
80001124:	fc0794e3          	bnez	a5,800010ec <UART_init+0xc0>
/casa/workspace/Chronos-RISCV6/FreeRTOS/Debug/../drivers/CoreUARTapb/core_uart_apb.c:106
        }

        /*
         * Clear status of the UART instance.
         */
        this_uart->status = (uint8_t)0;
80001128:	fdc42783          	lw	a5,-36(s0)
8000112c:	00078223          	sb	zero,4(a5)
/casa/workspace/Chronos-RISCV6/FreeRTOS/Debug/../drivers/CoreUARTapb/core_uart_apb.c:108
    }
}
80001130:	00000013          	nop
80001134:	02c12083          	lw	ra,44(sp)
80001138:	02812403          	lw	s0,40(sp)
8000113c:	03010113          	addi	sp,sp,48
80001140:	00008067          	ret

80001144 <UART_send>:
UART_send():
/casa/workspace/Chronos-RISCV6/FreeRTOS/Debug/../drivers/CoreUARTapb/core_uart_apb.c:121
(
    UART_instance_t * this_uart,
    const uint8_t * tx_buffer,
    size_t tx_size
)
{
80001144:	fd010113          	addi	sp,sp,-48
80001148:	02112623          	sw	ra,44(sp)
8000114c:	02812423          	sw	s0,40(sp)
80001150:	03010413          	addi	s0,sp,48
80001154:	fca42e23          	sw	a0,-36(s0)
80001158:	fcb42c23          	sw	a1,-40(s0)
8000115c:	fcc42a23          	sw	a2,-44(s0)
/casa/workspace/Chronos-RISCV6/FreeRTOS/Debug/../drivers/CoreUARTapb/core_uart_apb.c:129

    HAL_ASSERT( this_uart != NULL_INSTANCE )
    HAL_ASSERT( tx_buffer != NULL_BUFFER )
    HAL_ASSERT( tx_size > 0 )
      
    if( (this_uart != NULL_INSTANCE) &&
80001160:	fdc42783          	lw	a5,-36(s0)
80001164:	08078063          	beqz	a5,800011e4 <UART_send+0xa0>
/casa/workspace/Chronos-RISCV6/FreeRTOS/Debug/../drivers/CoreUARTapb/core_uart_apb.c:129 (discriminator 1)
80001168:	fd842783          	lw	a5,-40(s0)
8000116c:	06078c63          	beqz	a5,800011e4 <UART_send+0xa0>
/casa/workspace/Chronos-RISCV6/FreeRTOS/Debug/../drivers/CoreUARTapb/core_uart_apb.c:130
        (tx_buffer != NULL_BUFFER)   &&
80001170:	fd442783          	lw	a5,-44(s0)
80001174:	06078863          	beqz	a5,800011e4 <UART_send+0xa0>
/casa/workspace/Chronos-RISCV6/FreeRTOS/Debug/../drivers/CoreUARTapb/core_uart_apb.c:133
        (tx_size > (size_t)0) )
    {
        for ( char_idx = (size_t)0; char_idx < tx_size; char_idx++ )
80001178:	fe042623          	sw	zero,-20(s0)
8000117c:	05c0006f          	j	800011d8 <UART_send+0x94>
/casa/workspace/Chronos-RISCV6/FreeRTOS/Debug/../drivers/CoreUARTapb/core_uart_apb.c:137 (discriminator 1)
        {
            /* Wait for UART to become ready to transmit. */
            do {
                tx_ready = HAL_get_8bit_reg( this_uart->base_address, STATUS ) &
80001180:	fdc42783          	lw	a5,-36(s0)
80001184:	0007a783          	lw	a5,0(a5)
80001188:	01078793          	addi	a5,a5,16
8000118c:	00078513          	mv	a0,a5
80001190:	e5dff0ef          	jal	ra,80000fec <HW_get_8bit_reg>
80001194:	00050793          	mv	a5,a0
80001198:	0017f793          	andi	a5,a5,1
8000119c:	fef405a3          	sb	a5,-21(s0)
/casa/workspace/Chronos-RISCV6/FreeRTOS/Debug/../drivers/CoreUARTapb/core_uart_apb.c:139 (discriminator 1)
                                                              STATUS_TXRDY_MASK;
            } while ( !tx_ready );
800011a0:	feb44783          	lbu	a5,-21(s0)
800011a4:	fc078ee3          	beqz	a5,80001180 <UART_send+0x3c>
/casa/workspace/Chronos-RISCV6/FreeRTOS/Debug/../drivers/CoreUARTapb/core_uart_apb.c:141 (discriminator 2)
            /* Send next character in the buffer. */
            HAL_set_8bit_reg( this_uart->base_address, TXDATA,
800011a8:	fdc42783          	lw	a5,-36(s0)
800011ac:	0007a683          	lw	a3,0(a5)
800011b0:	fd842703          	lw	a4,-40(s0)
800011b4:	fec42783          	lw	a5,-20(s0)
800011b8:	00f707b3          	add	a5,a4,a5
800011bc:	0007c783          	lbu	a5,0(a5)
800011c0:	00078593          	mv	a1,a5
800011c4:	00068513          	mv	a0,a3
800011c8:	e1dff0ef          	jal	ra,80000fe4 <HW_set_8bit_reg>
/casa/workspace/Chronos-RISCV6/FreeRTOS/Debug/../drivers/CoreUARTapb/core_uart_apb.c:133 (discriminator 2)
        for ( char_idx = (size_t)0; char_idx < tx_size; char_idx++ )
800011cc:	fec42783          	lw	a5,-20(s0)
800011d0:	00178793          	addi	a5,a5,1
800011d4:	fef42623          	sw	a5,-20(s0)
/casa/workspace/Chronos-RISCV6/FreeRTOS/Debug/../drivers/CoreUARTapb/core_uart_apb.c:133 (discriminator 1)
800011d8:	fec42703          	lw	a4,-20(s0)
800011dc:	fd442783          	lw	a5,-44(s0)
800011e0:	faf760e3          	bltu	a4,a5,80001180 <UART_send+0x3c>
/casa/workspace/Chronos-RISCV6/FreeRTOS/Debug/../drivers/CoreUARTapb/core_uart_apb.c:145
                              (uint_fast8_t)tx_buffer[char_idx] );
        }
    }
}
800011e4:	00000013          	nop
800011e8:	02c12083          	lw	ra,44(sp)
800011ec:	02812403          	lw	s0,40(sp)
800011f0:	03010113          	addi	sp,sp,48
800011f4:	00008067          	ret

800011f8 <UART_polled_tx_string>:
UART_polled_tx_string():
/casa/workspace/Chronos-RISCV6/FreeRTOS/Debug/../drivers/CoreUARTapb/core_uart_apb.c:239
UART_polled_tx_string
( 
    UART_instance_t * this_uart, 
    const uint8_t * p_sz_string
)
{
800011f8:	fd010113          	addi	sp,sp,-48
800011fc:	02112623          	sw	ra,44(sp)
80001200:	02812423          	sw	s0,40(sp)
80001204:	03010413          	addi	s0,sp,48
80001208:	fca42e23          	sw	a0,-36(s0)
8000120c:	fcb42c23          	sw	a1,-40(s0)
/casa/workspace/Chronos-RISCV6/FreeRTOS/Debug/../drivers/CoreUARTapb/core_uart_apb.c:246
    uint8_t tx_ready;

    HAL_ASSERT( this_uart != NULL_INSTANCE )
    HAL_ASSERT( p_sz_string != NULL_BUFFER )
    
    if( ( this_uart != NULL_INSTANCE ) && ( p_sz_string != NULL_BUFFER ) )
80001210:	fdc42783          	lw	a5,-36(s0)
80001214:	08078063          	beqz	a5,80001294 <UART_polled_tx_string+0x9c>
/casa/workspace/Chronos-RISCV6/FreeRTOS/Debug/../drivers/CoreUARTapb/core_uart_apb.c:246 (discriminator 1)
80001218:	fd842783          	lw	a5,-40(s0)
8000121c:	06078c63          	beqz	a5,80001294 <UART_polled_tx_string+0x9c>
/casa/workspace/Chronos-RISCV6/FreeRTOS/Debug/../drivers/CoreUARTapb/core_uart_apb.c:248
    {
        char_idx = 0U;
80001220:	fe042623          	sw	zero,-20(s0)
/casa/workspace/Chronos-RISCV6/FreeRTOS/Debug/../drivers/CoreUARTapb/core_uart_apb.c:249
        while( 0U != p_sz_string[char_idx] )
80001224:	05c0006f          	j	80001280 <UART_polled_tx_string+0x88>
/casa/workspace/Chronos-RISCV6/FreeRTOS/Debug/../drivers/CoreUARTapb/core_uart_apb.c:253 (discriminator 1)
        {
            /* Wait for UART to become ready to transmit. */
            do {
                tx_ready = HAL_get_8bit_reg( this_uart->base_address, STATUS ) &
80001228:	fdc42783          	lw	a5,-36(s0)
8000122c:	0007a783          	lw	a5,0(a5)
80001230:	01078793          	addi	a5,a5,16
80001234:	00078513          	mv	a0,a5
80001238:	db5ff0ef          	jal	ra,80000fec <HW_get_8bit_reg>
8000123c:	00050793          	mv	a5,a0
80001240:	0017f793          	andi	a5,a5,1
80001244:	fef405a3          	sb	a5,-21(s0)
/casa/workspace/Chronos-RISCV6/FreeRTOS/Debug/../drivers/CoreUARTapb/core_uart_apb.c:255 (discriminator 1)
                                                              STATUS_TXRDY_MASK;
            } while ( !tx_ready );
80001248:	feb44783          	lbu	a5,-21(s0)
8000124c:	fc078ee3          	beqz	a5,80001228 <UART_polled_tx_string+0x30>
/casa/workspace/Chronos-RISCV6/FreeRTOS/Debug/../drivers/CoreUARTapb/core_uart_apb.c:257
            /* Send next character in the buffer. */
            HAL_set_8bit_reg( this_uart->base_address, TXDATA,
80001250:	fdc42783          	lw	a5,-36(s0)
80001254:	0007a683          	lw	a3,0(a5)
80001258:	fd842703          	lw	a4,-40(s0)
8000125c:	fec42783          	lw	a5,-20(s0)
80001260:	00f707b3          	add	a5,a4,a5
80001264:	0007c783          	lbu	a5,0(a5)
80001268:	00078593          	mv	a1,a5
8000126c:	00068513          	mv	a0,a3
80001270:	d75ff0ef          	jal	ra,80000fe4 <HW_set_8bit_reg>
/casa/workspace/Chronos-RISCV6/FreeRTOS/Debug/../drivers/CoreUARTapb/core_uart_apb.c:259
                              (uint_fast8_t)p_sz_string[char_idx] );
            char_idx++;
80001274:	fec42783          	lw	a5,-20(s0)
80001278:	00178793          	addi	a5,a5,1
8000127c:	fef42623          	sw	a5,-20(s0)
/casa/workspace/Chronos-RISCV6/FreeRTOS/Debug/../drivers/CoreUARTapb/core_uart_apb.c:249
        while( 0U != p_sz_string[char_idx] )
80001280:	fd842703          	lw	a4,-40(s0)
80001284:	fec42783          	lw	a5,-20(s0)
80001288:	00f707b3          	add	a5,a4,a5
8000128c:	0007c783          	lbu	a5,0(a5)
80001290:	f8079ce3          	bnez	a5,80001228 <UART_polled_tx_string+0x30>
/casa/workspace/Chronos-RISCV6/FreeRTOS/Debug/../drivers/CoreUARTapb/core_uart_apb.c:262
        }
    }
}
80001294:	00000013          	nop
80001298:	02c12083          	lw	ra,44(sp)
8000129c:	02812403          	lw	s0,40(sp)
800012a0:	03010113          	addi	sp,sp,48
800012a4:	00008067          	ret

800012a8 <pvPortMalloc>:
pvPortMalloc():
/casa/workspace/Chronos-RISCV6/FreeRTOS/Debug/../FreeRTOS/portable/MemMang/heap_2.c:151
}
/*-----------------------------------------------------------*/


void *pvPortMalloc( size_t xWantedSize )
{
800012a8:	fc010113          	addi	sp,sp,-64
800012ac:	02112e23          	sw	ra,60(sp)
800012b0:	02812c23          	sw	s0,56(sp)
800012b4:	04010413          	addi	s0,sp,64
800012b8:	fca42623          	sw	a0,-52(s0)
/casa/workspace/Chronos-RISCV6/FreeRTOS/Debug/../FreeRTOS/portable/MemMang/heap_2.c:154
BlockLink_t *pxBlock, *pxPreviousBlock, *pxNewBlockLink;
static BaseType_t xHeapHasBeenInitialised = pdFALSE;
void *pvReturn = NULL;
800012bc:	fe042223          	sw	zero,-28(s0)
/casa/workspace/Chronos-RISCV6/FreeRTOS/Debug/../FreeRTOS/portable/MemMang/heap_2.c:156

	vTaskSuspendAll();
800012c0:	404010ef          	jal	ra,800026c4 <vTaskSuspendAll>
/casa/workspace/Chronos-RISCV6/FreeRTOS/Debug/../FreeRTOS/portable/MemMang/heap_2.c:160
	{
		/* If this is the first call to malloc then the heap will require
		initialisation to setup the list of free blocks. */
		if( xHeapHasBeenInitialised == pdFALSE )
800012c4:	9241a783          	lw	a5,-1756(gp) # 80009654 <xHeapHasBeenInitialised.2777>
800012c8:	00079863          	bnez	a5,800012d8 <pvPortMalloc+0x30>
/casa/workspace/Chronos-RISCV6/FreeRTOS/Debug/../FreeRTOS/portable/MemMang/heap_2.c:162
		{
			prvHeapInit();
800012cc:	284000ef          	jal	ra,80001550 <prvHeapInit>
/casa/workspace/Chronos-RISCV6/FreeRTOS/Debug/../FreeRTOS/portable/MemMang/heap_2.c:163
			xHeapHasBeenInitialised = pdTRUE;
800012d0:	00100713          	li	a4,1
800012d4:	92e1a223          	sw	a4,-1756(gp) # 80009654 <xHeapHasBeenInitialised.2777>
/casa/workspace/Chronos-RISCV6/FreeRTOS/Debug/../FreeRTOS/portable/MemMang/heap_2.c:168
		}

		/* The wanted size is increased so it can contain a BlockLink_t
		structure in addition to the requested amount of bytes. */
		if( xWantedSize > 0 )
800012d8:	fcc42783          	lw	a5,-52(s0)
800012dc:	02078a63          	beqz	a5,80001310 <pvPortMalloc+0x68>
/casa/workspace/Chronos-RISCV6/FreeRTOS/Debug/../FreeRTOS/portable/MemMang/heap_2.c:170
		{
			xWantedSize += heapSTRUCT_SIZE;
800012e0:	00800793          	li	a5,8
800012e4:	00078713          	mv	a4,a5
800012e8:	fcc42783          	lw	a5,-52(s0)
800012ec:	00e787b3          	add	a5,a5,a4
800012f0:	fcf42623          	sw	a5,-52(s0)
/casa/workspace/Chronos-RISCV6/FreeRTOS/Debug/../FreeRTOS/portable/MemMang/heap_2.c:173

			/* Ensure that blocks are always aligned to the required number of bytes. */
			if( ( xWantedSize & portBYTE_ALIGNMENT_MASK ) != 0 )
800012f4:	fcc42783          	lw	a5,-52(s0)
800012f8:	0037f793          	andi	a5,a5,3
800012fc:	00078a63          	beqz	a5,80001310 <pvPortMalloc+0x68>
/casa/workspace/Chronos-RISCV6/FreeRTOS/Debug/../FreeRTOS/portable/MemMang/heap_2.c:176
			{
				/* Byte alignment required. */
				xWantedSize += ( portBYTE_ALIGNMENT - ( xWantedSize & portBYTE_ALIGNMENT_MASK ) );
80001300:	fcc42783          	lw	a5,-52(s0)
80001304:	ffc7f793          	andi	a5,a5,-4
80001308:	00478793          	addi	a5,a5,4
8000130c:	fcf42623          	sw	a5,-52(s0)
/casa/workspace/Chronos-RISCV6/FreeRTOS/Debug/../FreeRTOS/portable/MemMang/heap_2.c:180
			}
		}

		if( ( xWantedSize > 0 ) && ( xWantedSize < configADJUSTED_HEAP_SIZE ) )
80001310:	fcc42783          	lw	a5,-52(s0)
80001314:	14078463          	beqz	a5,8000145c <pvPortMalloc+0x1b4>
/casa/workspace/Chronos-RISCV6/FreeRTOS/Debug/../FreeRTOS/portable/MemMang/heap_2.c:180 (discriminator 1)
80001318:	fcc42703          	lw	a4,-52(s0)
8000131c:	000197b7          	lui	a5,0x19
80001320:	ffb78793          	addi	a5,a5,-5 # 18ffb <HEAP_SIZE+0x8ffb>
80001324:	12e7ec63          	bltu	a5,a4,8000145c <pvPortMalloc+0x1b4>
/casa/workspace/Chronos-RISCV6/FreeRTOS/Debug/../FreeRTOS/portable/MemMang/heap_2.c:184
		{
			/* Blocks are stored in byte order - traverse the list from the start
			(smallest) block until one of adequate size is found. */
			pxPreviousBlock = &xStart;
80001328:	91418793          	addi	a5,gp,-1772 # 80009644 <xStart>
8000132c:	fef42423          	sw	a5,-24(s0)
/casa/workspace/Chronos-RISCV6/FreeRTOS/Debug/../FreeRTOS/portable/MemMang/heap_2.c:185
			pxBlock = xStart.pxNextFreeBlock;
80001330:	9141a783          	lw	a5,-1772(gp) # 80009644 <xStart>
80001334:	fef42623          	sw	a5,-20(s0)
/casa/workspace/Chronos-RISCV6/FreeRTOS/Debug/../FreeRTOS/portable/MemMang/heap_2.c:186
			while( ( pxBlock->xBlockSize < xWantedSize ) && ( pxBlock->pxNextFreeBlock != NULL ) )
80001338:	0180006f          	j	80001350 <pvPortMalloc+0xa8>
/casa/workspace/Chronos-RISCV6/FreeRTOS/Debug/../FreeRTOS/portable/MemMang/heap_2.c:188
			{
				pxPreviousBlock = pxBlock;
8000133c:	fec42783          	lw	a5,-20(s0)
80001340:	fef42423          	sw	a5,-24(s0)
/casa/workspace/Chronos-RISCV6/FreeRTOS/Debug/../FreeRTOS/portable/MemMang/heap_2.c:189
				pxBlock = pxBlock->pxNextFreeBlock;
80001344:	fec42783          	lw	a5,-20(s0)
80001348:	0007a783          	lw	a5,0(a5)
8000134c:	fef42623          	sw	a5,-20(s0)
/casa/workspace/Chronos-RISCV6/FreeRTOS/Debug/../FreeRTOS/portable/MemMang/heap_2.c:186
			while( ( pxBlock->xBlockSize < xWantedSize ) && ( pxBlock->pxNextFreeBlock != NULL ) )
80001350:	fec42783          	lw	a5,-20(s0)
80001354:	0047a783          	lw	a5,4(a5)
80001358:	fcc42703          	lw	a4,-52(s0)
8000135c:	00e7f863          	bleu	a4,a5,8000136c <pvPortMalloc+0xc4>
/casa/workspace/Chronos-RISCV6/FreeRTOS/Debug/../FreeRTOS/portable/MemMang/heap_2.c:186 (discriminator 1)
80001360:	fec42783          	lw	a5,-20(s0)
80001364:	0007a783          	lw	a5,0(a5)
80001368:	fc079ae3          	bnez	a5,8000133c <pvPortMalloc+0x94>
/casa/workspace/Chronos-RISCV6/FreeRTOS/Debug/../FreeRTOS/portable/MemMang/heap_2.c:193
			}

			/* If we found the end marker then a block of adequate size was not found. */
			if( pxBlock != &xEnd )
8000136c:	fec42703          	lw	a4,-20(s0)
80001370:	91c18793          	addi	a5,gp,-1764 # 8000964c <xEnd>
80001374:	0ef70463          	beq	a4,a5,8000145c <pvPortMalloc+0x1b4>
/casa/workspace/Chronos-RISCV6/FreeRTOS/Debug/../FreeRTOS/portable/MemMang/heap_2.c:197
			{
				/* Return the memory space - jumping over the BlockLink_t structure
				at its start. */
				pvReturn = ( void * ) ( ( ( uint8_t * ) pxPreviousBlock->pxNextFreeBlock ) + heapSTRUCT_SIZE );
80001378:	fe842783          	lw	a5,-24(s0)
8000137c:	0007a783          	lw	a5,0(a5)
80001380:	00800713          	li	a4,8
80001384:	00e787b3          	add	a5,a5,a4
80001388:	fef42223          	sw	a5,-28(s0)
/casa/workspace/Chronos-RISCV6/FreeRTOS/Debug/../FreeRTOS/portable/MemMang/heap_2.c:201

				/* This block is being returned for use so must be taken out of the
				list of free blocks. */
				pxPreviousBlock->pxNextFreeBlock = pxBlock->pxNextFreeBlock;
8000138c:	fec42783          	lw	a5,-20(s0)
80001390:	0007a703          	lw	a4,0(a5)
80001394:	fe842783          	lw	a5,-24(s0)
80001398:	00e7a023          	sw	a4,0(a5)
/casa/workspace/Chronos-RISCV6/FreeRTOS/Debug/../FreeRTOS/portable/MemMang/heap_2.c:204

				/* If the block is larger than required it can be split into two. */
				if( ( pxBlock->xBlockSize - xWantedSize ) > heapMINIMUM_BLOCK_SIZE )
8000139c:	fec42783          	lw	a5,-20(s0)
800013a0:	0047a703          	lw	a4,4(a5)
800013a4:	fcc42783          	lw	a5,-52(s0)
800013a8:	40f707b3          	sub	a5,a4,a5
800013ac:	00800713          	li	a4,8
800013b0:	00171713          	slli	a4,a4,0x1
800013b4:	08f77663          	bleu	a5,a4,80001440 <pvPortMalloc+0x198>
/casa/workspace/Chronos-RISCV6/FreeRTOS/Debug/../FreeRTOS/portable/MemMang/heap_2.c:209
				{
					/* This block is to be split into two.  Create a new block
					following the number of bytes requested. The void cast is
					used to prevent byte alignment warnings from the compiler. */
					pxNewBlockLink = ( void * ) ( ( ( uint8_t * ) pxBlock ) + xWantedSize );
800013b8:	fec42703          	lw	a4,-20(s0)
800013bc:	fcc42783          	lw	a5,-52(s0)
800013c0:	00f707b3          	add	a5,a4,a5
800013c4:	fcf42e23          	sw	a5,-36(s0)
/casa/workspace/Chronos-RISCV6/FreeRTOS/Debug/../FreeRTOS/portable/MemMang/heap_2.c:213

					/* Calculate the sizes of two blocks split from the single
					block. */
					pxNewBlockLink->xBlockSize = pxBlock->xBlockSize - xWantedSize;
800013c8:	fec42783          	lw	a5,-20(s0)
800013cc:	0047a703          	lw	a4,4(a5)
800013d0:	fcc42783          	lw	a5,-52(s0)
800013d4:	40f70733          	sub	a4,a4,a5
800013d8:	fdc42783          	lw	a5,-36(s0)
800013dc:	00e7a223          	sw	a4,4(a5)
/casa/workspace/Chronos-RISCV6/FreeRTOS/Debug/../FreeRTOS/portable/MemMang/heap_2.c:214
					pxBlock->xBlockSize = xWantedSize;
800013e0:	fec42783          	lw	a5,-20(s0)
800013e4:	fcc42703          	lw	a4,-52(s0)
800013e8:	00e7a223          	sw	a4,4(a5)
/casa/workspace/Chronos-RISCV6/FreeRTOS/Debug/../FreeRTOS/portable/MemMang/heap_2.c:217

					/* Insert the new block into the list of free blocks. */
					prvInsertBlockIntoFreeList( ( pxNewBlockLink ) );
800013ec:	fdc42783          	lw	a5,-36(s0)
800013f0:	0047a783          	lw	a5,4(a5)
800013f4:	fcf42c23          	sw	a5,-40(s0)
800013f8:	91418793          	addi	a5,gp,-1772 # 80009644 <xStart>
800013fc:	fef42023          	sw	a5,-32(s0)
80001400:	0100006f          	j	80001410 <pvPortMalloc+0x168>
/casa/workspace/Chronos-RISCV6/FreeRTOS/Debug/../FreeRTOS/portable/MemMang/heap_2.c:217 (discriminator 3)
80001404:	fe042783          	lw	a5,-32(s0)
80001408:	0007a783          	lw	a5,0(a5)
8000140c:	fef42023          	sw	a5,-32(s0)
/casa/workspace/Chronos-RISCV6/FreeRTOS/Debug/../FreeRTOS/portable/MemMang/heap_2.c:217 (discriminator 1)
80001410:	fe042783          	lw	a5,-32(s0)
80001414:	0007a783          	lw	a5,0(a5)
80001418:	0047a783          	lw	a5,4(a5)
8000141c:	fd842703          	lw	a4,-40(s0)
80001420:	fee7e2e3          	bltu	a5,a4,80001404 <pvPortMalloc+0x15c>
/casa/workspace/Chronos-RISCV6/FreeRTOS/Debug/../FreeRTOS/portable/MemMang/heap_2.c:217 (discriminator 4)
80001424:	fe042783          	lw	a5,-32(s0)
80001428:	0007a703          	lw	a4,0(a5)
8000142c:	fdc42783          	lw	a5,-36(s0)
80001430:	00e7a023          	sw	a4,0(a5)
80001434:	fe042783          	lw	a5,-32(s0)
80001438:	fdc42703          	lw	a4,-36(s0)
8000143c:	00e7a023          	sw	a4,0(a5)
/casa/workspace/Chronos-RISCV6/FreeRTOS/Debug/../FreeRTOS/portable/MemMang/heap_2.c:220
				}

				xFreeBytesRemaining -= pxBlock->xBlockSize;
80001440:	800097b7          	lui	a5,0x80009
80001444:	5307a703          	lw	a4,1328(a5) # 80009530 <__stack_top+0xfffc25a0>
80001448:	fec42783          	lw	a5,-20(s0)
8000144c:	0047a783          	lw	a5,4(a5)
80001450:	40f70733          	sub	a4,a4,a5
80001454:	800097b7          	lui	a5,0x80009
80001458:	52e7a823          	sw	a4,1328(a5) # 80009530 <__stack_top+0xfffc25a0>
/casa/workspace/Chronos-RISCV6/FreeRTOS/Debug/../FreeRTOS/portable/MemMang/heap_2.c:226
			}
		}

		traceMALLOC( pvReturn, xWantedSize );
	}
	( void ) xTaskResumeAll();
8000145c:	290010ef          	jal	ra,800026ec <xTaskResumeAll>
/casa/workspace/Chronos-RISCV6/FreeRTOS/Debug/../FreeRTOS/portable/MemMang/heap_2.c:230

	#if( configUSE_MALLOC_FAILED_HOOK == 1 )
	{
		if( pvReturn == NULL )
80001460:	fe442783          	lw	a5,-28(s0)
80001464:	00079463          	bnez	a5,8000146c <pvPortMalloc+0x1c4>
/casa/workspace/Chronos-RISCV6/FreeRTOS/Debug/../FreeRTOS/portable/MemMang/heap_2.c:233
		{
			extern void vApplicationMallocFailedHook( void );
			vApplicationMallocFailedHook();
80001468:	205060ef          	jal	ra,80007e6c <vApplicationMallocFailedHook>
/casa/workspace/Chronos-RISCV6/FreeRTOS/Debug/../FreeRTOS/portable/MemMang/heap_2.c:238
		}
	}
	#endif

	return pvReturn;
8000146c:	fe442783          	lw	a5,-28(s0)
/casa/workspace/Chronos-RISCV6/FreeRTOS/Debug/../FreeRTOS/portable/MemMang/heap_2.c:239
}
80001470:	00078513          	mv	a0,a5
80001474:	03c12083          	lw	ra,60(sp)
80001478:	03812403          	lw	s0,56(sp)
8000147c:	04010113          	addi	sp,sp,64
80001480:	00008067          	ret

80001484 <vPortFree>:
vPortFree():
/casa/workspace/Chronos-RISCV6/FreeRTOS/Debug/../FreeRTOS/portable/MemMang/heap_2.c:243
/*-----------------------------------------------------------*/

void vPortFree( void *pv )
{
80001484:	fd010113          	addi	sp,sp,-48
80001488:	02112623          	sw	ra,44(sp)
8000148c:	02812423          	sw	s0,40(sp)
80001490:	03010413          	addi	s0,sp,48
80001494:	fca42e23          	sw	a0,-36(s0)
/casa/workspace/Chronos-RISCV6/FreeRTOS/Debug/../FreeRTOS/portable/MemMang/heap_2.c:244
uint8_t *puc = ( uint8_t * ) pv;
80001498:	fdc42783          	lw	a5,-36(s0)
8000149c:	fef42423          	sw	a5,-24(s0)
/casa/workspace/Chronos-RISCV6/FreeRTOS/Debug/../FreeRTOS/portable/MemMang/heap_2.c:247
BlockLink_t *pxLink;

	if( pv != NULL )
800014a0:	fdc42783          	lw	a5,-36(s0)
800014a4:	08078c63          	beqz	a5,8000153c <vPortFree+0xb8>
/casa/workspace/Chronos-RISCV6/FreeRTOS/Debug/../FreeRTOS/portable/MemMang/heap_2.c:251
	{
		/* The memory being freed will have an BlockLink_t structure immediately
		before it. */
		puc -= heapSTRUCT_SIZE;
800014a8:	00800793          	li	a5,8
800014ac:	40f007b3          	neg	a5,a5
800014b0:	fe842703          	lw	a4,-24(s0)
800014b4:	00f707b3          	add	a5,a4,a5
800014b8:	fef42423          	sw	a5,-24(s0)
/casa/workspace/Chronos-RISCV6/FreeRTOS/Debug/../FreeRTOS/portable/MemMang/heap_2.c:255

		/* This unexpected casting is to keep some compilers from issuing
		byte alignment warnings. */
		pxLink = ( void * ) puc;
800014bc:	fe842783          	lw	a5,-24(s0)
800014c0:	fef42223          	sw	a5,-28(s0)
/casa/workspace/Chronos-RISCV6/FreeRTOS/Debug/../FreeRTOS/portable/MemMang/heap_2.c:257

		vTaskSuspendAll();
800014c4:	200010ef          	jal	ra,800026c4 <vTaskSuspendAll>
/casa/workspace/Chronos-RISCV6/FreeRTOS/Debug/../FreeRTOS/portable/MemMang/heap_2.c:260
		{
			/* Add this block to the list of free blocks. */
			prvInsertBlockIntoFreeList( ( ( BlockLink_t * ) pxLink ) );
800014c8:	fe442783          	lw	a5,-28(s0)
800014cc:	0047a783          	lw	a5,4(a5)
800014d0:	fef42023          	sw	a5,-32(s0)
800014d4:	91418793          	addi	a5,gp,-1772 # 80009644 <xStart>
800014d8:	fef42623          	sw	a5,-20(s0)
800014dc:	0100006f          	j	800014ec <vPortFree+0x68>
/casa/workspace/Chronos-RISCV6/FreeRTOS/Debug/../FreeRTOS/portable/MemMang/heap_2.c:260 (discriminator 3)
800014e0:	fec42783          	lw	a5,-20(s0)
800014e4:	0007a783          	lw	a5,0(a5)
800014e8:	fef42623          	sw	a5,-20(s0)
/casa/workspace/Chronos-RISCV6/FreeRTOS/Debug/../FreeRTOS/portable/MemMang/heap_2.c:260 (discriminator 1)
800014ec:	fec42783          	lw	a5,-20(s0)
800014f0:	0007a783          	lw	a5,0(a5)
800014f4:	0047a783          	lw	a5,4(a5)
800014f8:	fe042703          	lw	a4,-32(s0)
800014fc:	fee7e2e3          	bltu	a5,a4,800014e0 <vPortFree+0x5c>
/casa/workspace/Chronos-RISCV6/FreeRTOS/Debug/../FreeRTOS/portable/MemMang/heap_2.c:260 (discriminator 4)
80001500:	fec42783          	lw	a5,-20(s0)
80001504:	0007a703          	lw	a4,0(a5)
80001508:	fe442783          	lw	a5,-28(s0)
8000150c:	00e7a023          	sw	a4,0(a5)
80001510:	fec42783          	lw	a5,-20(s0)
80001514:	fe442703          	lw	a4,-28(s0)
80001518:	00e7a023          	sw	a4,0(a5)
/casa/workspace/Chronos-RISCV6/FreeRTOS/Debug/../FreeRTOS/portable/MemMang/heap_2.c:261 (discriminator 4)
			xFreeBytesRemaining += pxLink->xBlockSize;
8000151c:	fe442783          	lw	a5,-28(s0)
80001520:	0047a703          	lw	a4,4(a5)
80001524:	800097b7          	lui	a5,0x80009
80001528:	5307a783          	lw	a5,1328(a5) # 80009530 <__stack_top+0xfffc25a0>
8000152c:	00f70733          	add	a4,a4,a5
80001530:	800097b7          	lui	a5,0x80009
80001534:	52e7a823          	sw	a4,1328(a5) # 80009530 <__stack_top+0xfffc25a0>
/casa/workspace/Chronos-RISCV6/FreeRTOS/Debug/../FreeRTOS/portable/MemMang/heap_2.c:264 (discriminator 4)
			traceFREE( pv, pxLink->xBlockSize );
		}
		( void ) xTaskResumeAll();
80001538:	1b4010ef          	jal	ra,800026ec <xTaskResumeAll>
/casa/workspace/Chronos-RISCV6/FreeRTOS/Debug/../FreeRTOS/portable/MemMang/heap_2.c:266
	}
}
8000153c:	00000013          	nop
80001540:	02c12083          	lw	ra,44(sp)
80001544:	02812403          	lw	s0,40(sp)
80001548:	03010113          	addi	sp,sp,48
8000154c:	00008067          	ret

80001550 <prvHeapInit>:
prvHeapInit():
/casa/workspace/Chronos-RISCV6/FreeRTOS/Debug/../FreeRTOS/portable/MemMang/heap_2.c:282
	/* This just exists to keep the linker quiet. */
}
/*-----------------------------------------------------------*/

static void prvHeapInit( void )
{
80001550:	fe010113          	addi	sp,sp,-32
80001554:	00812e23          	sw	s0,28(sp)
80001558:	02010413          	addi	s0,sp,32
/casa/workspace/Chronos-RISCV6/FreeRTOS/Debug/../FreeRTOS/portable/MemMang/heap_2.c:287
BlockLink_t *pxFirstFreeBlock;
uint8_t *pucAlignedHeap;

	/* Ensure the heap starts on a correctly aligned boundary. */
	pucAlignedHeap = ( uint8_t * ) ( ( ( portPOINTER_SIZE_TYPE ) &ucHeap[ portBYTE_ALIGNMENT ] ) & ( ~( ( portPOINTER_SIZE_TYPE ) portBYTE_ALIGNMENT_MASK ) ) );
8000155c:	800097b7          	lui	a5,0x80009
80001560:	6d478793          	addi	a5,a5,1748 # 800096d4 <__stack_top+0xfffc2744>
80001564:	ffc7f793          	andi	a5,a5,-4
80001568:	fef42623          	sw	a5,-20(s0)
/casa/workspace/Chronos-RISCV6/FreeRTOS/Debug/../FreeRTOS/portable/MemMang/heap_2.c:291

	/* xStart is used to hold a pointer to the first item in the list of free
	blocks.  The void cast is used to prevent compiler warnings. */
	xStart.pxNextFreeBlock = ( void * ) pucAlignedHeap;
8000156c:	fec42703          	lw	a4,-20(s0)
80001570:	90e1aa23          	sw	a4,-1772(gp) # 80009644 <xStart>
/casa/workspace/Chronos-RISCV6/FreeRTOS/Debug/../FreeRTOS/portable/MemMang/heap_2.c:292
	xStart.xBlockSize = ( size_t ) 0;
80001574:	91418793          	addi	a5,gp,-1772 # 80009644 <xStart>
80001578:	0007a223          	sw	zero,4(a5)
/casa/workspace/Chronos-RISCV6/FreeRTOS/Debug/../FreeRTOS/portable/MemMang/heap_2.c:295

	/* xEnd is used to mark the end of the list of free blocks. */
	xEnd.xBlockSize = configADJUSTED_HEAP_SIZE;
8000157c:	91c18793          	addi	a5,gp,-1764 # 8000964c <xEnd>
80001580:	00019737          	lui	a4,0x19
80001584:	ffc70713          	addi	a4,a4,-4 # 18ffc <HEAP_SIZE+0x8ffc>
80001588:	00e7a223          	sw	a4,4(a5)
/casa/workspace/Chronos-RISCV6/FreeRTOS/Debug/../FreeRTOS/portable/MemMang/heap_2.c:296
	xEnd.pxNextFreeBlock = NULL;
8000158c:	9001ae23          	sw	zero,-1764(gp) # 8000964c <xEnd>
/casa/workspace/Chronos-RISCV6/FreeRTOS/Debug/../FreeRTOS/portable/MemMang/heap_2.c:300

	/* To start with there is a single free block that is sized to take up the
	entire heap space. */
	pxFirstFreeBlock = ( void * ) pucAlignedHeap;
80001590:	fec42783          	lw	a5,-20(s0)
80001594:	fef42423          	sw	a5,-24(s0)
/casa/workspace/Chronos-RISCV6/FreeRTOS/Debug/../FreeRTOS/portable/MemMang/heap_2.c:301
	pxFirstFreeBlock->xBlockSize = configADJUSTED_HEAP_SIZE;
80001598:	fe842783          	lw	a5,-24(s0)
8000159c:	00019737          	lui	a4,0x19
800015a0:	ffc70713          	addi	a4,a4,-4 # 18ffc <HEAP_SIZE+0x8ffc>
800015a4:	00e7a223          	sw	a4,4(a5)
/casa/workspace/Chronos-RISCV6/FreeRTOS/Debug/../FreeRTOS/portable/MemMang/heap_2.c:302
	pxFirstFreeBlock->pxNextFreeBlock = &xEnd;
800015a8:	fe842783          	lw	a5,-24(s0)
800015ac:	91c18713          	addi	a4,gp,-1764 # 8000964c <xEnd>
800015b0:	00e7a023          	sw	a4,0(a5)
/casa/workspace/Chronos-RISCV6/FreeRTOS/Debug/../FreeRTOS/portable/MemMang/heap_2.c:303
}
800015b4:	00000013          	nop
800015b8:	01c12403          	lw	s0,28(sp)
800015bc:	02010113          	addi	sp,sp,32
800015c0:	00008067          	ret

800015c4 <raise_soft_interrupt>:
raise_soft_interrupt():
/casa/workspace/Chronos-RISCV6/FreeRTOS/Debug/../riscv_hal/riscv_plic.h:227
/*==============================================================================
 * The function raise_soft_interrupt() raises a synchronous software interrupt by
 * writing into the MSIP register.
 */
static inline void raise_soft_interrupt()
{
800015c4:	fe010113          	addi	sp,sp,-32
800015c8:	00812e23          	sw	s0,28(sp)
800015cc:	02010413          	addi	s0,sp,32
/casa/workspace/Chronos-RISCV6/FreeRTOS/Debug/../riscv_hal/riscv_plic.h:228
    unsigned long hart_id = read_csr(mhartid);
800015d0:	f14027f3          	csrr	a5,mhartid
800015d4:	fef42623          	sw	a5,-20(s0)
800015d8:	fec42783          	lw	a5,-20(s0)
800015dc:	fef42423          	sw	a5,-24(s0)
/casa/workspace/Chronos-RISCV6/FreeRTOS/Debug/../riscv_hal/riscv_plic.h:231

    /*You need to make sure that the global interrupt is enabled*/
    set_csr(mie, MIP_MSIP);       /*Enable software interrupt bit */
800015e0:	304467f3          	csrrsi	a5,mie,8
800015e4:	fef42223          	sw	a5,-28(s0)
/casa/workspace/Chronos-RISCV6/FreeRTOS/Debug/../riscv_hal/riscv_plic.h:232
    PRCI->MSIP[hart_id] = 0x01;   /*raise soft interrupt for hart0*/
800015e8:	44000737          	lui	a4,0x44000
800015ec:	fe842783          	lw	a5,-24(s0)
800015f0:	00279793          	slli	a5,a5,0x2
800015f4:	00f707b3          	add	a5,a4,a5
800015f8:	00100713          	li	a4,1
800015fc:	00e7a023          	sw	a4,0(a5)
/casa/workspace/Chronos-RISCV6/FreeRTOS/Debug/../riscv_hal/riscv_plic.h:233
}
80001600:	00000013          	nop
80001604:	01c12403          	lw	s0,28(sp)
80001608:	02010113          	addi	sp,sp,32
8000160c:	00008067          	ret

80001610 <vPortEnterCritical>:
vPortEnterCritical():
/casa/workspace/Chronos-RISCV6/FreeRTOS/Debug/../FreeRTOS/portable/GCC/RISCV/port.c:132
 * Used to catch tasks that attempt to return from their implementing function.
 */
static void prvTaskExitError( void );

void vPortEnterCritical( void )
{
80001610:	ff010113          	addi	sp,sp,-16
80001614:	00812623          	sw	s0,12(sp)
80001618:	01010413          	addi	s0,sp,16
/casa/workspace/Chronos-RISCV6/FreeRTOS/Debug/../FreeRTOS/portable/GCC/RISCV/port.c:133
	portDISABLE_INTERRUPTS();
8000161c:	30047073          	csrci	mstatus,8
/casa/workspace/Chronos-RISCV6/FreeRTOS/Debug/../FreeRTOS/portable/GCC/RISCV/port.c:134
	uxCriticalNesting++;
80001620:	800097b7          	lui	a5,0x80009
80001624:	5347a783          	lw	a5,1332(a5) # 80009534 <__stack_top+0xfffc25a4>
80001628:	00178713          	addi	a4,a5,1
8000162c:	800097b7          	lui	a5,0x80009
80001630:	52e7aa23          	sw	a4,1332(a5) # 80009534 <__stack_top+0xfffc25a4>
/casa/workspace/Chronos-RISCV6/FreeRTOS/Debug/../FreeRTOS/portable/GCC/RISCV/port.c:135
}
80001634:	00000013          	nop
80001638:	00c12403          	lw	s0,12(sp)
8000163c:	01010113          	addi	sp,sp,16
80001640:	00008067          	ret

80001644 <vPortExitCritical>:
vPortExitCritical():
/casa/workspace/Chronos-RISCV6/FreeRTOS/Debug/../FreeRTOS/portable/GCC/RISCV/port.c:139
/*-----------------------------------------------------------*/

void vPortExitCritical( void )
{
80001644:	ff010113          	addi	sp,sp,-16
80001648:	00812623          	sw	s0,12(sp)
8000164c:	01010413          	addi	s0,sp,16
/casa/workspace/Chronos-RISCV6/FreeRTOS/Debug/../FreeRTOS/portable/GCC/RISCV/port.c:140
	uxCriticalNesting--;
80001650:	800097b7          	lui	a5,0x80009
80001654:	5347a783          	lw	a5,1332(a5) # 80009534 <__stack_top+0xfffc25a4>
80001658:	fff78713          	addi	a4,a5,-1
8000165c:	800097b7          	lui	a5,0x80009
80001660:	52e7aa23          	sw	a4,1332(a5) # 80009534 <__stack_top+0xfffc25a4>
/casa/workspace/Chronos-RISCV6/FreeRTOS/Debug/../FreeRTOS/portable/GCC/RISCV/port.c:141
	if( uxCriticalNesting == 0 )
80001664:	800097b7          	lui	a5,0x80009
80001668:	5347a783          	lw	a5,1332(a5) # 80009534 <__stack_top+0xfffc25a4>
8000166c:	00079463          	bnez	a5,80001674 <vPortExitCritical+0x30>
/casa/workspace/Chronos-RISCV6/FreeRTOS/Debug/../FreeRTOS/portable/GCC/RISCV/port.c:143
	{
		portENABLE_INTERRUPTS();
80001670:	30046073          	csrsi	mstatus,8
/casa/workspace/Chronos-RISCV6/FreeRTOS/Debug/../FreeRTOS/portable/GCC/RISCV/port.c:145
	}
}
80001674:	00000013          	nop
80001678:	00c12403          	lw	s0,12(sp)
8000167c:	01010113          	addi	sp,sp,16
80001680:	00008067          	ret

80001684 <prvSetNextTimerInterrupt>:
prvSetNextTimerInterrupt():
/casa/workspace/Chronos-RISCV6/FreeRTOS/Debug/../FreeRTOS/portable/GCC/RISCV/port.c:151
/*-----------------------------------------------------------*/

/* Sets the next timer interrupt
 * Reads previous timer compare register, and adds tickrate */
static void prvSetNextTimerInterrupt(void)
{
80001684:	fe010113          	addi	sp,sp,-32
80001688:	00812e23          	sw	s0,28(sp)
8000168c:	02010413          	addi	s0,sp,32
/casa/workspace/Chronos-RISCV6/FreeRTOS/Debug/../FreeRTOS/portable/GCC/RISCV/port.c:154
	uint64_t time;

	time = mtime->val_low;
80001690:	80009637          	lui	a2,0x80009
80001694:	53862603          	lw	a2,1336(a2) # 80009538 <__stack_top+0xfffc25a8>
80001698:	00062603          	lw	a2,0(a2)
8000169c:	fec42423          	sw	a2,-24(s0)
800016a0:	fe042623          	sw	zero,-20(s0)
/casa/workspace/Chronos-RISCV6/FreeRTOS/Debug/../FreeRTOS/portable/GCC/RISCV/port.c:155
	time |= ((uint64_t)mtime->val_high << 32);
800016a4:	80009637          	lui	a2,0x80009
800016a8:	53862603          	lw	a2,1336(a2) # 80009538 <__stack_top+0xfffc25a8>
800016ac:	00462603          	lw	a2,4(a2)
800016b0:	00060693          	mv	a3,a2
800016b4:	00000713          	li	a4,0
800016b8:	00069813          	slli	a6,a3,0x0
800016bc:	00000793          	li	a5,0
800016c0:	fe842703          	lw	a4,-24(s0)
800016c4:	00f76733          	or	a4,a4,a5
800016c8:	fee42423          	sw	a4,-24(s0)
800016cc:	fec42703          	lw	a4,-20(s0)
800016d0:	010767b3          	or	a5,a4,a6
800016d4:	fef42623          	sw	a5,-20(s0)
/casa/workspace/Chronos-RISCV6/FreeRTOS/Debug/../FreeRTOS/portable/GCC/RISCV/port.c:157

	time += (configCPU_CLOCK_HZ / configTICK_RATE_HZ);
800016d8:	fe842683          	lw	a3,-24(s0)
800016dc:	fec42703          	lw	a4,-20(s0)
800016e0:	000185b7          	lui	a1,0x18
800016e4:	6a058593          	addi	a1,a1,1696 # 186a0 <HEAP_SIZE+0x86a0>
800016e8:	00000613          	li	a2,0
800016ec:	00b687b3          	add	a5,a3,a1
800016f0:	00078513          	mv	a0,a5
800016f4:	00d53533          	sltu	a0,a0,a3
800016f8:	00c70833          	add	a6,a4,a2
800016fc:	01050733          	add	a4,a0,a6
80001700:	00070813          	mv	a6,a4
80001704:	fef42423          	sw	a5,-24(s0)
80001708:	ff042623          	sw	a6,-20(s0)
/casa/workspace/Chronos-RISCV6/FreeRTOS/Debug/../FreeRTOS/portable/GCC/RISCV/port.c:159

	mtimecmp->val_low = (uint32_t)(time & 0xFFFFFFFF);
8000170c:	800097b7          	lui	a5,0x80009
80001710:	53c7a783          	lw	a5,1340(a5) # 8000953c <__stack_top+0xfffc25ac>
80001714:	fe842703          	lw	a4,-24(s0)
80001718:	00e7a023          	sw	a4,0(a5)
/casa/workspace/Chronos-RISCV6/FreeRTOS/Debug/../FreeRTOS/portable/GCC/RISCV/port.c:160
	mtimecmp->val_high = (uint32_t)((time >> 32) & 0xFFFFFFFF);
8000171c:	fec42783          	lw	a5,-20(s0)
80001720:	0007d313          	srli	t1,a5,0x0
80001724:	00000393          	li	t2,0
80001728:	800097b7          	lui	a5,0x80009
8000172c:	53c7a783          	lw	a5,1340(a5) # 8000953c <__stack_top+0xfffc25ac>
80001730:	00030713          	mv	a4,t1
80001734:	00e7a223          	sw	a4,4(a5)
/casa/workspace/Chronos-RISCV6/FreeRTOS/Debug/../FreeRTOS/portable/GCC/RISCV/port.c:163

	/* Enable timer interrupt */
	__asm volatile("csrs mie,%0"::"r"(0x80));
80001738:	08000793          	li	a5,128
8000173c:	3047a073          	csrs	mie,a5
/casa/workspace/Chronos-RISCV6/FreeRTOS/Debug/../FreeRTOS/portable/GCC/RISCV/port.c:164
}
80001740:	00000013          	nop
80001744:	01c12403          	lw	s0,28(sp)
80001748:	02010113          	addi	sp,sp,32
8000174c:	00008067          	ret

80001750 <vPortSetupTimer>:
vPortSetupTimer():
/casa/workspace/Chronos-RISCV6/FreeRTOS/Debug/../FreeRTOS/portable/GCC/RISCV/port.c:169
/*-----------------------------------------------------------*/

/* Sets and enable the timer interrupt */
void vPortSetupTimer(void)
{
80001750:	fe010113          	addi	sp,sp,-32
80001754:	00812e23          	sw	s0,28(sp)
80001758:	02010413          	addi	s0,sp,32
/casa/workspace/Chronos-RISCV6/FreeRTOS/Debug/../FreeRTOS/portable/GCC/RISCV/port.c:172
	uint64_t time;

	time = mtime->val_low;
8000175c:	80009637          	lui	a2,0x80009
80001760:	53862603          	lw	a2,1336(a2) # 80009538 <__stack_top+0xfffc25a8>
80001764:	00062603          	lw	a2,0(a2)
80001768:	fec42423          	sw	a2,-24(s0)
8000176c:	fe042623          	sw	zero,-20(s0)
/casa/workspace/Chronos-RISCV6/FreeRTOS/Debug/../FreeRTOS/portable/GCC/RISCV/port.c:173
	time |= ((uint64_t)mtime->val_high << 32);
80001770:	80009637          	lui	a2,0x80009
80001774:	53862603          	lw	a2,1336(a2) # 80009538 <__stack_top+0xfffc25a8>
80001778:	00462603          	lw	a2,4(a2)
8000177c:	00060693          	mv	a3,a2
80001780:	00000713          	li	a4,0
80001784:	00069813          	slli	a6,a3,0x0
80001788:	00000793          	li	a5,0
8000178c:	fe842703          	lw	a4,-24(s0)
80001790:	00f76733          	or	a4,a4,a5
80001794:	fee42423          	sw	a4,-24(s0)
80001798:	fec42703          	lw	a4,-20(s0)
8000179c:	010767b3          	or	a5,a4,a6
800017a0:	fef42623          	sw	a5,-20(s0)
/casa/workspace/Chronos-RISCV6/FreeRTOS/Debug/../FreeRTOS/portable/GCC/RISCV/port.c:175

	time += (configCPU_CLOCK_HZ / configTICK_RATE_HZ);
800017a4:	fe842683          	lw	a3,-24(s0)
800017a8:	fec42703          	lw	a4,-20(s0)
800017ac:	000185b7          	lui	a1,0x18
800017b0:	6a058593          	addi	a1,a1,1696 # 186a0 <HEAP_SIZE+0x86a0>
800017b4:	00000613          	li	a2,0
800017b8:	00b687b3          	add	a5,a3,a1
800017bc:	00078513          	mv	a0,a5
800017c0:	00d53533          	sltu	a0,a0,a3
800017c4:	00c70833          	add	a6,a4,a2
800017c8:	01050733          	add	a4,a0,a6
800017cc:	00070813          	mv	a6,a4
800017d0:	fef42423          	sw	a5,-24(s0)
800017d4:	ff042623          	sw	a6,-20(s0)
/casa/workspace/Chronos-RISCV6/FreeRTOS/Debug/../FreeRTOS/portable/GCC/RISCV/port.c:177

	mtimecmp->val_low = (uint32_t)(time & 0xFFFFFFFF);
800017d8:	800097b7          	lui	a5,0x80009
800017dc:	53c7a783          	lw	a5,1340(a5) # 8000953c <__stack_top+0xfffc25ac>
800017e0:	fe842703          	lw	a4,-24(s0)
800017e4:	00e7a023          	sw	a4,0(a5)
/casa/workspace/Chronos-RISCV6/FreeRTOS/Debug/../FreeRTOS/portable/GCC/RISCV/port.c:178
	mtimecmp->val_high = (uint32_t)((time >> 32) & 0xFFFFFFFF);
800017e8:	fec42783          	lw	a5,-20(s0)
800017ec:	0007d313          	srli	t1,a5,0x0
800017f0:	00000393          	li	t2,0
800017f4:	800097b7          	lui	a5,0x80009
800017f8:	53c7a783          	lw	a5,1340(a5) # 8000953c <__stack_top+0xfffc25ac>
800017fc:	00030713          	mv	a4,t1
80001800:	00e7a223          	sw	a4,4(a5)
/casa/workspace/Chronos-RISCV6/FreeRTOS/Debug/../FreeRTOS/portable/GCC/RISCV/port.c:182


	/* Enable timer interrupt */
	__asm volatile("csrs mie,%0"::"r"(0x80));
80001804:	08000793          	li	a5,128
80001808:	3047a073          	csrs	mie,a5
/casa/workspace/Chronos-RISCV6/FreeRTOS/Debug/../FreeRTOS/portable/GCC/RISCV/port.c:183
}
8000180c:	00000013          	nop
80001810:	01c12403          	lw	s0,28(sp)
80001814:	02010113          	addi	sp,sp,32
80001818:	00008067          	ret

8000181c <prvTaskExitError>:
prvTaskExitError():
/casa/workspace/Chronos-RISCV6/FreeRTOS/Debug/../FreeRTOS/portable/GCC/RISCV/port.c:187
/*-----------------------------------------------------------*/

void prvTaskExitError( void )
{
8000181c:	ff010113          	addi	sp,sp,-16
80001820:	00812623          	sw	s0,12(sp)
80001824:	01010413          	addi	s0,sp,16
/casa/workspace/Chronos-RISCV6/FreeRTOS/Debug/../FreeRTOS/portable/GCC/RISCV/port.c:194
	its caller as there is nothing to return to.  If a task wants to exit it
	should instead call vTaskDelete( NULL ).

	Artificially force an assert() to be triggered if configASSERT() is
	defined, then stop here so application writers can catch the error. */
	configASSERT( uxCriticalNesting == ~0UL );
80001828:	800097b7          	lui	a5,0x80009
8000182c:	5347a703          	lw	a4,1332(a5) # 80009534 <__stack_top+0xfffc25a4>
80001830:	fff00793          	li	a5,-1
80001834:	00f70663          	beq	a4,a5,80001840 <prvTaskExitError+0x24>
/casa/workspace/Chronos-RISCV6/FreeRTOS/Debug/../FreeRTOS/portable/GCC/RISCV/port.c:194 (discriminator 1)
80001838:	30047073          	csrci	mstatus,8
8000183c:	0000006f          	j	8000183c <prvTaskExitError+0x20>
/casa/workspace/Chronos-RISCV6/FreeRTOS/Debug/../FreeRTOS/portable/GCC/RISCV/port.c:195
	portDISABLE_INTERRUPTS();
80001840:	30047073          	csrci	mstatus,8
/casa/workspace/Chronos-RISCV6/FreeRTOS/Debug/../FreeRTOS/portable/GCC/RISCV/port.c:196 (discriminator 2)
	for( ;; );
80001844:	0000006f          	j	80001844 <prvTaskExitError+0x28>

80001848 <vPortClearInterruptMask>:
vPortClearInterruptMask():
/casa/workspace/Chronos-RISCV6/FreeRTOS/Debug/../FreeRTOS/portable/GCC/RISCV/port.c:202
}
/*-----------------------------------------------------------*/

/* Clear current interrupt mask and set given mask */
void vPortClearInterruptMask(int mask)
{
80001848:	fe010113          	addi	sp,sp,-32
8000184c:	00812e23          	sw	s0,28(sp)
80001850:	02010413          	addi	s0,sp,32
80001854:	fea42623          	sw	a0,-20(s0)
/casa/workspace/Chronos-RISCV6/FreeRTOS/Debug/../FreeRTOS/portable/GCC/RISCV/port.c:203
	__asm volatile("csrw mie, %0"::"r"(mask));
80001858:	fec42783          	lw	a5,-20(s0)
8000185c:	30479073          	csrw	mie,a5
/casa/workspace/Chronos-RISCV6/FreeRTOS/Debug/../FreeRTOS/portable/GCC/RISCV/port.c:204
}
80001860:	00000013          	nop
80001864:	01c12403          	lw	s0,28(sp)
80001868:	02010113          	addi	sp,sp,32
8000186c:	00008067          	ret

80001870 <vPortSetInterruptMask>:
vPortSetInterruptMask():
/casa/workspace/Chronos-RISCV6/FreeRTOS/Debug/../FreeRTOS/portable/GCC/RISCV/port.c:209
/*-----------------------------------------------------------*/

/* Set interrupt mask and return current interrupt enable register */
int vPortSetInterruptMask(void)
{
80001870:	fe010113          	addi	sp,sp,-32
80001874:	00812e23          	sw	s0,28(sp)
80001878:	02010413          	addi	s0,sp,32
/casa/workspace/Chronos-RISCV6/FreeRTOS/Debug/../FreeRTOS/portable/GCC/RISCV/port.c:211
	int ret;
	__asm volatile("csrr %0,mie":"=r"(ret));
8000187c:	304027f3          	csrr	a5,mie
80001880:	fef42623          	sw	a5,-20(s0)
/casa/workspace/Chronos-RISCV6/FreeRTOS/Debug/../FreeRTOS/portable/GCC/RISCV/port.c:212
	__asm volatile("csrc mie,%0"::"i"(7));
80001884:	3043f073          	csrci	mie,7
/casa/workspace/Chronos-RISCV6/FreeRTOS/Debug/../FreeRTOS/portable/GCC/RISCV/port.c:213
	return ret;
80001888:	fec42783          	lw	a5,-20(s0)
/casa/workspace/Chronos-RISCV6/FreeRTOS/Debug/../FreeRTOS/portable/GCC/RISCV/port.c:214
}
8000188c:	00078513          	mv	a0,a5
80001890:	01c12403          	lw	s0,28(sp)
80001894:	02010113          	addi	sp,sp,32
80001898:	00008067          	ret

8000189c <pxPortInitialiseStack>:
pxPortInitialiseStack():
/casa/workspace/Chronos-RISCV6/FreeRTOS/Debug/../FreeRTOS/portable/GCC/RISCV/port.c:220

/*
 * See header file for description.
 */
StackType_t *pxPortInitialiseStack( StackType_t *pxTopOfStack, TaskFunction_t pxCode, void *pvParameters )
{
8000189c:	fe010113          	addi	sp,sp,-32
800018a0:	00812e23          	sw	s0,28(sp)
800018a4:	02010413          	addi	s0,sp,32
800018a8:	fea42623          	sw	a0,-20(s0)
800018ac:	feb42423          	sw	a1,-24(s0)
800018b0:	fec42223          	sw	a2,-28(s0)
/casa/workspace/Chronos-RISCV6/FreeRTOS/Debug/../FreeRTOS/portable/GCC/RISCV/port.c:224
	/* Simulate the stack frame as it would be created by a context switch
	interrupt. */
	register int *tp asm("x3");
	pxTopOfStack--;
800018b4:	fec42783          	lw	a5,-20(s0)
800018b8:	ffc78793          	addi	a5,a5,-4
800018bc:	fef42623          	sw	a5,-20(s0)
/casa/workspace/Chronos-RISCV6/FreeRTOS/Debug/../FreeRTOS/portable/GCC/RISCV/port.c:225
	*pxTopOfStack = (portSTACK_TYPE)pxCode;			/* Start address */
800018c0:	fe842703          	lw	a4,-24(s0)
800018c4:	fec42783          	lw	a5,-20(s0)
800018c8:	00e7a023          	sw	a4,0(a5)
/casa/workspace/Chronos-RISCV6/FreeRTOS/Debug/../FreeRTOS/portable/GCC/RISCV/port.c:226
	pxTopOfStack -= 22;
800018cc:	fec42783          	lw	a5,-20(s0)
800018d0:	fa878793          	addi	a5,a5,-88
800018d4:	fef42623          	sw	a5,-20(s0)
/casa/workspace/Chronos-RISCV6/FreeRTOS/Debug/../FreeRTOS/portable/GCC/RISCV/port.c:227
	*pxTopOfStack = (portSTACK_TYPE)pvParameters;	/* Register a0 */
800018d8:	fe442703          	lw	a4,-28(s0)
800018dc:	fec42783          	lw	a5,-20(s0)
800018e0:	00e7a023          	sw	a4,0(a5)
/casa/workspace/Chronos-RISCV6/FreeRTOS/Debug/../FreeRTOS/portable/GCC/RISCV/port.c:228
	pxTopOfStack -= 6;
800018e4:	fec42783          	lw	a5,-20(s0)
800018e8:	fe878793          	addi	a5,a5,-24
800018ec:	fef42623          	sw	a5,-20(s0)
/casa/workspace/Chronos-RISCV6/FreeRTOS/Debug/../FreeRTOS/portable/GCC/RISCV/port.c:229
	*pxTopOfStack = (portSTACK_TYPE)tp; /* Register thread pointer */
800018f0:	00018793          	mv	a5,gp
800018f4:	00078713          	mv	a4,a5
800018f8:	fec42783          	lw	a5,-20(s0)
800018fc:	00e7a023          	sw	a4,0(a5)
/casa/workspace/Chronos-RISCV6/FreeRTOS/Debug/../FreeRTOS/portable/GCC/RISCV/port.c:230
	pxTopOfStack -= 3;
80001900:	fec42783          	lw	a5,-20(s0)
80001904:	ff478793          	addi	a5,a5,-12
80001908:	fef42623          	sw	a5,-20(s0)
/casa/workspace/Chronos-RISCV6/FreeRTOS/Debug/../FreeRTOS/portable/GCC/RISCV/port.c:231
	*pxTopOfStack = (portSTACK_TYPE)prvTaskExitError; /* Register ra */
8000190c:	800027b7          	lui	a5,0x80002
80001910:	81c78713          	addi	a4,a5,-2020 # 8000181c <__stack_top+0xfffba88c>
80001914:	fec42783          	lw	a5,-20(s0)
80001918:	00e7a023          	sw	a4,0(a5)
/casa/workspace/Chronos-RISCV6/FreeRTOS/Debug/../FreeRTOS/portable/GCC/RISCV/port.c:233

	return pxTopOfStack;
8000191c:	fec42783          	lw	a5,-20(s0)
/casa/workspace/Chronos-RISCV6/FreeRTOS/Debug/../FreeRTOS/portable/GCC/RISCV/port.c:234
}
80001920:	00078513          	mv	a0,a5
80001924:	01c12403          	lw	s0,28(sp)
80001928:	02010113          	addi	sp,sp,32
8000192c:	00008067          	ret

80001930 <SysTick_Handler>:
SysTick_Handler():
/casa/workspace/Chronos-RISCV6/FreeRTOS/Debug/../FreeRTOS/portable/GCC/RISCV/port.c:238
/*-----------------------------------------------------------*/

void vPortSysTickHandler( void )
{
80001930:	ff010113          	addi	sp,sp,-16
80001934:	00112623          	sw	ra,12(sp)
80001938:	00812423          	sw	s0,8(sp)
8000193c:	01010413          	addi	s0,sp,16
/casa/workspace/Chronos-RISCV6/FreeRTOS/Debug/../FreeRTOS/portable/GCC/RISCV/port.c:241
	/*Save Context*/
	{
		__asm volatile("lw	t0, pxCurrentTCB");
80001940:	92c1a283          	lw	t0,-1748(gp) # 8000965c <pxCurrentTCB>
/casa/workspace/Chronos-RISCV6/FreeRTOS/Debug/../FreeRTOS/portable/GCC/RISCV/port.c:242
		__asm volatile("sw	a2, 0x0(t0)");
80001944:	00c2a023          	sw	a2,0(t0)
/casa/workspace/Chronos-RISCV6/FreeRTOS/Debug/../FreeRTOS/portable/GCC/RISCV/port.c:246
	}

	/* Increment the RTOS tick. */
	prvSetNextTimerInterrupt();
80001948:	d3dff0ef          	jal	ra,80001684 <prvSetNextTimerInterrupt>
/casa/workspace/Chronos-RISCV6/FreeRTOS/Debug/../FreeRTOS/portable/GCC/RISCV/port.c:249

	/*Switch task */
	if( xTaskIncrementTick() != pdFALSE )
8000194c:	739000ef          	jal	ra,80002884 <xTaskIncrementTick>
80001950:	00050793          	mv	a5,a0
80001954:	00078463          	beqz	a5,8000195c <SysTick_Handler+0x2c>
/casa/workspace/Chronos-RISCV6/FreeRTOS/Debug/../FreeRTOS/portable/GCC/RISCV/port.c:251
	{
		vTaskSwitchContext();
80001958:	118010ef          	jal	ra,80002a70 <vTaskSwitchContext>
/casa/workspace/Chronos-RISCV6/FreeRTOS/Debug/../FreeRTOS/portable/GCC/RISCV/port.c:256
	}

	/*Restore Context*/
	{
		__asm volatile("lw	sp, pxCurrentTCB");
8000195c:	92c1a103          	lw	sp,-1748(gp) # 8000965c <pxCurrentTCB>
/casa/workspace/Chronos-RISCV6/FreeRTOS/Debug/../FreeRTOS/portable/GCC/RISCV/port.c:257
		__asm volatile("lw	sp, 0x0(sp)");
80001960:	00012103          	lw	sp,0(sp)
/casa/workspace/Chronos-RISCV6/FreeRTOS/Debug/../FreeRTOS/portable/GCC/RISCV/port.c:259

		__asm volatile("lw	t0, 31 * 4(sp)");
80001964:	07c12283          	lw	t0,124(sp)
/casa/workspace/Chronos-RISCV6/FreeRTOS/Debug/../FreeRTOS/portable/GCC/RISCV/port.c:260
		__asm volatile("csrw	mepc, t0");
80001968:	34129073          	csrw	mepc,t0
/casa/workspace/Chronos-RISCV6/FreeRTOS/Debug/../FreeRTOS/portable/GCC/RISCV/port.c:263

		// Added by Iaan
		__asm volatile("lui	t0, 0x2");
8000196c:	000022b7          	lui	t0,0x2
/casa/workspace/Chronos-RISCV6/FreeRTOS/Debug/../FreeRTOS/portable/GCC/RISCV/port.c:264
  		__asm volatile("addi t0,t0,-2048");
80001970:	80028293          	addi	t0,t0,-2048 # 1800 <HEAP_SIZE-0xe800>
/casa/workspace/Chronos-RISCV6/FreeRTOS/Debug/../FreeRTOS/portable/GCC/RISCV/port.c:265
		__asm volatile("csrs mstatus,t0");
80001974:	3002a073          	csrs	mstatus,t0
/casa/workspace/Chronos-RISCV6/FreeRTOS/Debug/../FreeRTOS/portable/GCC/RISCV/port.c:267

		__asm volatile("lw	t0, 32 * 4(sp)");
80001978:	08012283          	lw	t0,128(sp)
/casa/workspace/Chronos-RISCV6/FreeRTOS/Debug/../FreeRTOS/portable/GCC/RISCV/port.c:268
		__asm volatile("slli t0, t0, 0x4");
8000197c:	00429293          	slli	t0,t0,0x4
/casa/workspace/Chronos-RISCV6/FreeRTOS/Debug/../FreeRTOS/portable/GCC/RISCV/port.c:269
		__asm volatile("csrs mstatus, t0");
80001980:	3002a073          	csrs	mstatus,t0
/casa/workspace/Chronos-RISCV6/FreeRTOS/Debug/../FreeRTOS/portable/GCC/RISCV/port.c:271

		__asm volatile("lw	x1, 0x0(sp)");
80001984:	00012083          	lw	ra,0(sp)
/casa/workspace/Chronos-RISCV6/FreeRTOS/Debug/../FreeRTOS/portable/GCC/RISCV/port.c:272
		__asm volatile("lw   x4, 3 * 4(sp)");
80001988:	00c12203          	lw	tp,12(sp)
/casa/workspace/Chronos-RISCV6/FreeRTOS/Debug/../FreeRTOS/portable/GCC/RISCV/port.c:273
		__asm volatile("lw   x5, 4 * 4(sp)");
8000198c:	01012283          	lw	t0,16(sp)
/casa/workspace/Chronos-RISCV6/FreeRTOS/Debug/../FreeRTOS/portable/GCC/RISCV/port.c:274
		__asm volatile("lw   x6, 5 * 4(sp)");
80001990:	01412303          	lw	t1,20(sp)
/casa/workspace/Chronos-RISCV6/FreeRTOS/Debug/../FreeRTOS/portable/GCC/RISCV/port.c:275
		__asm volatile("lw   x7, 6 * 4(sp)");
80001994:	01812383          	lw	t2,24(sp)
/casa/workspace/Chronos-RISCV6/FreeRTOS/Debug/../FreeRTOS/portable/GCC/RISCV/port.c:276
		__asm volatile("lw   x8, 7 * 4(sp)");
80001998:	01c12403          	lw	s0,28(sp)
/casa/workspace/Chronos-RISCV6/FreeRTOS/Debug/../FreeRTOS/portable/GCC/RISCV/port.c:277
		__asm volatile("lw   x9, 8 * 4(sp)");
8000199c:	02012483          	lw	s1,32(sp)
/casa/workspace/Chronos-RISCV6/FreeRTOS/Debug/../FreeRTOS/portable/GCC/RISCV/port.c:278
		__asm volatile("lw   x10, 9 * 4(sp)");
800019a0:	02412503          	lw	a0,36(sp)
/casa/workspace/Chronos-RISCV6/FreeRTOS/Debug/../FreeRTOS/portable/GCC/RISCV/port.c:279
		__asm volatile("lw   x11, 10 * 4(sp)");
800019a4:	02812583          	lw	a1,40(sp)
/casa/workspace/Chronos-RISCV6/FreeRTOS/Debug/../FreeRTOS/portable/GCC/RISCV/port.c:280
		__asm volatile("lw   x12, 11 * 4(sp)");
800019a8:	02c12603          	lw	a2,44(sp)
/casa/workspace/Chronos-RISCV6/FreeRTOS/Debug/../FreeRTOS/portable/GCC/RISCV/port.c:281
		__asm volatile("lw   x13, 12 * 4(sp)");
800019ac:	03012683          	lw	a3,48(sp)
/casa/workspace/Chronos-RISCV6/FreeRTOS/Debug/../FreeRTOS/portable/GCC/RISCV/port.c:282
		__asm volatile("lw   x14, 13 * 4(sp)");
800019b0:	03412703          	lw	a4,52(sp)
/casa/workspace/Chronos-RISCV6/FreeRTOS/Debug/../FreeRTOS/portable/GCC/RISCV/port.c:283
		__asm volatile("lw   x15, 14 * 4(sp)");
800019b4:	03812783          	lw	a5,56(sp)
/casa/workspace/Chronos-RISCV6/FreeRTOS/Debug/../FreeRTOS/portable/GCC/RISCV/port.c:284
		__asm volatile("lw   x16, 15 * 4(sp)");
800019b8:	03c12803          	lw	a6,60(sp)
/casa/workspace/Chronos-RISCV6/FreeRTOS/Debug/../FreeRTOS/portable/GCC/RISCV/port.c:285
		__asm volatile("lw   x17, 16 * 4(sp)");
800019bc:	04012883          	lw	a7,64(sp)
/casa/workspace/Chronos-RISCV6/FreeRTOS/Debug/../FreeRTOS/portable/GCC/RISCV/port.c:286
		__asm volatile("lw   x18, 17 * 4(sp)");
800019c0:	04412903          	lw	s2,68(sp)
/casa/workspace/Chronos-RISCV6/FreeRTOS/Debug/../FreeRTOS/portable/GCC/RISCV/port.c:287
		__asm volatile("lw   x19, 18 * 4(sp)");
800019c4:	04812983          	lw	s3,72(sp)
/casa/workspace/Chronos-RISCV6/FreeRTOS/Debug/../FreeRTOS/portable/GCC/RISCV/port.c:288
		__asm volatile("lw   x20, 19 * 4(sp)");
800019c8:	04c12a03          	lw	s4,76(sp)
/casa/workspace/Chronos-RISCV6/FreeRTOS/Debug/../FreeRTOS/portable/GCC/RISCV/port.c:289
		__asm volatile("lw   x21, 20 * 4(sp)");
800019cc:	05012a83          	lw	s5,80(sp)
/casa/workspace/Chronos-RISCV6/FreeRTOS/Debug/../FreeRTOS/portable/GCC/RISCV/port.c:290
		__asm volatile("lw   x22, 21 * 4(sp)");
800019d0:	05412b03          	lw	s6,84(sp)
/casa/workspace/Chronos-RISCV6/FreeRTOS/Debug/../FreeRTOS/portable/GCC/RISCV/port.c:291
		__asm volatile("lw   x23, 22 * 4(sp)");
800019d4:	05812b83          	lw	s7,88(sp)
/casa/workspace/Chronos-RISCV6/FreeRTOS/Debug/../FreeRTOS/portable/GCC/RISCV/port.c:292
		__asm volatile("lw   x24, 23 * 4(sp)");
800019d8:	05c12c03          	lw	s8,92(sp)
/casa/workspace/Chronos-RISCV6/FreeRTOS/Debug/../FreeRTOS/portable/GCC/RISCV/port.c:293
		__asm volatile("lw   x25, 24 * 4(sp)");
800019dc:	06012c83          	lw	s9,96(sp)
/casa/workspace/Chronos-RISCV6/FreeRTOS/Debug/../FreeRTOS/portable/GCC/RISCV/port.c:294
		__asm volatile("lw   x26, 25 * 4(sp)");
800019e0:	06412d03          	lw	s10,100(sp)
/casa/workspace/Chronos-RISCV6/FreeRTOS/Debug/../FreeRTOS/portable/GCC/RISCV/port.c:295
		__asm volatile("lw   x27, 26 * 4(sp)");
800019e4:	06812d83          	lw	s11,104(sp)
/casa/workspace/Chronos-RISCV6/FreeRTOS/Debug/../FreeRTOS/portable/GCC/RISCV/port.c:296
		__asm volatile("lw   x28, 27 * 4(sp)");
800019e8:	06c12e03          	lw	t3,108(sp)
/casa/workspace/Chronos-RISCV6/FreeRTOS/Debug/../FreeRTOS/portable/GCC/RISCV/port.c:297
		__asm volatile("lw   x29, 28 * 4(sp)");
800019ec:	07012e83          	lw	t4,112(sp)
/casa/workspace/Chronos-RISCV6/FreeRTOS/Debug/../FreeRTOS/portable/GCC/RISCV/port.c:298
		__asm volatile("lw   x30, 29 * 4(sp)");
800019f0:	07412f03          	lw	t5,116(sp)
/casa/workspace/Chronos-RISCV6/FreeRTOS/Debug/../FreeRTOS/portable/GCC/RISCV/port.c:299
		__asm volatile("lw   x31, 30 * 4(sp)");
800019f4:	07812f83          	lw	t6,120(sp)
/casa/workspace/Chronos-RISCV6/FreeRTOS/Debug/../FreeRTOS/portable/GCC/RISCV/port.c:301

		__asm volatile("addi	sp, sp, 4 * 33");
800019f8:	08410113          	addi	sp,sp,132
/casa/workspace/Chronos-RISCV6/FreeRTOS/Debug/../FreeRTOS/portable/GCC/RISCV/port.c:303

		__asm volatile("mret");
800019fc:	30200073          	mret
/casa/workspace/Chronos-RISCV6/FreeRTOS/Debug/../FreeRTOS/portable/GCC/RISCV/port.c:305
	}
}
80001a00:	00000013          	nop
80001a04:	00c12083          	lw	ra,12(sp)
80001a08:	00812403          	lw	s0,8(sp)
80001a0c:	01010113          	addi	sp,sp,16
80001a10:	00008067          	ret

80001a14 <xPortStartScheduler>:
xPortStartScheduler():
/casa/workspace/Chronos-RISCV6/FreeRTOS/Debug/../FreeRTOS/portable/GCC/RISCV/port.c:308
uint32_t g_startscheduler = 0;
BaseType_t xPortStartScheduler( void )
{
80001a14:	ff010113          	addi	sp,sp,-16
80001a18:	00112623          	sw	ra,12(sp)
80001a1c:	00812423          	sw	s0,8(sp)
80001a20:	01010413          	addi	s0,sp,16
/casa/workspace/Chronos-RISCV6/FreeRTOS/Debug/../FreeRTOS/portable/GCC/RISCV/port.c:309
	vPortSetupTimer();
80001a24:	d2dff0ef          	jal	ra,80001750 <vPortSetupTimer>
/casa/workspace/Chronos-RISCV6/FreeRTOS/Debug/../FreeRTOS/portable/GCC/RISCV/port.c:310
	uxCriticalNesting = 0;
80001a28:	800097b7          	lui	a5,0x80009
80001a2c:	5207aa23          	sw	zero,1332(a5) # 80009534 <__stack_top+0xfffc25a4>
/casa/workspace/Chronos-RISCV6/FreeRTOS/Debug/../FreeRTOS/portable/GCC/RISCV/port.c:311
	g_startscheduler = 1;
80001a30:	00100713          	li	a4,1
80001a34:	92e1a423          	sw	a4,-1752(gp) # 80009658 <g_startscheduler>
/casa/workspace/Chronos-RISCV6/FreeRTOS/Debug/../FreeRTOS/portable/GCC/RISCV/port.c:312
	__enable_irq();
80001a38:	969fe0ef          	jal	ra,800003a0 <__enable_irq>
/casa/workspace/Chronos-RISCV6/FreeRTOS/Debug/../FreeRTOS/portable/GCC/RISCV/port.c:314

	raise_soft_interrupt();
80001a3c:	b89ff0ef          	jal	ra,800015c4 <raise_soft_interrupt>
/casa/workspace/Chronos-RISCV6/FreeRTOS/Debug/../FreeRTOS/portable/GCC/RISCV/port.c:317

	/*Should not get here*/
	return pdFALSE;
80001a40:	00000793          	li	a5,0
/casa/workspace/Chronos-RISCV6/FreeRTOS/Debug/../FreeRTOS/portable/GCC/RISCV/port.c:318
}
80001a44:	00078513          	mv	a0,a5
80001a48:	00c12083          	lw	ra,12(sp)
80001a4c:	00812403          	lw	s0,8(sp)
80001a50:	01010113          	addi	sp,sp,16
80001a54:	00008067          	ret

80001a58 <Software_IRQHandler>:
Software_IRQHandler():
/casa/workspace/Chronos-RISCV6/FreeRTOS/Debug/../FreeRTOS/portable/GCC/RISCV/port.c:321

void Software_IRQHandler(void)
{
80001a58:	ff010113          	addi	sp,sp,-16
80001a5c:	00112623          	sw	ra,12(sp)
80001a60:	00812423          	sw	s0,8(sp)
80001a64:	01010413          	addi	s0,sp,16
/casa/workspace/Chronos-RISCV6/FreeRTOS/Debug/../FreeRTOS/portable/GCC/RISCV/port.c:322
	if(1 == g_startscheduler)
80001a68:	9281a703          	lw	a4,-1752(gp) # 80009658 <g_startscheduler>
80001a6c:	00100793          	li	a5,1
80001a70:	00f71863          	bne	a4,a5,80001a80 <Software_IRQHandler+0x28>
/casa/workspace/Chronos-RISCV6/FreeRTOS/Debug/../FreeRTOS/portable/GCC/RISCV/port.c:324
	{
		g_startscheduler = 2; //skip the save n switch context first time when scheduler is starting.
80001a74:	00200713          	li	a4,2
80001a78:	92e1a423          	sw	a4,-1752(gp) # 80009658 <g_startscheduler>
80001a7c:	0100006f          	j	80001a8c <Software_IRQHandler+0x34>
/casa/workspace/Chronos-RISCV6/FreeRTOS/Debug/../FreeRTOS/portable/GCC/RISCV/port.c:330
	}
	else
	{
		/*Save Context*/
		{
			__asm volatile("lw	t0, pxCurrentTCB");
80001a80:	92c1a283          	lw	t0,-1748(gp) # 8000965c <pxCurrentTCB>
/casa/workspace/Chronos-RISCV6/FreeRTOS/Debug/../FreeRTOS/portable/GCC/RISCV/port.c:331
			__asm volatile("sw	a2, 0x0(t0)");
80001a84:	00c2a023          	sw	a2,0(t0)
/casa/workspace/Chronos-RISCV6/FreeRTOS/Debug/../FreeRTOS/portable/GCC/RISCV/port.c:334
		}

		vTaskSwitchContext();
80001a88:	7e9000ef          	jal	ra,80002a70 <vTaskSwitchContext>
/casa/workspace/Chronos-RISCV6/FreeRTOS/Debug/../FreeRTOS/portable/GCC/RISCV/port.c:338
	}

	// Moved by Imperas (was previously causing corruption of a5)
	PRCI->MSIP[0] = 0x00;
80001a8c:	440007b7          	lui	a5,0x44000
80001a90:	0007a023          	sw	zero,0(a5) # 44000000 <RAM_SIZE+0x43f80000>
/casa/workspace/Chronos-RISCV6/FreeRTOS/Debug/../FreeRTOS/portable/GCC/RISCV/port.c:342

	/*Restore Context*/
	{
		__asm volatile("lw	sp, pxCurrentTCB");
80001a94:	92c1a103          	lw	sp,-1748(gp) # 8000965c <pxCurrentTCB>
/casa/workspace/Chronos-RISCV6/FreeRTOS/Debug/../FreeRTOS/portable/GCC/RISCV/port.c:343
		__asm volatile("lw	sp, 0x0(sp)");
80001a98:	00012103          	lw	sp,0(sp)
/casa/workspace/Chronos-RISCV6/FreeRTOS/Debug/../FreeRTOS/portable/GCC/RISCV/port.c:345

		__asm volatile("lw	t0, 31 * 4(sp)");
80001a9c:	07c12283          	lw	t0,124(sp)
/casa/workspace/Chronos-RISCV6/FreeRTOS/Debug/../FreeRTOS/portable/GCC/RISCV/port.c:346
		__asm volatile("csrw	mepc, t0");
80001aa0:	34129073          	csrw	mepc,t0
/casa/workspace/Chronos-RISCV6/FreeRTOS/Debug/../FreeRTOS/portable/GCC/RISCV/port.c:349

		// Added by Iaan
		__asm volatile("lui	t0, 0x2");
80001aa4:	000022b7          	lui	t0,0x2
/casa/workspace/Chronos-RISCV6/FreeRTOS/Debug/../FreeRTOS/portable/GCC/RISCV/port.c:350
  		__asm volatile("addi t0,t0,-2048");
80001aa8:	80028293          	addi	t0,t0,-2048 # 1800 <HEAP_SIZE-0xe800>
/casa/workspace/Chronos-RISCV6/FreeRTOS/Debug/../FreeRTOS/portable/GCC/RISCV/port.c:351
		__asm volatile("csrs mstatus,t0");
80001aac:	3002a073          	csrs	mstatus,t0
/casa/workspace/Chronos-RISCV6/FreeRTOS/Debug/../FreeRTOS/portable/GCC/RISCV/port.c:353

		__asm volatile("lw	t0, 32 * 4(sp)");
80001ab0:	08012283          	lw	t0,128(sp)
/casa/workspace/Chronos-RISCV6/FreeRTOS/Debug/../FreeRTOS/portable/GCC/RISCV/port.c:354
		__asm volatile("slli t0, t0, 0x4");
80001ab4:	00429293          	slli	t0,t0,0x4
/casa/workspace/Chronos-RISCV6/FreeRTOS/Debug/../FreeRTOS/portable/GCC/RISCV/port.c:355
		__asm volatile("csrs mstatus, t0");
80001ab8:	3002a073          	csrs	mstatus,t0
/casa/workspace/Chronos-RISCV6/FreeRTOS/Debug/../FreeRTOS/portable/GCC/RISCV/port.c:357

		__asm volatile("lw	x1, 0x0(sp)");
80001abc:	00012083          	lw	ra,0(sp)
/casa/workspace/Chronos-RISCV6/FreeRTOS/Debug/../FreeRTOS/portable/GCC/RISCV/port.c:358
		__asm volatile("lw   x4, 3 * 4(sp)");
80001ac0:	00c12203          	lw	tp,12(sp)
/casa/workspace/Chronos-RISCV6/FreeRTOS/Debug/../FreeRTOS/portable/GCC/RISCV/port.c:359
		__asm volatile("lw   x5, 4 * 4(sp)");
80001ac4:	01012283          	lw	t0,16(sp)
/casa/workspace/Chronos-RISCV6/FreeRTOS/Debug/../FreeRTOS/portable/GCC/RISCV/port.c:360
		__asm volatile("lw   x6, 5 * 4(sp)");
80001ac8:	01412303          	lw	t1,20(sp)
/casa/workspace/Chronos-RISCV6/FreeRTOS/Debug/../FreeRTOS/portable/GCC/RISCV/port.c:361
		__asm volatile("lw   x7, 6 * 4(sp)");
80001acc:	01812383          	lw	t2,24(sp)
/casa/workspace/Chronos-RISCV6/FreeRTOS/Debug/../FreeRTOS/portable/GCC/RISCV/port.c:362
		__asm volatile("lw   x8, 7 * 4(sp)");
80001ad0:	01c12403          	lw	s0,28(sp)
/casa/workspace/Chronos-RISCV6/FreeRTOS/Debug/../FreeRTOS/portable/GCC/RISCV/port.c:363
		__asm volatile("lw   x9, 8 * 4(sp)");
80001ad4:	02012483          	lw	s1,32(sp)
/casa/workspace/Chronos-RISCV6/FreeRTOS/Debug/../FreeRTOS/portable/GCC/RISCV/port.c:364
		__asm volatile("lw   x10, 9 * 4(sp)");
80001ad8:	02412503          	lw	a0,36(sp)
/casa/workspace/Chronos-RISCV6/FreeRTOS/Debug/../FreeRTOS/portable/GCC/RISCV/port.c:365
		__asm volatile("lw   x11, 10 * 4(sp)");
80001adc:	02812583          	lw	a1,40(sp)
/casa/workspace/Chronos-RISCV6/FreeRTOS/Debug/../FreeRTOS/portable/GCC/RISCV/port.c:366
		__asm volatile("lw   x12, 11 * 4(sp)");
80001ae0:	02c12603          	lw	a2,44(sp)
/casa/workspace/Chronos-RISCV6/FreeRTOS/Debug/../FreeRTOS/portable/GCC/RISCV/port.c:367
		__asm volatile("lw   x13, 12 * 4(sp)");
80001ae4:	03012683          	lw	a3,48(sp)
/casa/workspace/Chronos-RISCV6/FreeRTOS/Debug/../FreeRTOS/portable/GCC/RISCV/port.c:368
		__asm volatile("lw   x14, 13 * 4(sp)");
80001ae8:	03412703          	lw	a4,52(sp)
/casa/workspace/Chronos-RISCV6/FreeRTOS/Debug/../FreeRTOS/portable/GCC/RISCV/port.c:369
		__asm volatile("lw   x15, 14 * 4(sp)");
80001aec:	03812783          	lw	a5,56(sp)
/casa/workspace/Chronos-RISCV6/FreeRTOS/Debug/../FreeRTOS/portable/GCC/RISCV/port.c:370
		__asm volatile("lw   x16, 15 * 4(sp)");
80001af0:	03c12803          	lw	a6,60(sp)
/casa/workspace/Chronos-RISCV6/FreeRTOS/Debug/../FreeRTOS/portable/GCC/RISCV/port.c:371
		__asm volatile("lw   x17, 16 * 4(sp)");
80001af4:	04012883          	lw	a7,64(sp)
/casa/workspace/Chronos-RISCV6/FreeRTOS/Debug/../FreeRTOS/portable/GCC/RISCV/port.c:372
		__asm volatile("lw   x18, 17 * 4(sp)");
80001af8:	04412903          	lw	s2,68(sp)
/casa/workspace/Chronos-RISCV6/FreeRTOS/Debug/../FreeRTOS/portable/GCC/RISCV/port.c:373
		__asm volatile("lw   x19, 18 * 4(sp)");
80001afc:	04812983          	lw	s3,72(sp)
/casa/workspace/Chronos-RISCV6/FreeRTOS/Debug/../FreeRTOS/portable/GCC/RISCV/port.c:374
		__asm volatile("lw   x20, 19 * 4(sp)");
80001b00:	04c12a03          	lw	s4,76(sp)
/casa/workspace/Chronos-RISCV6/FreeRTOS/Debug/../FreeRTOS/portable/GCC/RISCV/port.c:375
		__asm volatile("lw   x21, 20 * 4(sp)");
80001b04:	05012a83          	lw	s5,80(sp)
/casa/workspace/Chronos-RISCV6/FreeRTOS/Debug/../FreeRTOS/portable/GCC/RISCV/port.c:376
		__asm volatile("lw   x22, 21 * 4(sp)");
80001b08:	05412b03          	lw	s6,84(sp)
/casa/workspace/Chronos-RISCV6/FreeRTOS/Debug/../FreeRTOS/portable/GCC/RISCV/port.c:377
		__asm volatile("lw   x23, 22 * 4(sp)");
80001b0c:	05812b83          	lw	s7,88(sp)
/casa/workspace/Chronos-RISCV6/FreeRTOS/Debug/../FreeRTOS/portable/GCC/RISCV/port.c:378
		__asm volatile("lw   x24, 23 * 4(sp)");
80001b10:	05c12c03          	lw	s8,92(sp)
/casa/workspace/Chronos-RISCV6/FreeRTOS/Debug/../FreeRTOS/portable/GCC/RISCV/port.c:379
		__asm volatile("lw   x25, 24 * 4(sp)");
80001b14:	06012c83          	lw	s9,96(sp)
/casa/workspace/Chronos-RISCV6/FreeRTOS/Debug/../FreeRTOS/portable/GCC/RISCV/port.c:380
		__asm volatile("lw   x26, 25 * 4(sp)");
80001b18:	06412d03          	lw	s10,100(sp)
/casa/workspace/Chronos-RISCV6/FreeRTOS/Debug/../FreeRTOS/portable/GCC/RISCV/port.c:381
		__asm volatile("lw   x27, 26 * 4(sp)");
80001b1c:	06812d83          	lw	s11,104(sp)
/casa/workspace/Chronos-RISCV6/FreeRTOS/Debug/../FreeRTOS/portable/GCC/RISCV/port.c:382
		__asm volatile("lw   x28, 27 * 4(sp)");
80001b20:	06c12e03          	lw	t3,108(sp)
/casa/workspace/Chronos-RISCV6/FreeRTOS/Debug/../FreeRTOS/portable/GCC/RISCV/port.c:383
		__asm volatile("lw   x29, 28 * 4(sp)");
80001b24:	07012e83          	lw	t4,112(sp)
/casa/workspace/Chronos-RISCV6/FreeRTOS/Debug/../FreeRTOS/portable/GCC/RISCV/port.c:384
		__asm volatile("lw   x30, 29 * 4(sp)");
80001b28:	07412f03          	lw	t5,116(sp)
/casa/workspace/Chronos-RISCV6/FreeRTOS/Debug/../FreeRTOS/portable/GCC/RISCV/port.c:385
		__asm volatile("lw   x31, 30 * 4(sp)");
80001b2c:	07812f83          	lw	t6,120(sp)
/casa/workspace/Chronos-RISCV6/FreeRTOS/Debug/../FreeRTOS/portable/GCC/RISCV/port.c:387

		__asm volatile("addi	sp, sp, 4 * 33");
80001b30:	08410113          	addi	sp,sp,132
/casa/workspace/Chronos-RISCV6/FreeRTOS/Debug/../FreeRTOS/portable/GCC/RISCV/port.c:392

	    // Moved by Imperas (causing corruption of a5 at this position)
		//PRCI->MSIP[0] = 0x00;

		__asm volatile("mret");
80001b34:	30200073          	mret
/casa/workspace/Chronos-RISCV6/FreeRTOS/Debug/../FreeRTOS/portable/GCC/RISCV/port.c:394
	}
}
80001b38:	00000013          	nop
80001b3c:	00c12083          	lw	ra,12(sp)
80001b40:	00812403          	lw	s0,8(sp)
80001b44:	01010113          	addi	sp,sp,16
80001b48:	00008067          	ret

80001b4c <vPortYield>:
vPortYield():
/casa/workspace/Chronos-RISCV6/FreeRTOS/Debug/../FreeRTOS/portable/GCC/RISCV/port.c:397

void vPortYield( void )
{
80001b4c:	ff010113          	addi	sp,sp,-16
80001b50:	00112623          	sw	ra,12(sp)
80001b54:	00812423          	sw	s0,8(sp)
80001b58:	01010413          	addi	s0,sp,16
/casa/workspace/Chronos-RISCV6/FreeRTOS/Debug/../FreeRTOS/portable/GCC/RISCV/port.c:398
	raise_soft_interrupt();
80001b5c:	a69ff0ef          	jal	ra,800015c4 <raise_soft_interrupt>
/casa/workspace/Chronos-RISCV6/FreeRTOS/Debug/../FreeRTOS/portable/GCC/RISCV/port.c:399
}
80001b60:	00000013          	nop
80001b64:	00c12083          	lw	ra,12(sp)
80001b68:	00812403          	lw	s0,8(sp)
80001b6c:	01010113          	addi	sp,sp,16
80001b70:	00008067          	ret

80001b74 <vListInitialise>:
vListInitialise():
/casa/workspace/Chronos-RISCV6/FreeRTOS/Debug/../FreeRTOS/list.c:80
/*-----------------------------------------------------------
 * PUBLIC LIST API documented in list.h
 *----------------------------------------------------------*/

void vListInitialise( List_t * const pxList )
{
80001b74:	fe010113          	addi	sp,sp,-32
80001b78:	00812e23          	sw	s0,28(sp)
80001b7c:	02010413          	addi	s0,sp,32
80001b80:	fea42623          	sw	a0,-20(s0)
/casa/workspace/Chronos-RISCV6/FreeRTOS/Debug/../FreeRTOS/list.c:84
	/* The list structure contains a list item which is used to mark the
	end of the list.  To initialise the list the list end is inserted
	as the only list entry. */
	pxList->pxIndex = ( ListItem_t * ) &( pxList->xListEnd );			/*lint !e826 !e740 The mini list structure is used as the list end to save RAM.  This is checked and valid. */
80001b84:	fec42783          	lw	a5,-20(s0)
80001b88:	00878713          	addi	a4,a5,8
80001b8c:	fec42783          	lw	a5,-20(s0)
80001b90:	00e7a223          	sw	a4,4(a5)
/casa/workspace/Chronos-RISCV6/FreeRTOS/Debug/../FreeRTOS/list.c:88

	/* The list end value is the highest possible value in the list to
	ensure it remains at the end of the list. */
	pxList->xListEnd.xItemValue = portMAX_DELAY;
80001b94:	fec42783          	lw	a5,-20(s0)
80001b98:	fff00713          	li	a4,-1
80001b9c:	00e7a423          	sw	a4,8(a5)
/casa/workspace/Chronos-RISCV6/FreeRTOS/Debug/../FreeRTOS/list.c:92

	/* The list end next and previous pointers point to itself so we know
	when the list is empty. */
	pxList->xListEnd.pxNext = ( ListItem_t * ) &( pxList->xListEnd );	/*lint !e826 !e740 The mini list structure is used as the list end to save RAM.  This is checked and valid. */
80001ba0:	fec42783          	lw	a5,-20(s0)
80001ba4:	00878713          	addi	a4,a5,8
80001ba8:	fec42783          	lw	a5,-20(s0)
80001bac:	00e7a623          	sw	a4,12(a5)
/casa/workspace/Chronos-RISCV6/FreeRTOS/Debug/../FreeRTOS/list.c:93
	pxList->xListEnd.pxPrevious = ( ListItem_t * ) &( pxList->xListEnd );/*lint !e826 !e740 The mini list structure is used as the list end to save RAM.  This is checked and valid. */
80001bb0:	fec42783          	lw	a5,-20(s0)
80001bb4:	00878713          	addi	a4,a5,8
80001bb8:	fec42783          	lw	a5,-20(s0)
80001bbc:	00e7a823          	sw	a4,16(a5)
/casa/workspace/Chronos-RISCV6/FreeRTOS/Debug/../FreeRTOS/list.c:95

	pxList->uxNumberOfItems = ( UBaseType_t ) 0U;
80001bc0:	fec42783          	lw	a5,-20(s0)
80001bc4:	0007a023          	sw	zero,0(a5)
/casa/workspace/Chronos-RISCV6/FreeRTOS/Debug/../FreeRTOS/list.c:101

	/* Write known values into the list if
	configUSE_LIST_DATA_INTEGRITY_CHECK_BYTES is set to 1. */
	listSET_LIST_INTEGRITY_CHECK_1_VALUE( pxList );
	listSET_LIST_INTEGRITY_CHECK_2_VALUE( pxList );
}
80001bc8:	00000013          	nop
80001bcc:	01c12403          	lw	s0,28(sp)
80001bd0:	02010113          	addi	sp,sp,32
80001bd4:	00008067          	ret

80001bd8 <vListInitialiseItem>:
vListInitialiseItem():
/casa/workspace/Chronos-RISCV6/FreeRTOS/Debug/../FreeRTOS/list.c:105
/*-----------------------------------------------------------*/

void vListInitialiseItem( ListItem_t * const pxItem )
{
80001bd8:	fe010113          	addi	sp,sp,-32
80001bdc:	00812e23          	sw	s0,28(sp)
80001be0:	02010413          	addi	s0,sp,32
80001be4:	fea42623          	sw	a0,-20(s0)
/casa/workspace/Chronos-RISCV6/FreeRTOS/Debug/../FreeRTOS/list.c:107
	/* Make sure the list item is not recorded as being on a list. */
	pxItem->pvContainer = NULL;
80001be8:	fec42783          	lw	a5,-20(s0)
80001bec:	0007a823          	sw	zero,16(a5)
/casa/workspace/Chronos-RISCV6/FreeRTOS/Debug/../FreeRTOS/list.c:113

	/* Write known values into the list item if
	configUSE_LIST_DATA_INTEGRITY_CHECK_BYTES is set to 1. */
	listSET_FIRST_LIST_ITEM_INTEGRITY_CHECK_VALUE( pxItem );
	listSET_SECOND_LIST_ITEM_INTEGRITY_CHECK_VALUE( pxItem );
}
80001bf0:	00000013          	nop
80001bf4:	01c12403          	lw	s0,28(sp)
80001bf8:	02010113          	addi	sp,sp,32
80001bfc:	00008067          	ret

80001c00 <vListInsertEnd>:
vListInsertEnd():
/casa/workspace/Chronos-RISCV6/FreeRTOS/Debug/../FreeRTOS/list.c:117
/*-----------------------------------------------------------*/

void vListInsertEnd( List_t * const pxList, ListItem_t * const pxNewListItem )
{
80001c00:	fd010113          	addi	sp,sp,-48
80001c04:	02812623          	sw	s0,44(sp)
80001c08:	03010413          	addi	s0,sp,48
80001c0c:	fca42e23          	sw	a0,-36(s0)
80001c10:	fcb42c23          	sw	a1,-40(s0)
/casa/workspace/Chronos-RISCV6/FreeRTOS/Debug/../FreeRTOS/list.c:118
ListItem_t * const pxIndex = pxList->pxIndex;
80001c14:	fdc42783          	lw	a5,-36(s0)
80001c18:	0047a783          	lw	a5,4(a5)
80001c1c:	fef42623          	sw	a5,-20(s0)
/casa/workspace/Chronos-RISCV6/FreeRTOS/Debug/../FreeRTOS/list.c:129
	listTEST_LIST_ITEM_INTEGRITY( pxNewListItem );

	/* Insert a new list item into pxList, but rather than sort the list,
	makes the new list item the last item to be removed by a call to
	listGET_OWNER_OF_NEXT_ENTRY(). */
	pxNewListItem->pxNext = pxIndex;
80001c20:	fd842783          	lw	a5,-40(s0)
80001c24:	fec42703          	lw	a4,-20(s0)
80001c28:	00e7a223          	sw	a4,4(a5)
/casa/workspace/Chronos-RISCV6/FreeRTOS/Debug/../FreeRTOS/list.c:130
	pxNewListItem->pxPrevious = pxIndex->pxPrevious;
80001c2c:	fec42783          	lw	a5,-20(s0)
80001c30:	0087a703          	lw	a4,8(a5)
80001c34:	fd842783          	lw	a5,-40(s0)
80001c38:	00e7a423          	sw	a4,8(a5)
/casa/workspace/Chronos-RISCV6/FreeRTOS/Debug/../FreeRTOS/list.c:135

	/* Only used during decision coverage testing. */
	mtCOVERAGE_TEST_DELAY();

	pxIndex->pxPrevious->pxNext = pxNewListItem;
80001c3c:	fec42783          	lw	a5,-20(s0)
80001c40:	0087a783          	lw	a5,8(a5)
80001c44:	fd842703          	lw	a4,-40(s0)
80001c48:	00e7a223          	sw	a4,4(a5)
/casa/workspace/Chronos-RISCV6/FreeRTOS/Debug/../FreeRTOS/list.c:136
	pxIndex->pxPrevious = pxNewListItem;
80001c4c:	fec42783          	lw	a5,-20(s0)
80001c50:	fd842703          	lw	a4,-40(s0)
80001c54:	00e7a423          	sw	a4,8(a5)
/casa/workspace/Chronos-RISCV6/FreeRTOS/Debug/../FreeRTOS/list.c:139

	/* Remember which list the item is in. */
	pxNewListItem->pvContainer = ( void * ) pxList;
80001c58:	fd842783          	lw	a5,-40(s0)
80001c5c:	fdc42703          	lw	a4,-36(s0)
80001c60:	00e7a823          	sw	a4,16(a5)
/casa/workspace/Chronos-RISCV6/FreeRTOS/Debug/../FreeRTOS/list.c:141

	( pxList->uxNumberOfItems )++;
80001c64:	fdc42783          	lw	a5,-36(s0)
80001c68:	0007a783          	lw	a5,0(a5)
80001c6c:	00178713          	addi	a4,a5,1
80001c70:	fdc42783          	lw	a5,-36(s0)
80001c74:	00e7a023          	sw	a4,0(a5)
/casa/workspace/Chronos-RISCV6/FreeRTOS/Debug/../FreeRTOS/list.c:142
}
80001c78:	00000013          	nop
80001c7c:	02c12403          	lw	s0,44(sp)
80001c80:	03010113          	addi	sp,sp,48
80001c84:	00008067          	ret

80001c88 <vListInsert>:
vListInsert():
/casa/workspace/Chronos-RISCV6/FreeRTOS/Debug/../FreeRTOS/list.c:146
/*-----------------------------------------------------------*/

void vListInsert( List_t * const pxList, ListItem_t * const pxNewListItem )
{
80001c88:	fd010113          	addi	sp,sp,-48
80001c8c:	02812623          	sw	s0,44(sp)
80001c90:	03010413          	addi	s0,sp,48
80001c94:	fca42e23          	sw	a0,-36(s0)
80001c98:	fcb42c23          	sw	a1,-40(s0)
/casa/workspace/Chronos-RISCV6/FreeRTOS/Debug/../FreeRTOS/list.c:148
ListItem_t *pxIterator;
const TickType_t xValueOfInsertion = pxNewListItem->xItemValue;
80001c9c:	fd842783          	lw	a5,-40(s0)
80001ca0:	0007a783          	lw	a5,0(a5)
80001ca4:	fef42423          	sw	a5,-24(s0)
/casa/workspace/Chronos-RISCV6/FreeRTOS/Debug/../FreeRTOS/list.c:164
	new list item should be placed after it.  This ensures that TCB's which are
	stored in ready lists (all of which have the same xItemValue value) get a
	share of the CPU.  However, if the xItemValue is the same as the back marker
	the iteration loop below will not end.  Therefore the value is checked
	first, and the algorithm slightly modified if necessary. */
	if( xValueOfInsertion == portMAX_DELAY )
80001ca8:	fe842703          	lw	a4,-24(s0)
80001cac:	fff00793          	li	a5,-1
80001cb0:	00f71a63          	bne	a4,a5,80001cc4 <vListInsert+0x3c>
/casa/workspace/Chronos-RISCV6/FreeRTOS/Debug/../FreeRTOS/list.c:166
	{
		pxIterator = pxList->xListEnd.pxPrevious;
80001cb4:	fdc42783          	lw	a5,-36(s0)
80001cb8:	0107a783          	lw	a5,16(a5)
80001cbc:	fef42623          	sw	a5,-20(s0)
80001cc0:	0340006f          	j	80001cf4 <vListInsert+0x6c>
/casa/workspace/Chronos-RISCV6/FreeRTOS/Debug/../FreeRTOS/list.c:192
			4) Using a queue or semaphore before it has been initialised or
			   before the scheduler has been started (are interrupts firing
			   before vTaskStartScheduler() has been called?).
		**********************************************************************/

		for( pxIterator = ( ListItem_t * ) &( pxList->xListEnd ); pxIterator->pxNext->xItemValue <= xValueOfInsertion; pxIterator = pxIterator->pxNext ) /*lint !e826 !e740 The mini list structure is used as the list end to save RAM.  This is checked and valid. */
80001cc4:	fdc42783          	lw	a5,-36(s0)
80001cc8:	00878793          	addi	a5,a5,8
80001ccc:	fef42623          	sw	a5,-20(s0)
80001cd0:	0100006f          	j	80001ce0 <vListInsert+0x58>
/casa/workspace/Chronos-RISCV6/FreeRTOS/Debug/../FreeRTOS/list.c:192 (discriminator 3)
80001cd4:	fec42783          	lw	a5,-20(s0)
80001cd8:	0047a783          	lw	a5,4(a5)
80001cdc:	fef42623          	sw	a5,-20(s0)
/casa/workspace/Chronos-RISCV6/FreeRTOS/Debug/../FreeRTOS/list.c:192 (discriminator 1)
80001ce0:	fec42783          	lw	a5,-20(s0)
80001ce4:	0047a783          	lw	a5,4(a5)
80001ce8:	0007a783          	lw	a5,0(a5)
80001cec:	fe842703          	lw	a4,-24(s0)
80001cf0:	fef772e3          	bleu	a5,a4,80001cd4 <vListInsert+0x4c>
/casa/workspace/Chronos-RISCV6/FreeRTOS/Debug/../FreeRTOS/list.c:199
			/* There is nothing to do here, just iterating to the wanted
			insertion position. */
		}
	}

	pxNewListItem->pxNext = pxIterator->pxNext;
80001cf4:	fec42783          	lw	a5,-20(s0)
80001cf8:	0047a703          	lw	a4,4(a5)
80001cfc:	fd842783          	lw	a5,-40(s0)
80001d00:	00e7a223          	sw	a4,4(a5)
/casa/workspace/Chronos-RISCV6/FreeRTOS/Debug/../FreeRTOS/list.c:200
	pxNewListItem->pxNext->pxPrevious = pxNewListItem;
80001d04:	fd842783          	lw	a5,-40(s0)
80001d08:	0047a783          	lw	a5,4(a5)
80001d0c:	fd842703          	lw	a4,-40(s0)
80001d10:	00e7a423          	sw	a4,8(a5)
/casa/workspace/Chronos-RISCV6/FreeRTOS/Debug/../FreeRTOS/list.c:201
	pxNewListItem->pxPrevious = pxIterator;
80001d14:	fd842783          	lw	a5,-40(s0)
80001d18:	fec42703          	lw	a4,-20(s0)
80001d1c:	00e7a423          	sw	a4,8(a5)
/casa/workspace/Chronos-RISCV6/FreeRTOS/Debug/../FreeRTOS/list.c:202
	pxIterator->pxNext = pxNewListItem;
80001d20:	fec42783          	lw	a5,-20(s0)
80001d24:	fd842703          	lw	a4,-40(s0)
80001d28:	00e7a223          	sw	a4,4(a5)
/casa/workspace/Chronos-RISCV6/FreeRTOS/Debug/../FreeRTOS/list.c:206

	/* Remember which list the item is in.  This allows fast removal of the
	item later. */
	pxNewListItem->pvContainer = ( void * ) pxList;
80001d2c:	fd842783          	lw	a5,-40(s0)
80001d30:	fdc42703          	lw	a4,-36(s0)
80001d34:	00e7a823          	sw	a4,16(a5)
/casa/workspace/Chronos-RISCV6/FreeRTOS/Debug/../FreeRTOS/list.c:208

	( pxList->uxNumberOfItems )++;
80001d38:	fdc42783          	lw	a5,-36(s0)
80001d3c:	0007a783          	lw	a5,0(a5)
80001d40:	00178713          	addi	a4,a5,1
80001d44:	fdc42783          	lw	a5,-36(s0)
80001d48:	00e7a023          	sw	a4,0(a5)
/casa/workspace/Chronos-RISCV6/FreeRTOS/Debug/../FreeRTOS/list.c:209
}
80001d4c:	00000013          	nop
80001d50:	02c12403          	lw	s0,44(sp)
80001d54:	03010113          	addi	sp,sp,48
80001d58:	00008067          	ret

80001d5c <uxListRemove>:
uxListRemove():
/casa/workspace/Chronos-RISCV6/FreeRTOS/Debug/../FreeRTOS/list.c:213
/*-----------------------------------------------------------*/

UBaseType_t uxListRemove( ListItem_t * const pxItemToRemove )
{
80001d5c:	fd010113          	addi	sp,sp,-48
80001d60:	02812623          	sw	s0,44(sp)
80001d64:	03010413          	addi	s0,sp,48
80001d68:	fca42e23          	sw	a0,-36(s0)
/casa/workspace/Chronos-RISCV6/FreeRTOS/Debug/../FreeRTOS/list.c:216
/* The list item knows which list it is in.  Obtain the list from the list
item. */
List_t * const pxList = ( List_t * ) pxItemToRemove->pvContainer;
80001d6c:	fdc42783          	lw	a5,-36(s0)
80001d70:	0107a783          	lw	a5,16(a5)
80001d74:	fef42623          	sw	a5,-20(s0)
/casa/workspace/Chronos-RISCV6/FreeRTOS/Debug/../FreeRTOS/list.c:218

	pxItemToRemove->pxNext->pxPrevious = pxItemToRemove->pxPrevious;
80001d78:	fdc42783          	lw	a5,-36(s0)
80001d7c:	0047a783          	lw	a5,4(a5)
80001d80:	fdc42703          	lw	a4,-36(s0)
80001d84:	00872703          	lw	a4,8(a4) # 44000008 <RAM_SIZE+0x43f80008>
80001d88:	00e7a423          	sw	a4,8(a5)
/casa/workspace/Chronos-RISCV6/FreeRTOS/Debug/../FreeRTOS/list.c:219
	pxItemToRemove->pxPrevious->pxNext = pxItemToRemove->pxNext;
80001d8c:	fdc42783          	lw	a5,-36(s0)
80001d90:	0087a783          	lw	a5,8(a5)
80001d94:	fdc42703          	lw	a4,-36(s0)
80001d98:	00472703          	lw	a4,4(a4)
80001d9c:	00e7a223          	sw	a4,4(a5)
/casa/workspace/Chronos-RISCV6/FreeRTOS/Debug/../FreeRTOS/list.c:225

	/* Only used during decision coverage testing. */
	mtCOVERAGE_TEST_DELAY();

	/* Make sure the index is left pointing to a valid item. */
	if( pxList->pxIndex == pxItemToRemove )
80001da0:	fec42783          	lw	a5,-20(s0)
80001da4:	0047a783          	lw	a5,4(a5)
80001da8:	fdc42703          	lw	a4,-36(s0)
80001dac:	00f71a63          	bne	a4,a5,80001dc0 <uxListRemove+0x64>
/casa/workspace/Chronos-RISCV6/FreeRTOS/Debug/../FreeRTOS/list.c:227
	{
		pxList->pxIndex = pxItemToRemove->pxPrevious;
80001db0:	fdc42783          	lw	a5,-36(s0)
80001db4:	0087a703          	lw	a4,8(a5)
80001db8:	fec42783          	lw	a5,-20(s0)
80001dbc:	00e7a223          	sw	a4,4(a5)
/casa/workspace/Chronos-RISCV6/FreeRTOS/Debug/../FreeRTOS/list.c:234
	else
	{
		mtCOVERAGE_TEST_MARKER();
	}

	pxItemToRemove->pvContainer = NULL;
80001dc0:	fdc42783          	lw	a5,-36(s0)
80001dc4:	0007a823          	sw	zero,16(a5)
/casa/workspace/Chronos-RISCV6/FreeRTOS/Debug/../FreeRTOS/list.c:235
	( pxList->uxNumberOfItems )--;
80001dc8:	fec42783          	lw	a5,-20(s0)
80001dcc:	0007a783          	lw	a5,0(a5)
80001dd0:	fff78713          	addi	a4,a5,-1
80001dd4:	fec42783          	lw	a5,-20(s0)
80001dd8:	00e7a023          	sw	a4,0(a5)
/casa/workspace/Chronos-RISCV6/FreeRTOS/Debug/../FreeRTOS/list.c:237

	return pxList->uxNumberOfItems;
80001ddc:	fec42783          	lw	a5,-20(s0)
80001de0:	0007a783          	lw	a5,0(a5)
/casa/workspace/Chronos-RISCV6/FreeRTOS/Debug/../FreeRTOS/list.c:238
}
80001de4:	00078513          	mv	a0,a5
80001de8:	02c12403          	lw	s0,44(sp)
80001dec:	03010113          	addi	sp,sp,48
80001df0:	00008067          	ret

80001df4 <memset>:
memset():
/casa/workspace/Chronos-RISCV6/FreeRTOS/Debug/../FreeRTOS/string.c:25

  return dest;
}

void* memset(void* dest, int byte, size_t len)
{
80001df4:	fd010113          	addi	sp,sp,-48
80001df8:	02812623          	sw	s0,44(sp)
80001dfc:	03010413          	addi	s0,sp,48
80001e00:	fca42e23          	sw	a0,-36(s0)
80001e04:	fcb42c23          	sw	a1,-40(s0)
80001e08:	fcc42a23          	sw	a2,-44(s0)
/casa/workspace/Chronos-RISCV6/FreeRTOS/Debug/../FreeRTOS/string.c:26
  if ((((uintptr_t)dest | len) & (sizeof(uintptr_t)-1)) == 0) {
80001e0c:	fdc42703          	lw	a4,-36(s0)
80001e10:	fd442783          	lw	a5,-44(s0)
80001e14:	00f767b3          	or	a5,a4,a5
80001e18:	0037f793          	andi	a5,a5,3
80001e1c:	06079863          	bnez	a5,80001e8c <memset+0x98>
/casa/workspace/Chronos-RISCV6/FreeRTOS/Debug/../FreeRTOS/string.c:27
    uintptr_t word = byte & 0xFF;
80001e20:	fd842783          	lw	a5,-40(s0)
80001e24:	0ff7f793          	andi	a5,a5,255
80001e28:	fef42223          	sw	a5,-28(s0)
/casa/workspace/Chronos-RISCV6/FreeRTOS/Debug/../FreeRTOS/string.c:28
    word |= word << 8;
80001e2c:	fe442783          	lw	a5,-28(s0)
80001e30:	00879793          	slli	a5,a5,0x8
80001e34:	fe442703          	lw	a4,-28(s0)
80001e38:	00f767b3          	or	a5,a4,a5
80001e3c:	fef42223          	sw	a5,-28(s0)
/casa/workspace/Chronos-RISCV6/FreeRTOS/Debug/../FreeRTOS/string.c:29
    word |= word << 16;
80001e40:	fe442783          	lw	a5,-28(s0)
80001e44:	01079793          	slli	a5,a5,0x10
80001e48:	fe442703          	lw	a4,-28(s0)
80001e4c:	00f767b3          	or	a5,a4,a5
80001e50:	fef42223          	sw	a5,-28(s0)
/casa/workspace/Chronos-RISCV6/FreeRTOS/Debug/../FreeRTOS/string.c:32
    word |= word << 16 << 16;

    uintptr_t *d = dest;
80001e54:	fdc42783          	lw	a5,-36(s0)
80001e58:	fef42623          	sw	a5,-20(s0)
/casa/workspace/Chronos-RISCV6/FreeRTOS/Debug/../FreeRTOS/string.c:33
    while (d < (uintptr_t*)(dest + len))
80001e5c:	0180006f          	j	80001e74 <memset+0x80>
/casa/workspace/Chronos-RISCV6/FreeRTOS/Debug/../FreeRTOS/string.c:34
      *d++ = word;
80001e60:	fec42783          	lw	a5,-20(s0)
80001e64:	00478713          	addi	a4,a5,4
80001e68:	fee42623          	sw	a4,-20(s0)
80001e6c:	fe442703          	lw	a4,-28(s0)
80001e70:	00e7a023          	sw	a4,0(a5)
/casa/workspace/Chronos-RISCV6/FreeRTOS/Debug/../FreeRTOS/string.c:33
    while (d < (uintptr_t*)(dest + len))
80001e74:	fdc42703          	lw	a4,-36(s0)
80001e78:	fd442783          	lw	a5,-44(s0)
80001e7c:	00f707b3          	add	a5,a4,a5
80001e80:	fec42703          	lw	a4,-20(s0)
80001e84:	fcf76ee3          	bltu	a4,a5,80001e60 <memset+0x6c>
80001e88:	0400006f          	j	80001ec8 <memset+0xd4>
/casa/workspace/Chronos-RISCV6/FreeRTOS/Debug/../FreeRTOS/string.c:36
  } else {
    char *d = dest;
80001e8c:	fdc42783          	lw	a5,-36(s0)
80001e90:	fef42423          	sw	a5,-24(s0)
/casa/workspace/Chronos-RISCV6/FreeRTOS/Debug/../FreeRTOS/string.c:37
    while (d < (char*)(dest + len))
80001e94:	0200006f          	j	80001eb4 <memset+0xc0>
/casa/workspace/Chronos-RISCV6/FreeRTOS/Debug/../FreeRTOS/string.c:38
      *d++ = byte;
80001e98:	fe842783          	lw	a5,-24(s0)
80001e9c:	00178713          	addi	a4,a5,1
80001ea0:	fee42423          	sw	a4,-24(s0)
80001ea4:	fd842703          	lw	a4,-40(s0)
80001ea8:	01871713          	slli	a4,a4,0x18
80001eac:	41875713          	srai	a4,a4,0x18
80001eb0:	00e78023          	sb	a4,0(a5)
/casa/workspace/Chronos-RISCV6/FreeRTOS/Debug/../FreeRTOS/string.c:37
    while (d < (char*)(dest + len))
80001eb4:	fdc42703          	lw	a4,-36(s0)
80001eb8:	fd442783          	lw	a5,-44(s0)
80001ebc:	00f707b3          	add	a5,a4,a5
80001ec0:	fe842703          	lw	a4,-24(s0)
80001ec4:	fcf76ae3          	bltu	a4,a5,80001e98 <memset+0xa4>
/casa/workspace/Chronos-RISCV6/FreeRTOS/Debug/../FreeRTOS/string.c:40
  }
  return dest;
80001ec8:	fdc42783          	lw	a5,-36(s0)
/casa/workspace/Chronos-RISCV6/FreeRTOS/Debug/../FreeRTOS/string.c:41
}
80001ecc:	00078513          	mv	a0,a5
80001ed0:	02c12403          	lw	s0,44(sp)
80001ed4:	03010113          	addi	sp,sp,48
80001ed8:	00008067          	ret

80001edc <strlen>:
strlen():
/casa/workspace/Chronos-RISCV6/FreeRTOS/Debug/../FreeRTOS/string.c:44

size_t strlen(const char *s)
{
80001edc:	fd010113          	addi	sp,sp,-48
80001ee0:	02812623          	sw	s0,44(sp)
80001ee4:	03010413          	addi	s0,sp,48
80001ee8:	fca42e23          	sw	a0,-36(s0)
/casa/workspace/Chronos-RISCV6/FreeRTOS/Debug/../FreeRTOS/string.c:45
  const char *p = s;
80001eec:	fdc42783          	lw	a5,-36(s0)
80001ef0:	fef42623          	sw	a5,-20(s0)
/casa/workspace/Chronos-RISCV6/FreeRTOS/Debug/../FreeRTOS/string.c:46
  while (*p)
80001ef4:	0100006f          	j	80001f04 <strlen+0x28>
/casa/workspace/Chronos-RISCV6/FreeRTOS/Debug/../FreeRTOS/string.c:47
    p++;
80001ef8:	fec42783          	lw	a5,-20(s0)
80001efc:	00178793          	addi	a5,a5,1
80001f00:	fef42623          	sw	a5,-20(s0)
/casa/workspace/Chronos-RISCV6/FreeRTOS/Debug/../FreeRTOS/string.c:46
  while (*p)
80001f04:	fec42783          	lw	a5,-20(s0)
80001f08:	00078783          	lb	a5,0(a5)
80001f0c:	fe0796e3          	bnez	a5,80001ef8 <strlen+0x1c>
/casa/workspace/Chronos-RISCV6/FreeRTOS/Debug/../FreeRTOS/string.c:48
  return p - s;
80001f10:	fec42703          	lw	a4,-20(s0)
80001f14:	fdc42783          	lw	a5,-36(s0)
80001f18:	40f707b3          	sub	a5,a4,a5
/casa/workspace/Chronos-RISCV6/FreeRTOS/Debug/../FreeRTOS/string.c:49
}
80001f1c:	00078513          	mv	a0,a5
80001f20:	02c12403          	lw	s0,44(sp)
80001f24:	03010113          	addi	sp,sp,48
80001f28:	00008067          	ret

80001f2c <xTaskGenericCreate>:
xTaskGenericCreate():
/casa/workspace/Chronos-RISCV6/FreeRTOS/Debug/../FreeRTOS/tasks.c:551

#endif
/*-----------------------------------------------------------*/

BaseType_t xTaskGenericCreate( TaskFunction_t pxTaskCode, const char * const pcName, const uint16_t usStackDepth, void * const pvParameters, UBaseType_t uxPriority, TaskHandle_t * const pxCreatedTask, StackType_t * const puxStackBuffer, const MemoryRegion_t * const xRegions ) /*lint !e971 Unqualified char types are allowed for strings and single characters only. */
{
80001f2c:	fc010113          	addi	sp,sp,-64
80001f30:	02112e23          	sw	ra,60(sp)
80001f34:	02812c23          	sw	s0,56(sp)
80001f38:	04010413          	addi	s0,sp,64
80001f3c:	fca42e23          	sw	a0,-36(s0)
80001f40:	fcb42c23          	sw	a1,-40(s0)
80001f44:	fcd42823          	sw	a3,-48(s0)
80001f48:	fce42623          	sw	a4,-52(s0)
80001f4c:	fcf42423          	sw	a5,-56(s0)
80001f50:	fd042223          	sw	a6,-60(s0)
80001f54:	fd142023          	sw	a7,-64(s0)
80001f58:	00060793          	mv	a5,a2
80001f5c:	fcf41b23          	sh	a5,-42(s0)
/casa/workspace/Chronos-RISCV6/FreeRTOS/Debug/../FreeRTOS/tasks.c:556
BaseType_t xReturn;
TCB_t * pxNewTCB;
StackType_t *pxTopOfStack;

	configASSERT( pxTaskCode );
80001f60:	fdc42783          	lw	a5,-36(s0)
80001f64:	00079663          	bnez	a5,80001f70 <xTaskGenericCreate+0x44>
/casa/workspace/Chronos-RISCV6/FreeRTOS/Debug/../FreeRTOS/tasks.c:556 (discriminator 1)
80001f68:	30047073          	csrci	mstatus,8
80001f6c:	0000006f          	j	80001f6c <xTaskGenericCreate+0x40>
/casa/workspace/Chronos-RISCV6/FreeRTOS/Debug/../FreeRTOS/tasks.c:557
	configASSERT( ( ( uxPriority & ( UBaseType_t ) ( ~portPRIVILEGE_BIT ) ) < ( UBaseType_t ) configMAX_PRIORITIES ) );
80001f70:	fcc42703          	lw	a4,-52(s0)
80001f74:	00400793          	li	a5,4
80001f78:	00e7f663          	bleu	a4,a5,80001f84 <xTaskGenericCreate+0x58>
/casa/workspace/Chronos-RISCV6/FreeRTOS/Debug/../FreeRTOS/tasks.c:557 (discriminator 1)
80001f7c:	30047073          	csrci	mstatus,8
/casa/workspace/Chronos-RISCV6/FreeRTOS/Debug/../FreeRTOS/tasks.c:557 (discriminator 2)
80001f80:	0000006f          	j	80001f80 <xTaskGenericCreate+0x54>
/casa/workspace/Chronos-RISCV6/FreeRTOS/Debug/../FreeRTOS/tasks.c:561

	/* Allocate the memory required by the TCB and stack for the new task,
	checking that the allocation was successful. */
	pxNewTCB = prvAllocateTCBAndStack( usStackDepth, puxStackBuffer );
80001f84:	fd645783          	lhu	a5,-42(s0)
80001f88:	fc442583          	lw	a1,-60(s0)
80001f8c:	00078513          	mv	a0,a5
80001f90:	721000ef          	jal	ra,80002eb0 <prvAllocateTCBAndStack>
80001f94:	fea42423          	sw	a0,-24(s0)
/casa/workspace/Chronos-RISCV6/FreeRTOS/Debug/../FreeRTOS/tasks.c:562
	if( pxNewTCB != NULL )
80001f98:	fe842783          	lw	a5,-24(s0)
80001f9c:	16078263          	beqz	a5,80002100 <xTaskGenericCreate+0x1d4>
/casa/workspace/Chronos-RISCV6/FreeRTOS/Debug/../FreeRTOS/tasks.c:598
		stack grows from high memory to low (as per the 80x86) or vice versa.
		portSTACK_GROWTH is used to make the result positive or negative as
		required by the port. */
		#if( portSTACK_GROWTH < 0 )
		{
			pxTopOfStack = pxNewTCB->pxStack + ( usStackDepth - ( uint16_t ) 1 );
80001fa0:	fe842783          	lw	a5,-24(s0)
80001fa4:	0307a703          	lw	a4,48(a5)
80001fa8:	fd645683          	lhu	a3,-42(s0)
80001fac:	400007b7          	lui	a5,0x40000
80001fb0:	fff78793          	addi	a5,a5,-1 # 3fffffff <RAM_SIZE+0x3ff7ffff>
80001fb4:	00f687b3          	add	a5,a3,a5
80001fb8:	00279793          	slli	a5,a5,0x2
80001fbc:	00f707b3          	add	a5,a4,a5
80001fc0:	fef42223          	sw	a5,-28(s0)
/casa/workspace/Chronos-RISCV6/FreeRTOS/Debug/../FreeRTOS/tasks.c:599
			pxTopOfStack = ( StackType_t * ) ( ( ( portPOINTER_SIZE_TYPE ) pxTopOfStack ) & ( ~( ( portPOINTER_SIZE_TYPE ) portBYTE_ALIGNMENT_MASK ) ) ); /*lint !e923 MISRA exception.  Avoiding casts between pointers and integers is not practical.  Size differences accounted for using portPOINTER_SIZE_TYPE type. */
80001fc4:	fe442783          	lw	a5,-28(s0)
80001fc8:	ffc7f793          	andi	a5,a5,-4
80001fcc:	fef42223          	sw	a5,-28(s0)
/casa/workspace/Chronos-RISCV6/FreeRTOS/Debug/../FreeRTOS/tasks.c:602

			/* Check the alignment of the calculated top of stack is correct. */
			configASSERT( ( ( ( portPOINTER_SIZE_TYPE ) pxTopOfStack & ( portPOINTER_SIZE_TYPE ) portBYTE_ALIGNMENT_MASK ) == 0UL ) );
80001fd0:	fe442783          	lw	a5,-28(s0)
80001fd4:	0037f793          	andi	a5,a5,3
80001fd8:	00078663          	beqz	a5,80001fe4 <xTaskGenericCreate+0xb8>
/casa/workspace/Chronos-RISCV6/FreeRTOS/Debug/../FreeRTOS/tasks.c:602 (discriminator 1)
80001fdc:	30047073          	csrci	mstatus,8
/casa/workspace/Chronos-RISCV6/FreeRTOS/Debug/../FreeRTOS/tasks.c:602 (discriminator 3)
80001fe0:	0000006f          	j	80001fe0 <xTaskGenericCreate+0xb4>
/casa/workspace/Chronos-RISCV6/FreeRTOS/Debug/../FreeRTOS/tasks.c:619
			pxNewTCB->pxEndOfStack = pxNewTCB->pxStack + ( usStackDepth - 1 );
		}
		#endif /* portSTACK_GROWTH */

		/* Setup the newly allocated TCB with the initial state of the task. */
		prvInitialiseTCBVariables( pxNewTCB, pcName, uxPriority, xRegions, usStackDepth );
80001fe4:	fd645783          	lhu	a5,-42(s0)
80001fe8:	00078713          	mv	a4,a5
80001fec:	fc042683          	lw	a3,-64(s0)
80001ff0:	fcc42603          	lw	a2,-52(s0)
80001ff4:	fd842583          	lw	a1,-40(s0)
80001ff8:	fe842503          	lw	a0,-24(s0)
80001ffc:	395000ef          	jal	ra,80002b90 <prvInitialiseTCBVariables>
/casa/workspace/Chronos-RISCV6/FreeRTOS/Debug/../FreeRTOS/tasks.c:631
		{
			pxNewTCB->pxTopOfStack = pxPortInitialiseStack( pxTopOfStack, pxTaskCode, pvParameters, xRunPrivileged );
		}
		#else /* portUSING_MPU_WRAPPERS */
		{
			pxNewTCB->pxTopOfStack = pxPortInitialiseStack( pxTopOfStack, pxTaskCode, pvParameters );
80002000:	fd042603          	lw	a2,-48(s0)
80002004:	fdc42583          	lw	a1,-36(s0)
80002008:	fe442503          	lw	a0,-28(s0)
8000200c:	891ff0ef          	jal	ra,8000189c <pxPortInitialiseStack>
80002010:	00050713          	mv	a4,a0
80002014:	fe842783          	lw	a5,-24(s0)
80002018:	00e7a023          	sw	a4,0(a5)
/casa/workspace/Chronos-RISCV6/FreeRTOS/Debug/../FreeRTOS/tasks.c:635
		}
		#endif /* portUSING_MPU_WRAPPERS */

		if( ( void * ) pxCreatedTask != NULL )
8000201c:	fc842783          	lw	a5,-56(s0)
80002020:	00078863          	beqz	a5,80002030 <xTaskGenericCreate+0x104>
/casa/workspace/Chronos-RISCV6/FreeRTOS/Debug/../FreeRTOS/tasks.c:640
		{
			/* Pass the TCB out - in an anonymous way.  The calling function/
			task can use this as a handle to delete the task later if
			required.*/
			*pxCreatedTask = ( TaskHandle_t ) pxNewTCB;
80002024:	fc842783          	lw	a5,-56(s0)
80002028:	fe842703          	lw	a4,-24(s0)
8000202c:	00e7a023          	sw	a4,0(a5)
/casa/workspace/Chronos-RISCV6/FreeRTOS/Debug/../FreeRTOS/tasks.c:649
			mtCOVERAGE_TEST_MARKER();
		}

		/* Ensure interrupts don't access the task lists while they are being
		updated. */
		taskENTER_CRITICAL();
80002030:	de0ff0ef          	jal	ra,80001610 <vPortEnterCritical>
/casa/workspace/Chronos-RISCV6/FreeRTOS/Debug/../FreeRTOS/tasks.c:651
		{
			uxCurrentNumberOfTasks++;
80002034:	93c1a783          	lw	a5,-1732(gp) # 8000966c <uxCurrentNumberOfTasks>
80002038:	00178713          	addi	a4,a5,1
8000203c:	92e1ae23          	sw	a4,-1732(gp) # 8000966c <uxCurrentNumberOfTasks>
/casa/workspace/Chronos-RISCV6/FreeRTOS/Debug/../FreeRTOS/tasks.c:652
			if( pxCurrentTCB == NULL )
80002040:	92c1a783          	lw	a5,-1748(gp) # 8000965c <pxCurrentTCB>
80002044:	02079063          	bnez	a5,80002064 <xTaskGenericCreate+0x138>
/casa/workspace/Chronos-RISCV6/FreeRTOS/Debug/../FreeRTOS/tasks.c:656
			{
				/* There are no other tasks, or all the other tasks are in
				the suspended state - make this the current task. */
				pxCurrentTCB =  pxNewTCB;
80002048:	fe842703          	lw	a4,-24(s0)
8000204c:	92e1a623          	sw	a4,-1748(gp) # 8000965c <pxCurrentTCB>
/casa/workspace/Chronos-RISCV6/FreeRTOS/Debug/../FreeRTOS/tasks.c:658

				if( uxCurrentNumberOfTasks == ( UBaseType_t ) 1 )
80002050:	93c1a703          	lw	a4,-1732(gp) # 8000966c <uxCurrentNumberOfTasks>
80002054:	00100793          	li	a5,1
80002058:	02f71663          	bne	a4,a5,80002084 <xTaskGenericCreate+0x158>
/casa/workspace/Chronos-RISCV6/FreeRTOS/Debug/../FreeRTOS/tasks.c:663
				{
					/* This is the first task to be created so do the preliminary
					initialisation required.  We will not recover if this call
					fails, but we will report the failure. */
					prvInitialiseTaskLists();
8000205c:	46d000ef          	jal	ra,80002cc8 <prvInitialiseTaskLists>
80002060:	0240006f          	j	80002084 <xTaskGenericCreate+0x158>
/casa/workspace/Chronos-RISCV6/FreeRTOS/Debug/../FreeRTOS/tasks.c:675
			else
			{
				/* If the scheduler is not already running, make this task the
				current task if it is the highest priority task to be created
				so far. */
				if( xSchedulerRunning == pdFALSE )
80002064:	9481a783          	lw	a5,-1720(gp) # 80009678 <xSchedulerRunning>
80002068:	00079e63          	bnez	a5,80002084 <xTaskGenericCreate+0x158>
/casa/workspace/Chronos-RISCV6/FreeRTOS/Debug/../FreeRTOS/tasks.c:677
				{
					if( pxCurrentTCB->uxPriority <= uxPriority )
8000206c:	92c1a783          	lw	a5,-1748(gp) # 8000965c <pxCurrentTCB>
80002070:	02c7a783          	lw	a5,44(a5)
80002074:	fcc42703          	lw	a4,-52(s0)
80002078:	00f76663          	bltu	a4,a5,80002084 <xTaskGenericCreate+0x158>
/casa/workspace/Chronos-RISCV6/FreeRTOS/Debug/../FreeRTOS/tasks.c:679
					{
						pxCurrentTCB = pxNewTCB;
8000207c:	fe842703          	lw	a4,-24(s0)
80002080:	92e1a623          	sw	a4,-1748(gp) # 8000965c <pxCurrentTCB>
/casa/workspace/Chronos-RISCV6/FreeRTOS/Debug/../FreeRTOS/tasks.c:692
				{
					mtCOVERAGE_TEST_MARKER();
				}
			}

			uxTaskNumber++;
80002084:	9581a783          	lw	a5,-1704(gp) # 80009688 <uxTaskNumber>
80002088:	00178713          	addi	a4,a5,1
8000208c:	94e1ac23          	sw	a4,-1704(gp) # 80009688 <uxTaskNumber>
/casa/workspace/Chronos-RISCV6/FreeRTOS/Debug/../FreeRTOS/tasks.c:697

			#if ( configUSE_TRACE_FACILITY == 1 )
			{
				/* Add a counter into the TCB for tracing only. */
				pxNewTCB->uxTCBNumber = uxTaskNumber;
80002090:	9581a703          	lw	a4,-1704(gp) # 80009688 <uxTaskNumber>
80002094:	fe842783          	lw	a5,-24(s0)
80002098:	04e7a423          	sw	a4,72(a5)
/casa/workspace/Chronos-RISCV6/FreeRTOS/Debug/../FreeRTOS/tasks.c:702
			}
			#endif /* configUSE_TRACE_FACILITY */
			traceTASK_CREATE( pxNewTCB );

			prvAddTaskToReadyList( pxNewTCB );
8000209c:	fe842783          	lw	a5,-24(s0)
800020a0:	02c7a703          	lw	a4,44(a5)
800020a4:	9441a783          	lw	a5,-1724(gp) # 80009674 <uxTopReadyPriority>
800020a8:	00e7f863          	bleu	a4,a5,800020b8 <xTaskGenericCreate+0x18c>
/casa/workspace/Chronos-RISCV6/FreeRTOS/Debug/../FreeRTOS/tasks.c:702 (discriminator 1)
800020ac:	fe842783          	lw	a5,-24(s0)
800020b0:	02c7a703          	lw	a4,44(a5)
800020b4:	94e1a223          	sw	a4,-1724(gp) # 80009674 <uxTopReadyPriority>
/casa/workspace/Chronos-RISCV6/FreeRTOS/Debug/../FreeRTOS/tasks.c:702 (discriminator 3)
800020b8:	fe842783          	lw	a5,-24(s0)
800020bc:	02c7a703          	lw	a4,44(a5)
800020c0:	00070793          	mv	a5,a4
800020c4:	00279793          	slli	a5,a5,0x2
800020c8:	00e787b3          	add	a5,a5,a4
800020cc:	00279793          	slli	a5,a5,0x2
800020d0:	80022737          	lui	a4,0x80022
800020d4:	6d070713          	addi	a4,a4,1744 # 800226d0 <__stack_top+0xfffdb740>
800020d8:	00e78733          	add	a4,a5,a4
800020dc:	fe842783          	lw	a5,-24(s0)
800020e0:	00478793          	addi	a5,a5,4
800020e4:	00078593          	mv	a1,a5
800020e8:	00070513          	mv	a0,a4
800020ec:	b15ff0ef          	jal	ra,80001c00 <vListInsertEnd>
/casa/workspace/Chronos-RISCV6/FreeRTOS/Debug/../FreeRTOS/tasks.c:704 (discriminator 3)

			xReturn = pdPASS;
800020f0:	00100793          	li	a5,1
800020f4:	fef42623          	sw	a5,-20(s0)
/casa/workspace/Chronos-RISCV6/FreeRTOS/Debug/../FreeRTOS/tasks.c:707 (discriminator 3)
			portSETUP_TCB( pxNewTCB );
		}
		taskEXIT_CRITICAL();
800020f8:	d4cff0ef          	jal	ra,80001644 <vPortExitCritical>
800020fc:	00c0006f          	j	80002108 <xTaskGenericCreate+0x1dc>
/casa/workspace/Chronos-RISCV6/FreeRTOS/Debug/../FreeRTOS/tasks.c:711
	}
	else
	{
		xReturn = errCOULD_NOT_ALLOCATE_REQUIRED_MEMORY;
80002100:	fff00793          	li	a5,-1
80002104:	fef42623          	sw	a5,-20(s0)
/casa/workspace/Chronos-RISCV6/FreeRTOS/Debug/../FreeRTOS/tasks.c:715
		traceTASK_CREATE_FAILED();
	}

	if( xReturn == pdPASS )
80002108:	fec42703          	lw	a4,-20(s0)
8000210c:	00100793          	li	a5,1
80002110:	02f71063          	bne	a4,a5,80002130 <xTaskGenericCreate+0x204>
/casa/workspace/Chronos-RISCV6/FreeRTOS/Debug/../FreeRTOS/tasks.c:717
	{
		if( xSchedulerRunning != pdFALSE )
80002114:	9481a783          	lw	a5,-1720(gp) # 80009678 <xSchedulerRunning>
80002118:	00078c63          	beqz	a5,80002130 <xTaskGenericCreate+0x204>
/casa/workspace/Chronos-RISCV6/FreeRTOS/Debug/../FreeRTOS/tasks.c:721
		{
			/* If the created task is of a higher priority than the current task
			then it should run now. */
			if( pxCurrentTCB->uxPriority < uxPriority )
8000211c:	92c1a783          	lw	a5,-1748(gp) # 8000965c <pxCurrentTCB>
80002120:	02c7a783          	lw	a5,44(a5)
80002124:	fcc42703          	lw	a4,-52(s0)
80002128:	00e7f463          	bleu	a4,a5,80002130 <xTaskGenericCreate+0x204>
/casa/workspace/Chronos-RISCV6/FreeRTOS/Debug/../FreeRTOS/tasks.c:723
			{
				taskYIELD_IF_USING_PREEMPTION();
8000212c:	a21ff0ef          	jal	ra,80001b4c <vPortYield>
/casa/workspace/Chronos-RISCV6/FreeRTOS/Debug/../FreeRTOS/tasks.c:736
		{
			mtCOVERAGE_TEST_MARKER();
		}
	}

	return xReturn;
80002130:	fec42783          	lw	a5,-20(s0)
/casa/workspace/Chronos-RISCV6/FreeRTOS/Debug/../FreeRTOS/tasks.c:737
}
80002134:	00078513          	mv	a0,a5
80002138:	03c12083          	lw	ra,60(sp)
8000213c:	03812403          	lw	s0,56(sp)
80002140:	04010113          	addi	sp,sp,64
80002144:	00008067          	ret

80002148 <vTaskDelete>:
vTaskDelete():
/casa/workspace/Chronos-RISCV6/FreeRTOS/Debug/../FreeRTOS/tasks.c:743
/*-----------------------------------------------------------*/

#if ( INCLUDE_vTaskDelete == 1 )

	void vTaskDelete( TaskHandle_t xTaskToDelete )
	{
80002148:	fd010113          	addi	sp,sp,-48
8000214c:	02112623          	sw	ra,44(sp)
80002150:	02812423          	sw	s0,40(sp)
80002154:	03010413          	addi	s0,sp,48
80002158:	fca42e23          	sw	a0,-36(s0)
/casa/workspace/Chronos-RISCV6/FreeRTOS/Debug/../FreeRTOS/tasks.c:746
	TCB_t *pxTCB;

		taskENTER_CRITICAL();
8000215c:	cb4ff0ef          	jal	ra,80001610 <vPortEnterCritical>
/casa/workspace/Chronos-RISCV6/FreeRTOS/Debug/../FreeRTOS/tasks.c:750
		{
			/* If null is passed in here then it is the calling task that is
			being deleted. */
			pxTCB = prvGetTCBFromHandle( xTaskToDelete );
80002160:	fdc42783          	lw	a5,-36(s0)
80002164:	00079663          	bnez	a5,80002170 <vTaskDelete+0x28>
/casa/workspace/Chronos-RISCV6/FreeRTOS/Debug/../FreeRTOS/tasks.c:750 (discriminator 1)
80002168:	92c1a783          	lw	a5,-1748(gp) # 8000965c <pxCurrentTCB>
8000216c:	0080006f          	j	80002174 <vTaskDelete+0x2c>
/casa/workspace/Chronos-RISCV6/FreeRTOS/Debug/../FreeRTOS/tasks.c:750 (discriminator 2)
80002170:	fdc42783          	lw	a5,-36(s0)
/casa/workspace/Chronos-RISCV6/FreeRTOS/Debug/../FreeRTOS/tasks.c:750 (discriminator 4)
80002174:	fef42623          	sw	a5,-20(s0)
/casa/workspace/Chronos-RISCV6/FreeRTOS/Debug/../FreeRTOS/tasks.c:756 (discriminator 4)

			/* Remove task from the ready list and place in the	termination list.
			This will stop the task from be scheduled.  The idle task will check
			the termination list and free up any memory allocated by the
			scheduler for the TCB and stack. */
			if( uxListRemove( &( pxTCB->xGenericListItem ) ) == ( UBaseType_t ) 0 )
80002178:	fec42783          	lw	a5,-20(s0)
8000217c:	00478793          	addi	a5,a5,4
80002180:	00078513          	mv	a0,a5
80002184:	bd9ff0ef          	jal	ra,80001d5c <uxListRemove>
/casa/workspace/Chronos-RISCV6/FreeRTOS/Debug/../FreeRTOS/tasks.c:766 (discriminator 4)
			{
				mtCOVERAGE_TEST_MARKER();
			}

			/* Is the task waiting on an event also? */
			if( listLIST_ITEM_CONTAINER( &( pxTCB->xEventListItem ) ) != NULL )
80002188:	fec42783          	lw	a5,-20(s0)
8000218c:	0287a783          	lw	a5,40(a5)
80002190:	00078a63          	beqz	a5,800021a4 <vTaskDelete+0x5c>
/casa/workspace/Chronos-RISCV6/FreeRTOS/Debug/../FreeRTOS/tasks.c:768
			{
				( void ) uxListRemove( &( pxTCB->xEventListItem ) );
80002194:	fec42783          	lw	a5,-20(s0)
80002198:	01878793          	addi	a5,a5,24
8000219c:	00078513          	mv	a0,a5
800021a0:	bbdff0ef          	jal	ra,80001d5c <uxListRemove>
/casa/workspace/Chronos-RISCV6/FreeRTOS/Debug/../FreeRTOS/tasks.c:775
			else
			{
				mtCOVERAGE_TEST_MARKER();
			}

			vListInsertEnd( &xTasksWaitingTermination, &( pxTCB->xGenericListItem ) );
800021a4:	fec42783          	lw	a5,-20(s0)
800021a8:	00478793          	addi	a5,a5,4
800021ac:	00078593          	mv	a1,a5
800021b0:	800227b7          	lui	a5,0x80022
800021b4:	77078513          	addi	a0,a5,1904 # 80022770 <__stack_top+0xfffdb7e0>
800021b8:	a49ff0ef          	jal	ra,80001c00 <vListInsertEnd>
/casa/workspace/Chronos-RISCV6/FreeRTOS/Debug/../FreeRTOS/tasks.c:780

			/* Increment the ucTasksDeleted variable so the idle task knows
			there is a task that has been deleted and that it should therefore
			check the xTasksWaitingTermination list. */
			++uxTasksDeleted;
800021bc:	9381a783          	lw	a5,-1736(gp) # 80009668 <uxTasksDeleted>
800021c0:	00178713          	addi	a4,a5,1
800021c4:	92e1ac23          	sw	a4,-1736(gp) # 80009668 <uxTasksDeleted>
/casa/workspace/Chronos-RISCV6/FreeRTOS/Debug/../FreeRTOS/tasks.c:784

			/* Increment the uxTaskNumberVariable also so kernel aware debuggers
			can detect that the task lists need re-generating. */
			uxTaskNumber++;
800021c8:	9581a783          	lw	a5,-1704(gp) # 80009688 <uxTaskNumber>
800021cc:	00178713          	addi	a4,a5,1
800021d0:	94e1ac23          	sw	a4,-1704(gp) # 80009688 <uxTaskNumber>
/casa/workspace/Chronos-RISCV6/FreeRTOS/Debug/../FreeRTOS/tasks.c:788

			traceTASK_DELETE( pxTCB );
		}
		taskEXIT_CRITICAL();
800021d4:	c70ff0ef          	jal	ra,80001644 <vPortExitCritical>
/casa/workspace/Chronos-RISCV6/FreeRTOS/Debug/../FreeRTOS/tasks.c:792

		/* Force a reschedule if it is the currently running task that has just
		been deleted. */
		if( xSchedulerRunning != pdFALSE )
800021d8:	9481a783          	lw	a5,-1720(gp) # 80009678 <xSchedulerRunning>
800021dc:	02078a63          	beqz	a5,80002210 <vTaskDelete+0xc8>
/casa/workspace/Chronos-RISCV6/FreeRTOS/Debug/../FreeRTOS/tasks.c:794
		{
			if( pxTCB == pxCurrentTCB )
800021e0:	92c1a783          	lw	a5,-1748(gp) # 8000965c <pxCurrentTCB>
800021e4:	fec42703          	lw	a4,-20(s0)
800021e8:	00f71e63          	bne	a4,a5,80002204 <vTaskDelete+0xbc>
/casa/workspace/Chronos-RISCV6/FreeRTOS/Debug/../FreeRTOS/tasks.c:796
			{
				configASSERT( uxSchedulerSuspended == 0 );
800021ec:	9601a783          	lw	a5,-1696(gp) # 80009690 <uxSchedulerSuspended>
800021f0:	00078663          	beqz	a5,800021fc <vTaskDelete+0xb4>
/casa/workspace/Chronos-RISCV6/FreeRTOS/Debug/../FreeRTOS/tasks.c:796 (discriminator 1)
800021f4:	30047073          	csrci	mstatus,8
800021f8:	0000006f          	j	800021f8 <vTaskDelete+0xb0>
/casa/workspace/Chronos-RISCV6/FreeRTOS/Debug/../FreeRTOS/tasks.c:804
				in which Windows specific clean up operations are performed,
				after which it is not possible to yield away from this task -
				hence xYieldPending is used to latch that a context switch is
				required. */
				portPRE_TASK_DELETE_HOOK( pxTCB, &xYieldPending );
				portYIELD_WITHIN_API();
800021fc:	951ff0ef          	jal	ra,80001b4c <vPortYield>
/casa/workspace/Chronos-RISCV6/FreeRTOS/Debug/../FreeRTOS/tasks.c:817
					prvResetNextTaskUnblockTime();
				}
				taskEXIT_CRITICAL();
			}
		}
	}
80002200:	0100006f          	j	80002210 <vTaskDelete+0xc8>
/casa/workspace/Chronos-RISCV6/FreeRTOS/Debug/../FreeRTOS/tasks.c:810
				taskENTER_CRITICAL();
80002204:	c0cff0ef          	jal	ra,80001610 <vPortEnterCritical>
/casa/workspace/Chronos-RISCV6/FreeRTOS/Debug/../FreeRTOS/tasks.c:812
					prvResetNextTaskUnblockTime();
80002208:	5a9000ef          	jal	ra,80002fb0 <prvResetNextTaskUnblockTime>
/casa/workspace/Chronos-RISCV6/FreeRTOS/Debug/../FreeRTOS/tasks.c:814
				taskEXIT_CRITICAL();
8000220c:	c38ff0ef          	jal	ra,80001644 <vPortExitCritical>
/casa/workspace/Chronos-RISCV6/FreeRTOS/Debug/../FreeRTOS/tasks.c:817
	}
80002210:	00000013          	nop
80002214:	02c12083          	lw	ra,44(sp)
80002218:	02812403          	lw	s0,40(sp)
8000221c:	03010113          	addi	sp,sp,48
80002220:	00008067          	ret

80002224 <vTaskDelay>:
vTaskDelay():
/casa/workspace/Chronos-RISCV6/FreeRTOS/Debug/../FreeRTOS/tasks.c:921
/*-----------------------------------------------------------*/

#if ( INCLUDE_vTaskDelay == 1 )

	void vTaskDelay( const TickType_t xTicksToDelay )
	{
80002224:	fd010113          	addi	sp,sp,-48
80002228:	02112623          	sw	ra,44(sp)
8000222c:	02812423          	sw	s0,40(sp)
80002230:	03010413          	addi	s0,sp,48
80002234:	fca42e23          	sw	a0,-36(s0)
/casa/workspace/Chronos-RISCV6/FreeRTOS/Debug/../FreeRTOS/tasks.c:923
	TickType_t xTimeToWake;
	BaseType_t xAlreadyYielded = pdFALSE;
80002238:	fe042623          	sw	zero,-20(s0)
/casa/workspace/Chronos-RISCV6/FreeRTOS/Debug/../FreeRTOS/tasks.c:927


		/* A delay time of zero just forces a reschedule. */
		if( xTicksToDelay > ( TickType_t ) 0U )
8000223c:	fdc42783          	lw	a5,-36(s0)
80002240:	04078463          	beqz	a5,80002288 <vTaskDelay+0x64>
/casa/workspace/Chronos-RISCV6/FreeRTOS/Debug/../FreeRTOS/tasks.c:929
		{
			configASSERT( uxSchedulerSuspended == 0 );
80002244:	9601a783          	lw	a5,-1696(gp) # 80009690 <uxSchedulerSuspended>
80002248:	00078663          	beqz	a5,80002254 <vTaskDelay+0x30>
/casa/workspace/Chronos-RISCV6/FreeRTOS/Debug/../FreeRTOS/tasks.c:929 (discriminator 1)
8000224c:	30047073          	csrci	mstatus,8
80002250:	0000006f          	j	80002250 <vTaskDelay+0x2c>
/casa/workspace/Chronos-RISCV6/FreeRTOS/Debug/../FreeRTOS/tasks.c:930
			vTaskSuspendAll();
80002254:	470000ef          	jal	ra,800026c4 <vTaskSuspendAll>
/casa/workspace/Chronos-RISCV6/FreeRTOS/Debug/../FreeRTOS/tasks.c:944
				This task cannot be in an event list as it is the currently
				executing task. */

				/* Calculate the time to wake - this may overflow but this is
				not a problem. */
				xTimeToWake = xTickCount + xTicksToDelay;
80002258:	9401a783          	lw	a5,-1728(gp) # 80009670 <xTickCount>
8000225c:	fdc42703          	lw	a4,-36(s0)
80002260:	00f707b3          	add	a5,a4,a5
80002264:	fef42423          	sw	a5,-24(s0)
/casa/workspace/Chronos-RISCV6/FreeRTOS/Debug/../FreeRTOS/tasks.c:949

				/* We must remove ourselves from the ready list before adding
				ourselves to the blocked list as the same list item is used for
				both lists. */
				if( uxListRemove( &( pxCurrentTCB->xGenericListItem ) ) == ( UBaseType_t ) 0 )
80002268:	92c1a783          	lw	a5,-1748(gp) # 8000965c <pxCurrentTCB>
8000226c:	00478793          	addi	a5,a5,4
80002270:	00078513          	mv	a0,a5
80002274:	ae9ff0ef          	jal	ra,80001d5c <uxListRemove>
/casa/workspace/Chronos-RISCV6/FreeRTOS/Debug/../FreeRTOS/tasks.c:960
				}
				else
				{
					mtCOVERAGE_TEST_MARKER();
				}
				prvAddCurrentTaskToDelayedList( xTimeToWake );
80002278:	fe842503          	lw	a0,-24(s0)
8000227c:	3ad000ef          	jal	ra,80002e28 <prvAddCurrentTaskToDelayedList>
/casa/workspace/Chronos-RISCV6/FreeRTOS/Debug/../FreeRTOS/tasks.c:962
			}
			xAlreadyYielded = xTaskResumeAll();
80002280:	46c000ef          	jal	ra,800026ec <xTaskResumeAll>
80002284:	fea42623          	sw	a0,-20(s0)
/casa/workspace/Chronos-RISCV6/FreeRTOS/Debug/../FreeRTOS/tasks.c:971
			mtCOVERAGE_TEST_MARKER();
		}

		/* Force a reschedule if xTaskResumeAll has not already done so, we may
		have put ourselves to sleep. */
		if( xAlreadyYielded == pdFALSE )
80002288:	fec42783          	lw	a5,-20(s0)
8000228c:	00079463          	bnez	a5,80002294 <vTaskDelay+0x70>
/casa/workspace/Chronos-RISCV6/FreeRTOS/Debug/../FreeRTOS/tasks.c:973
		{
			portYIELD_WITHIN_API();
80002290:	8bdff0ef          	jal	ra,80001b4c <vPortYield>
/casa/workspace/Chronos-RISCV6/FreeRTOS/Debug/../FreeRTOS/tasks.c:979
		}
		else
		{
			mtCOVERAGE_TEST_MARKER();
		}
	}
80002294:	00000013          	nop
80002298:	02c12083          	lw	ra,44(sp)
8000229c:	02812403          	lw	s0,40(sp)
800022a0:	03010113          	addi	sp,sp,48
800022a4:	00008067          	ret

800022a8 <vTaskSuspend>:
vTaskSuspend():
/casa/workspace/Chronos-RISCV6/FreeRTOS/Debug/../FreeRTOS/tasks.c:1283
/*-----------------------------------------------------------*/

#if ( INCLUDE_vTaskSuspend == 1 )

	void vTaskSuspend( TaskHandle_t xTaskToSuspend )
	{
800022a8:	fd010113          	addi	sp,sp,-48
800022ac:	02112623          	sw	ra,44(sp)
800022b0:	02812423          	sw	s0,40(sp)
800022b4:	03010413          	addi	s0,sp,48
800022b8:	fca42e23          	sw	a0,-36(s0)
/casa/workspace/Chronos-RISCV6/FreeRTOS/Debug/../FreeRTOS/tasks.c:1286
	TCB_t *pxTCB;

		taskENTER_CRITICAL();
800022bc:	b54ff0ef          	jal	ra,80001610 <vPortEnterCritical>
/casa/workspace/Chronos-RISCV6/FreeRTOS/Debug/../FreeRTOS/tasks.c:1290
		{
			/* If null is passed in here then it is the running task that is
			being suspended. */
			pxTCB = prvGetTCBFromHandle( xTaskToSuspend );
800022c0:	fdc42783          	lw	a5,-36(s0)
800022c4:	00079663          	bnez	a5,800022d0 <vTaskSuspend+0x28>
/casa/workspace/Chronos-RISCV6/FreeRTOS/Debug/../FreeRTOS/tasks.c:1290 (discriminator 1)
800022c8:	92c1a783          	lw	a5,-1748(gp) # 8000965c <pxCurrentTCB>
800022cc:	0080006f          	j	800022d4 <vTaskSuspend+0x2c>
/casa/workspace/Chronos-RISCV6/FreeRTOS/Debug/../FreeRTOS/tasks.c:1290 (discriminator 2)
800022d0:	fdc42783          	lw	a5,-36(s0)
/casa/workspace/Chronos-RISCV6/FreeRTOS/Debug/../FreeRTOS/tasks.c:1290 (discriminator 4)
800022d4:	fef42623          	sw	a5,-20(s0)
/casa/workspace/Chronos-RISCV6/FreeRTOS/Debug/../FreeRTOS/tasks.c:1296 (discriminator 4)

			traceTASK_SUSPEND( pxTCB );

			/* Remove task from the ready/delayed list and place in the
			suspended list. */
			if( uxListRemove( &( pxTCB->xGenericListItem ) ) == ( UBaseType_t ) 0 )
800022d8:	fec42783          	lw	a5,-20(s0)
800022dc:	00478793          	addi	a5,a5,4
800022e0:	00078513          	mv	a0,a5
800022e4:	a79ff0ef          	jal	ra,80001d5c <uxListRemove>
/casa/workspace/Chronos-RISCV6/FreeRTOS/Debug/../FreeRTOS/tasks.c:1306 (discriminator 4)
			{
				mtCOVERAGE_TEST_MARKER();
			}

			/* Is the task waiting on an event also? */
			if( listLIST_ITEM_CONTAINER( &( pxTCB->xEventListItem ) ) != NULL )
800022e8:	fec42783          	lw	a5,-20(s0)
800022ec:	0287a783          	lw	a5,40(a5)
800022f0:	00078a63          	beqz	a5,80002304 <vTaskSuspend+0x5c>
/casa/workspace/Chronos-RISCV6/FreeRTOS/Debug/../FreeRTOS/tasks.c:1308
			{
				( void ) uxListRemove( &( pxTCB->xEventListItem ) );
800022f4:	fec42783          	lw	a5,-20(s0)
800022f8:	01878793          	addi	a5,a5,24
800022fc:	00078513          	mv	a0,a5
80002300:	a5dff0ef          	jal	ra,80001d5c <uxListRemove>
/casa/workspace/Chronos-RISCV6/FreeRTOS/Debug/../FreeRTOS/tasks.c:1315
			else
			{
				mtCOVERAGE_TEST_MARKER();
			}

			vListInsertEnd( &xSuspendedTaskList, &( pxTCB->xGenericListItem ) );
80002304:	fec42783          	lw	a5,-20(s0)
80002308:	00478793          	addi	a5,a5,4
8000230c:	00078593          	mv	a1,a5
80002310:	800227b7          	lui	a5,0x80022
80002314:	78478513          	addi	a0,a5,1924 # 80022784 <__stack_top+0xfffdb7f4>
80002318:	8e9ff0ef          	jal	ra,80001c00 <vListInsertEnd>
/casa/workspace/Chronos-RISCV6/FreeRTOS/Debug/../FreeRTOS/tasks.c:1317
		}
		taskEXIT_CRITICAL();
8000231c:	b28ff0ef          	jal	ra,80001644 <vPortExitCritical>
/casa/workspace/Chronos-RISCV6/FreeRTOS/Debug/../FreeRTOS/tasks.c:1319

		if( pxTCB == pxCurrentTCB )
80002320:	92c1a783          	lw	a5,-1748(gp) # 8000965c <pxCurrentTCB>
80002324:	fec42703          	lw	a4,-20(s0)
80002328:	04f71263          	bne	a4,a5,8000236c <vTaskSuspend+0xc4>
/casa/workspace/Chronos-RISCV6/FreeRTOS/Debug/../FreeRTOS/tasks.c:1321
		{
			if( xSchedulerRunning != pdFALSE )
8000232c:	9481a783          	lw	a5,-1720(gp) # 80009678 <xSchedulerRunning>
80002330:	00078e63          	beqz	a5,8000234c <vTaskSuspend+0xa4>
/casa/workspace/Chronos-RISCV6/FreeRTOS/Debug/../FreeRTOS/tasks.c:1324
			{
				/* The current task has just been suspended. */
				configASSERT( uxSchedulerSuspended == 0 );
80002334:	9601a783          	lw	a5,-1696(gp) # 80009690 <uxSchedulerSuspended>
80002338:	00078663          	beqz	a5,80002344 <vTaskSuspend+0x9c>
/casa/workspace/Chronos-RISCV6/FreeRTOS/Debug/../FreeRTOS/tasks.c:1324 (discriminator 1)
8000233c:	30047073          	csrci	mstatus,8
80002340:	0000006f          	j	80002340 <vTaskSuspend+0x98>
/casa/workspace/Chronos-RISCV6/FreeRTOS/Debug/../FreeRTOS/tasks.c:1325
				portYIELD_WITHIN_API();
80002344:	809ff0ef          	jal	ra,80001b4c <vPortYield>
/casa/workspace/Chronos-RISCV6/FreeRTOS/Debug/../FreeRTOS/tasks.c:1364
			else
			{
				mtCOVERAGE_TEST_MARKER();
			}
		}
	}
80002348:	0380006f          	j	80002380 <vTaskSuspend+0xd8>
/casa/workspace/Chronos-RISCV6/FreeRTOS/Debug/../FreeRTOS/tasks.c:1332
				if( listCURRENT_LIST_LENGTH( &xSuspendedTaskList ) == uxCurrentNumberOfTasks )
8000234c:	800227b7          	lui	a5,0x80022
80002350:	7847a703          	lw	a4,1924(a5) # 80022784 <__stack_top+0xfffdb7f4>
80002354:	93c1a783          	lw	a5,-1732(gp) # 8000966c <uxCurrentNumberOfTasks>
80002358:	00f71663          	bne	a4,a5,80002364 <vTaskSuspend+0xbc>
/casa/workspace/Chronos-RISCV6/FreeRTOS/Debug/../FreeRTOS/tasks.c:1338
					pxCurrentTCB = NULL;
8000235c:	9201a623          	sw	zero,-1748(gp) # 8000965c <pxCurrentTCB>
/casa/workspace/Chronos-RISCV6/FreeRTOS/Debug/../FreeRTOS/tasks.c:1364
	}
80002360:	0200006f          	j	80002380 <vTaskSuspend+0xd8>
/casa/workspace/Chronos-RISCV6/FreeRTOS/Debug/../FreeRTOS/tasks.c:1342
					vTaskSwitchContext();
80002364:	70c000ef          	jal	ra,80002a70 <vTaskSwitchContext>
/casa/workspace/Chronos-RISCV6/FreeRTOS/Debug/../FreeRTOS/tasks.c:1364
	}
80002368:	0180006f          	j	80002380 <vTaskSuspend+0xd8>
/casa/workspace/Chronos-RISCV6/FreeRTOS/Debug/../FreeRTOS/tasks.c:1348
			if( xSchedulerRunning != pdFALSE )
8000236c:	9481a783          	lw	a5,-1720(gp) # 80009678 <xSchedulerRunning>
80002370:	00078863          	beqz	a5,80002380 <vTaskSuspend+0xd8>
/casa/workspace/Chronos-RISCV6/FreeRTOS/Debug/../FreeRTOS/tasks.c:1353
				taskENTER_CRITICAL();
80002374:	a9cff0ef          	jal	ra,80001610 <vPortEnterCritical>
/casa/workspace/Chronos-RISCV6/FreeRTOS/Debug/../FreeRTOS/tasks.c:1355
					prvResetNextTaskUnblockTime();
80002378:	439000ef          	jal	ra,80002fb0 <prvResetNextTaskUnblockTime>
/casa/workspace/Chronos-RISCV6/FreeRTOS/Debug/../FreeRTOS/tasks.c:1357
				taskEXIT_CRITICAL();
8000237c:	ac8ff0ef          	jal	ra,80001644 <vPortExitCritical>
/casa/workspace/Chronos-RISCV6/FreeRTOS/Debug/../FreeRTOS/tasks.c:1364
	}
80002380:	00000013          	nop
80002384:	02c12083          	lw	ra,44(sp)
80002388:	02812403          	lw	s0,40(sp)
8000238c:	03010113          	addi	sp,sp,48
80002390:	00008067          	ret

80002394 <prvTaskIsTaskSuspended>:
prvTaskIsTaskSuspended():
/casa/workspace/Chronos-RISCV6/FreeRTOS/Debug/../FreeRTOS/tasks.c:1372
/*-----------------------------------------------------------*/

#if ( INCLUDE_vTaskSuspend == 1 )

	static BaseType_t prvTaskIsTaskSuspended( const TaskHandle_t xTask )
	{
80002394:	fd010113          	addi	sp,sp,-48
80002398:	02812623          	sw	s0,44(sp)
8000239c:	03010413          	addi	s0,sp,48
800023a0:	fca42e23          	sw	a0,-36(s0)
/casa/workspace/Chronos-RISCV6/FreeRTOS/Debug/../FreeRTOS/tasks.c:1373
	BaseType_t xReturn = pdFALSE;
800023a4:	fe042623          	sw	zero,-20(s0)
/casa/workspace/Chronos-RISCV6/FreeRTOS/Debug/../FreeRTOS/tasks.c:1374
	const TCB_t * const pxTCB = ( TCB_t * ) xTask;
800023a8:	fdc42783          	lw	a5,-36(s0)
800023ac:	fef42423          	sw	a5,-24(s0)
/casa/workspace/Chronos-RISCV6/FreeRTOS/Debug/../FreeRTOS/tasks.c:1380

		/* Accesses xPendingReadyList so must be called from a critical
		section. */

		/* It does not make sense to check if the calling task is suspended. */
		configASSERT( xTask );
800023b0:	fdc42783          	lw	a5,-36(s0)
800023b4:	00079663          	bnez	a5,800023c0 <prvTaskIsTaskSuspended+0x2c>
/casa/workspace/Chronos-RISCV6/FreeRTOS/Debug/../FreeRTOS/tasks.c:1380 (discriminator 1)
800023b8:	30047073          	csrci	mstatus,8
800023bc:	0000006f          	j	800023bc <prvTaskIsTaskSuspended+0x28>
/casa/workspace/Chronos-RISCV6/FreeRTOS/Debug/../FreeRTOS/tasks.c:1383

		/* Is the task being resumed actually in the suspended list? */
		if( listIS_CONTAINED_WITHIN( &xSuspendedTaskList, &( pxTCB->xGenericListItem ) ) != pdFALSE )
800023c0:	fe842783          	lw	a5,-24(s0)
800023c4:	0147a703          	lw	a4,20(a5)
800023c8:	800227b7          	lui	a5,0x80022
800023cc:	78478793          	addi	a5,a5,1924 # 80022784 <__stack_top+0xfffdb7f4>
800023d0:	00f71663          	bne	a4,a5,800023dc <prvTaskIsTaskSuspended+0x48>
/casa/workspace/Chronos-RISCV6/FreeRTOS/Debug/../FreeRTOS/tasks.c:1383 (discriminator 1)
800023d4:	00100793          	li	a5,1
800023d8:	0080006f          	j	800023e0 <prvTaskIsTaskSuspended+0x4c>
/casa/workspace/Chronos-RISCV6/FreeRTOS/Debug/../FreeRTOS/tasks.c:1383 (discriminator 2)
800023dc:	00000793          	li	a5,0
/casa/workspace/Chronos-RISCV6/FreeRTOS/Debug/../FreeRTOS/tasks.c:1383 (discriminator 4)
800023e0:	02078e63          	beqz	a5,8000241c <prvTaskIsTaskSuspended+0x88>
/casa/workspace/Chronos-RISCV6/FreeRTOS/Debug/../FreeRTOS/tasks.c:1386
		{
			/* Has the task already been resumed from within an ISR? */
			if( listIS_CONTAINED_WITHIN( &xPendingReadyList, &( pxTCB->xEventListItem ) ) == pdFALSE )
800023e4:	fe842783          	lw	a5,-24(s0)
800023e8:	0287a703          	lw	a4,40(a5)
800023ec:	800227b7          	lui	a5,0x80022
800023f0:	75c78793          	addi	a5,a5,1884 # 8002275c <__stack_top+0xfffdb7cc>
800023f4:	02f70463          	beq	a4,a5,8000241c <prvTaskIsTaskSuspended+0x88>
/casa/workspace/Chronos-RISCV6/FreeRTOS/Debug/../FreeRTOS/tasks.c:1390
			{
				/* Is it in the suspended list because it is in the	Suspended
				state, or because is is blocked with no timeout? */
				if( listIS_CONTAINED_WITHIN( NULL, &( pxTCB->xEventListItem ) ) != pdFALSE )
800023f8:	fe842783          	lw	a5,-24(s0)
800023fc:	0287a783          	lw	a5,40(a5)
80002400:	00079663          	bnez	a5,8000240c <prvTaskIsTaskSuspended+0x78>
/casa/workspace/Chronos-RISCV6/FreeRTOS/Debug/../FreeRTOS/tasks.c:1390 (discriminator 1)
80002404:	00100793          	li	a5,1
80002408:	0080006f          	j	80002410 <prvTaskIsTaskSuspended+0x7c>
/casa/workspace/Chronos-RISCV6/FreeRTOS/Debug/../FreeRTOS/tasks.c:1390 (discriminator 2)
8000240c:	00000793          	li	a5,0
/casa/workspace/Chronos-RISCV6/FreeRTOS/Debug/../FreeRTOS/tasks.c:1390 (discriminator 4)
80002410:	00078663          	beqz	a5,8000241c <prvTaskIsTaskSuspended+0x88>
/casa/workspace/Chronos-RISCV6/FreeRTOS/Debug/../FreeRTOS/tasks.c:1392
				{
					xReturn = pdTRUE;
80002414:	00100793          	li	a5,1
80002418:	fef42623          	sw	a5,-20(s0)
/casa/workspace/Chronos-RISCV6/FreeRTOS/Debug/../FreeRTOS/tasks.c:1409
		else
		{
			mtCOVERAGE_TEST_MARKER();
		}

		return xReturn;
8000241c:	fec42783          	lw	a5,-20(s0)
/casa/workspace/Chronos-RISCV6/FreeRTOS/Debug/../FreeRTOS/tasks.c:1410
	} /*lint !e818 xTask cannot be a pointer to const because it is a typedef. */
80002420:	00078513          	mv	a0,a5
80002424:	02c12403          	lw	s0,44(sp)
80002428:	03010113          	addi	sp,sp,48
8000242c:	00008067          	ret

80002430 <vTaskResume>:
vTaskResume():
/casa/workspace/Chronos-RISCV6/FreeRTOS/Debug/../FreeRTOS/tasks.c:1418
/*-----------------------------------------------------------*/

#if ( INCLUDE_vTaskSuspend == 1 )

	void vTaskResume( TaskHandle_t xTaskToResume )
	{
80002430:	fd010113          	addi	sp,sp,-48
80002434:	02112623          	sw	ra,44(sp)
80002438:	02812423          	sw	s0,40(sp)
8000243c:	03010413          	addi	s0,sp,48
80002440:	fca42e23          	sw	a0,-36(s0)
/casa/workspace/Chronos-RISCV6/FreeRTOS/Debug/../FreeRTOS/tasks.c:1419
	TCB_t * const pxTCB = ( TCB_t * ) xTaskToResume;
80002444:	fdc42783          	lw	a5,-36(s0)
80002448:	fef42623          	sw	a5,-20(s0)
/casa/workspace/Chronos-RISCV6/FreeRTOS/Debug/../FreeRTOS/tasks.c:1422

		/* It does not make sense to resume the calling task. */
		configASSERT( xTaskToResume );
8000244c:	fdc42783          	lw	a5,-36(s0)
80002450:	00079663          	bnez	a5,8000245c <vTaskResume+0x2c>
/casa/workspace/Chronos-RISCV6/FreeRTOS/Debug/../FreeRTOS/tasks.c:1422 (discriminator 1)
80002454:	30047073          	csrci	mstatus,8
80002458:	0000006f          	j	80002458 <vTaskResume+0x28>
/casa/workspace/Chronos-RISCV6/FreeRTOS/Debug/../FreeRTOS/tasks.c:1426

		/* The parameter cannot be NULL as it is impossible to resume the
		currently executing task. */
		if( ( pxTCB != NULL ) && ( pxTCB != pxCurrentTCB ) )
8000245c:	fec42783          	lw	a5,-20(s0)
80002460:	0a078463          	beqz	a5,80002508 <vTaskResume+0xd8>
/casa/workspace/Chronos-RISCV6/FreeRTOS/Debug/../FreeRTOS/tasks.c:1426 (discriminator 1)
80002464:	92c1a783          	lw	a5,-1748(gp) # 8000965c <pxCurrentTCB>
80002468:	fec42703          	lw	a4,-20(s0)
8000246c:	08f70e63          	beq	a4,a5,80002508 <vTaskResume+0xd8>
/casa/workspace/Chronos-RISCV6/FreeRTOS/Debug/../FreeRTOS/tasks.c:1428
		{
			taskENTER_CRITICAL();
80002470:	9a0ff0ef          	jal	ra,80001610 <vPortEnterCritical>
/casa/workspace/Chronos-RISCV6/FreeRTOS/Debug/../FreeRTOS/tasks.c:1430
			{
				if( prvTaskIsTaskSuspended( pxTCB ) == pdTRUE )
80002474:	fec42503          	lw	a0,-20(s0)
80002478:	f1dff0ef          	jal	ra,80002394 <prvTaskIsTaskSuspended>
8000247c:	00050713          	mv	a4,a0
80002480:	00100793          	li	a5,1
80002484:	08f71063          	bne	a4,a5,80002504 <vTaskResume+0xd4>
/casa/workspace/Chronos-RISCV6/FreeRTOS/Debug/../FreeRTOS/tasks.c:1436
				{
					traceTASK_RESUME( pxTCB );

					/* As we are in a critical section we can access the ready
					lists even if the scheduler is suspended. */
					( void ) uxListRemove(  &( pxTCB->xGenericListItem ) );
80002488:	fec42783          	lw	a5,-20(s0)
8000248c:	00478793          	addi	a5,a5,4
80002490:	00078513          	mv	a0,a5
80002494:	8c9ff0ef          	jal	ra,80001d5c <uxListRemove>
/casa/workspace/Chronos-RISCV6/FreeRTOS/Debug/../FreeRTOS/tasks.c:1437
					prvAddTaskToReadyList( pxTCB );
80002498:	fec42783          	lw	a5,-20(s0)
8000249c:	02c7a703          	lw	a4,44(a5)
800024a0:	9441a783          	lw	a5,-1724(gp) # 80009674 <uxTopReadyPriority>
800024a4:	00e7f863          	bleu	a4,a5,800024b4 <vTaskResume+0x84>
/casa/workspace/Chronos-RISCV6/FreeRTOS/Debug/../FreeRTOS/tasks.c:1437 (discriminator 1)
800024a8:	fec42783          	lw	a5,-20(s0)
800024ac:	02c7a703          	lw	a4,44(a5)
800024b0:	94e1a223          	sw	a4,-1724(gp) # 80009674 <uxTopReadyPriority>
/casa/workspace/Chronos-RISCV6/FreeRTOS/Debug/../FreeRTOS/tasks.c:1437 (discriminator 3)
800024b4:	fec42783          	lw	a5,-20(s0)
800024b8:	02c7a703          	lw	a4,44(a5)
800024bc:	00070793          	mv	a5,a4
800024c0:	00279793          	slli	a5,a5,0x2
800024c4:	00e787b3          	add	a5,a5,a4
800024c8:	00279793          	slli	a5,a5,0x2
800024cc:	80022737          	lui	a4,0x80022
800024d0:	6d070713          	addi	a4,a4,1744 # 800226d0 <__stack_top+0xfffdb740>
800024d4:	00e78733          	add	a4,a5,a4
800024d8:	fec42783          	lw	a5,-20(s0)
800024dc:	00478793          	addi	a5,a5,4
800024e0:	00078593          	mv	a1,a5
800024e4:	00070513          	mv	a0,a4
800024e8:	f18ff0ef          	jal	ra,80001c00 <vListInsertEnd>
/casa/workspace/Chronos-RISCV6/FreeRTOS/Debug/../FreeRTOS/tasks.c:1440 (discriminator 3)

					/* We may have just resumed a higher priority task. */
					if( pxTCB->uxPriority >= pxCurrentTCB->uxPriority )
800024ec:	fec42783          	lw	a5,-20(s0)
800024f0:	02c7a703          	lw	a4,44(a5)
800024f4:	92c1a783          	lw	a5,-1748(gp) # 8000965c <pxCurrentTCB>
800024f8:	02c7a783          	lw	a5,44(a5)
800024fc:	00f76463          	bltu	a4,a5,80002504 <vTaskResume+0xd4>
/casa/workspace/Chronos-RISCV6/FreeRTOS/Debug/../FreeRTOS/tasks.c:1445
					{
						/* This yield may not cause the task just resumed to run,
						but will leave the lists in the correct state for the
						next yield. */
						taskYIELD_IF_USING_PREEMPTION();
80002500:	e4cff0ef          	jal	ra,80001b4c <vPortYield>
/casa/workspace/Chronos-RISCV6/FreeRTOS/Debug/../FreeRTOS/tasks.c:1457
				else
				{
					mtCOVERAGE_TEST_MARKER();
				}
			}
			taskEXIT_CRITICAL();
80002504:	940ff0ef          	jal	ra,80001644 <vPortExitCritical>
/casa/workspace/Chronos-RISCV6/FreeRTOS/Debug/../FreeRTOS/tasks.c:1463
		}
		else
		{
			mtCOVERAGE_TEST_MARKER();
		}
	}
80002508:	00000013          	nop
8000250c:	02c12083          	lw	ra,44(sp)
80002510:	02812403          	lw	s0,40(sp)
80002514:	03010113          	addi	sp,sp,48
80002518:	00008067          	ret

8000251c <xTaskResumeFromISR>:
xTaskResumeFromISR():
/casa/workspace/Chronos-RISCV6/FreeRTOS/Debug/../FreeRTOS/tasks.c:1472
/*-----------------------------------------------------------*/

#if ( ( INCLUDE_xTaskResumeFromISR == 1 ) && ( INCLUDE_vTaskSuspend == 1 ) )

	BaseType_t xTaskResumeFromISR( TaskHandle_t xTaskToResume )
	{
8000251c:	fd010113          	addi	sp,sp,-48
80002520:	02112623          	sw	ra,44(sp)
80002524:	02812423          	sw	s0,40(sp)
80002528:	03010413          	addi	s0,sp,48
8000252c:	fca42e23          	sw	a0,-36(s0)
/casa/workspace/Chronos-RISCV6/FreeRTOS/Debug/../FreeRTOS/tasks.c:1473
	BaseType_t xYieldRequired = pdFALSE;
80002530:	fe042623          	sw	zero,-20(s0)
/casa/workspace/Chronos-RISCV6/FreeRTOS/Debug/../FreeRTOS/tasks.c:1474
	TCB_t * const pxTCB = ( TCB_t * ) xTaskToResume;
80002534:	fdc42783          	lw	a5,-36(s0)
80002538:	fef42423          	sw	a5,-24(s0)
/casa/workspace/Chronos-RISCV6/FreeRTOS/Debug/../FreeRTOS/tasks.c:1477
	UBaseType_t uxSavedInterruptStatus;

		configASSERT( xTaskToResume );
8000253c:	fdc42783          	lw	a5,-36(s0)
80002540:	00079663          	bnez	a5,8000254c <xTaskResumeFromISR+0x30>
/casa/workspace/Chronos-RISCV6/FreeRTOS/Debug/../FreeRTOS/tasks.c:1477 (discriminator 1)
80002544:	30047073          	csrci	mstatus,8
80002548:	0000006f          	j	80002548 <xTaskResumeFromISR+0x2c>
/casa/workspace/Chronos-RISCV6/FreeRTOS/Debug/../FreeRTOS/tasks.c:1497
		simple as possible.  More information (albeit Cortex-M specific) is
		provided on the following link:
		http://www.freertos.org/RTOS-Cortex-M3-M4.html */
		portASSERT_IF_INTERRUPT_PRIORITY_INVALID();

		uxSavedInterruptStatus = portSET_INTERRUPT_MASK_FROM_ISR();
8000254c:	b24ff0ef          	jal	ra,80001870 <vPortSetInterruptMask>
80002550:	00050793          	mv	a5,a0
80002554:	fef42223          	sw	a5,-28(s0)
/casa/workspace/Chronos-RISCV6/FreeRTOS/Debug/../FreeRTOS/tasks.c:1499
		{
			if( prvTaskIsTaskSuspended( pxTCB ) == pdTRUE )
80002558:	fe842503          	lw	a0,-24(s0)
8000255c:	e39ff0ef          	jal	ra,80002394 <prvTaskIsTaskSuspended>
80002560:	00050713          	mv	a4,a0
80002564:	00100793          	li	a5,1
80002568:	0af71463          	bne	a4,a5,80002610 <xTaskResumeFromISR+0xf4>
/casa/workspace/Chronos-RISCV6/FreeRTOS/Debug/../FreeRTOS/tasks.c:1504
			{
				traceTASK_RESUME_FROM_ISR( pxTCB );

				/* Check the ready lists can be accessed. */
				if( uxSchedulerSuspended == ( UBaseType_t ) pdFALSE )
8000256c:	9601a783          	lw	a5,-1696(gp) # 80009690 <uxSchedulerSuspended>
80002570:	08079463          	bnez	a5,800025f8 <xTaskResumeFromISR+0xdc>
/casa/workspace/Chronos-RISCV6/FreeRTOS/Debug/../FreeRTOS/tasks.c:1508
				{
					/* Ready lists can be accessed so move the task from the
					suspended list to the ready list directly. */
					if( pxTCB->uxPriority >= pxCurrentTCB->uxPriority )
80002574:	fe842783          	lw	a5,-24(s0)
80002578:	02c7a703          	lw	a4,44(a5)
8000257c:	92c1a783          	lw	a5,-1748(gp) # 8000965c <pxCurrentTCB>
80002580:	02c7a783          	lw	a5,44(a5)
80002584:	00f76663          	bltu	a4,a5,80002590 <xTaskResumeFromISR+0x74>
/casa/workspace/Chronos-RISCV6/FreeRTOS/Debug/../FreeRTOS/tasks.c:1510
					{
						xYieldRequired = pdTRUE;
80002588:	00100793          	li	a5,1
8000258c:	fef42623          	sw	a5,-20(s0)
/casa/workspace/Chronos-RISCV6/FreeRTOS/Debug/../FreeRTOS/tasks.c:1517
					else
					{
						mtCOVERAGE_TEST_MARKER();
					}

					( void ) uxListRemove(  &( pxTCB->xGenericListItem ) );
80002590:	fe842783          	lw	a5,-24(s0)
80002594:	00478793          	addi	a5,a5,4
80002598:	00078513          	mv	a0,a5
8000259c:	fc0ff0ef          	jal	ra,80001d5c <uxListRemove>
/casa/workspace/Chronos-RISCV6/FreeRTOS/Debug/../FreeRTOS/tasks.c:1518
					prvAddTaskToReadyList( pxTCB );
800025a0:	fe842783          	lw	a5,-24(s0)
800025a4:	02c7a703          	lw	a4,44(a5)
800025a8:	9441a783          	lw	a5,-1724(gp) # 80009674 <uxTopReadyPriority>
800025ac:	00e7f863          	bleu	a4,a5,800025bc <xTaskResumeFromISR+0xa0>
/casa/workspace/Chronos-RISCV6/FreeRTOS/Debug/../FreeRTOS/tasks.c:1518 (discriminator 1)
800025b0:	fe842783          	lw	a5,-24(s0)
800025b4:	02c7a703          	lw	a4,44(a5)
800025b8:	94e1a223          	sw	a4,-1724(gp) # 80009674 <uxTopReadyPriority>
/casa/workspace/Chronos-RISCV6/FreeRTOS/Debug/../FreeRTOS/tasks.c:1518 (discriminator 3)
800025bc:	fe842783          	lw	a5,-24(s0)
800025c0:	02c7a703          	lw	a4,44(a5)
800025c4:	00070793          	mv	a5,a4
800025c8:	00279793          	slli	a5,a5,0x2
800025cc:	00e787b3          	add	a5,a5,a4
800025d0:	00279793          	slli	a5,a5,0x2
800025d4:	80022737          	lui	a4,0x80022
800025d8:	6d070713          	addi	a4,a4,1744 # 800226d0 <__stack_top+0xfffdb740>
800025dc:	00e78733          	add	a4,a5,a4
800025e0:	fe842783          	lw	a5,-24(s0)
800025e4:	00478793          	addi	a5,a5,4
800025e8:	00078593          	mv	a1,a5
800025ec:	00070513          	mv	a0,a4
800025f0:	e10ff0ef          	jal	ra,80001c00 <vListInsertEnd>
800025f4:	01c0006f          	j	80002610 <xTaskResumeFromISR+0xf4>
/casa/workspace/Chronos-RISCV6/FreeRTOS/Debug/../FreeRTOS/tasks.c:1525
				else
				{
					/* The delayed or ready lists cannot be accessed so the task
					is held in the pending ready list until the scheduler is
					unsuspended. */
					vListInsertEnd( &( xPendingReadyList ), &( pxTCB->xEventListItem ) );
800025f8:	fe842783          	lw	a5,-24(s0)
800025fc:	01878793          	addi	a5,a5,24
80002600:	00078593          	mv	a1,a5
80002604:	800227b7          	lui	a5,0x80022
80002608:	75c78513          	addi	a0,a5,1884 # 8002275c <__stack_top+0xfffdb7cc>
8000260c:	df4ff0ef          	jal	ra,80001c00 <vListInsertEnd>
/casa/workspace/Chronos-RISCV6/FreeRTOS/Debug/../FreeRTOS/tasks.c:1533
			else
			{
				mtCOVERAGE_TEST_MARKER();
			}
		}
		portCLEAR_INTERRUPT_MASK_FROM_ISR( uxSavedInterruptStatus );
80002610:	fe442783          	lw	a5,-28(s0)
80002614:	00078513          	mv	a0,a5
80002618:	a30ff0ef          	jal	ra,80001848 <vPortClearInterruptMask>
/casa/workspace/Chronos-RISCV6/FreeRTOS/Debug/../FreeRTOS/tasks.c:1535

		return xYieldRequired;
8000261c:	fec42783          	lw	a5,-20(s0)
/casa/workspace/Chronos-RISCV6/FreeRTOS/Debug/../FreeRTOS/tasks.c:1536
	}
80002620:	00078513          	mv	a0,a5
80002624:	02c12083          	lw	ra,44(sp)
80002628:	02812403          	lw	s0,40(sp)
8000262c:	03010113          	addi	sp,sp,48
80002630:	00008067          	ret

80002634 <vTaskStartScheduler>:
vTaskStartScheduler():
/casa/workspace/Chronos-RISCV6/FreeRTOS/Debug/../FreeRTOS/tasks.c:1542

#endif /* ( ( INCLUDE_xTaskResumeFromISR == 1 ) && ( INCLUDE_vTaskSuspend == 1 ) ) */
/*-----------------------------------------------------------*/

void vTaskStartScheduler( void )
{
80002634:	fe010113          	addi	sp,sp,-32
80002638:	00112e23          	sw	ra,28(sp)
8000263c:	00812c23          	sw	s0,24(sp)
80002640:	02010413          	addi	s0,sp,32
/casa/workspace/Chronos-RISCV6/FreeRTOS/Debug/../FreeRTOS/tasks.c:1555
		xReturn = xTaskCreate( prvIdleTask, "IDLE", tskIDLE_STACK_SIZE, ( void * ) NULL, ( tskIDLE_PRIORITY | portPRIVILEGE_BIT ), &xIdleTaskHandle ); /*lint !e961 MISRA exception, justified as it is not a redundant explicit cast to all supported compilers. */
	}
	#else
	{
		/* Create the idle task without storing its handle. */
		xReturn = xTaskCreate( prvIdleTask, "IDLE", tskIDLE_STACK_SIZE, ( void * ) NULL, ( tskIDLE_PRIORITY | portPRIVILEGE_BIT ), NULL );  /*lint !e961 MISRA exception, justified as it is not a redundant explicit cast to all supported compilers. */
80002644:	00000893          	li	a7,0
80002648:	00000813          	li	a6,0
8000264c:	00000793          	li	a5,0
80002650:	00000713          	li	a4,0
80002654:	00000693          	li	a3,0
80002658:	40000613          	li	a2,1024
8000265c:	800095b7          	lui	a1,0x80009
80002660:	a6858593          	addi	a1,a1,-1432 # 80008a68 <__stack_top+0xfffc1ad8>
80002664:	80003537          	lui	a0,0x80003
80002668:	b5c50513          	addi	a0,a0,-1188 # 80002b5c <__stack_top+0xfffbbbcc>
8000266c:	8c1ff0ef          	jal	ra,80001f2c <xTaskGenericCreate>
80002670:	fea42623          	sw	a0,-20(s0)
/casa/workspace/Chronos-RISCV6/FreeRTOS/Debug/../FreeRTOS/tasks.c:1572
			mtCOVERAGE_TEST_MARKER();
		}
	}
	#endif /* configUSE_TIMERS */

	if( xReturn == pdPASS )
80002674:	fec42703          	lw	a4,-20(s0)
80002678:	00100793          	li	a5,1
8000267c:	02f71263          	bne	a4,a5,800026a0 <vTaskStartScheduler+0x6c>
/casa/workspace/Chronos-RISCV6/FreeRTOS/Debug/../FreeRTOS/tasks.c:1579
		/* Interrupts are turned off here, to ensure a tick does not occur
		before or during the call to xPortStartScheduler().  The stacks of
		the created tasks contain a status word with interrupts switched on
		so interrupts will automatically get re-enabled when the first task
		starts to run. */
		portDISABLE_INTERRUPTS();
80002680:	30047073          	csrci	mstatus,8
/casa/workspace/Chronos-RISCV6/FreeRTOS/Debug/../FreeRTOS/tasks.c:1589
			structure specific to the task that will run first. */
			_impure_ptr = &( pxCurrentTCB->xNewLib_reent );
		}
		#endif /* configUSE_NEWLIB_REENTRANT */

		xNextTaskUnblockTime = portMAX_DELAY;
80002684:	fff00713          	li	a4,-1
80002688:	94e1ae23          	sw	a4,-1700(gp) # 8000968c <xNextTaskUnblockTime>
/casa/workspace/Chronos-RISCV6/FreeRTOS/Debug/../FreeRTOS/tasks.c:1590
		xSchedulerRunning = pdTRUE;
8000268c:	00100713          	li	a4,1
80002690:	94e1a423          	sw	a4,-1720(gp) # 80009678 <xSchedulerRunning>
/casa/workspace/Chronos-RISCV6/FreeRTOS/Debug/../FreeRTOS/tasks.c:1591
		xTickCount = ( TickType_t ) 0U;
80002694:	9401a023          	sw	zero,-1728(gp) # 80009670 <xTickCount>
/casa/workspace/Chronos-RISCV6/FreeRTOS/Debug/../FreeRTOS/tasks.c:1600
		the run time counter time base. */
		portCONFIGURE_TIMER_FOR_RUN_TIME_STATS();

		/* Setting up the timer tick is hardware specific and thus in the
		portable interface. */
		if( xPortStartScheduler() != pdFALSE )
80002698:	b7cff0ef          	jal	ra,80001a14 <xPortStartScheduler>
/casa/workspace/Chronos-RISCV6/FreeRTOS/Debug/../FreeRTOS/tasks.c:1617
		/* This line will only be reached if the kernel could not be started,
		because there was not enough FreeRTOS heap to create the idle task
		or the timer task. */
		configASSERT( xReturn );
	}
}
8000269c:	0140006f          	j	800026b0 <vTaskStartScheduler+0x7c>
/casa/workspace/Chronos-RISCV6/FreeRTOS/Debug/../FreeRTOS/tasks.c:1615
		configASSERT( xReturn );
800026a0:	fec42783          	lw	a5,-20(s0)
800026a4:	00079663          	bnez	a5,800026b0 <vTaskStartScheduler+0x7c>
/casa/workspace/Chronos-RISCV6/FreeRTOS/Debug/../FreeRTOS/tasks.c:1615 (discriminator 1)
800026a8:	30047073          	csrci	mstatus,8
/casa/workspace/Chronos-RISCV6/FreeRTOS/Debug/../FreeRTOS/tasks.c:1615 (discriminator 2)
800026ac:	0000006f          	j	800026ac <vTaskStartScheduler+0x78>
/casa/workspace/Chronos-RISCV6/FreeRTOS/Debug/../FreeRTOS/tasks.c:1617
}
800026b0:	00000013          	nop
800026b4:	01c12083          	lw	ra,28(sp)
800026b8:	01812403          	lw	s0,24(sp)
800026bc:	02010113          	addi	sp,sp,32
800026c0:	00008067          	ret

800026c4 <vTaskSuspendAll>:
vTaskSuspendAll():
/casa/workspace/Chronos-RISCV6/FreeRTOS/Debug/../FreeRTOS/tasks.c:1632
	vPortEndScheduler();
}
/*----------------------------------------------------------*/

void vTaskSuspendAll( void )
{
800026c4:	ff010113          	addi	sp,sp,-16
800026c8:	00812623          	sw	s0,12(sp)
800026cc:	01010413          	addi	s0,sp,16
/casa/workspace/Chronos-RISCV6/FreeRTOS/Debug/../FreeRTOS/tasks.c:1637
	/* A critical section is not required as the variable is of type
	BaseType_t.  Please read Richard Barry's reply in the following link to a
	post in the FreeRTOS support forum before reporting this as a bug! -
	http://goo.gl/wu4acr */
	++uxSchedulerSuspended;
800026d0:	9601a783          	lw	a5,-1696(gp) # 80009690 <uxSchedulerSuspended>
800026d4:	00178713          	addi	a4,a5,1
800026d8:	96e1a023          	sw	a4,-1696(gp) # 80009690 <uxSchedulerSuspended>
/casa/workspace/Chronos-RISCV6/FreeRTOS/Debug/../FreeRTOS/tasks.c:1638
}
800026dc:	00000013          	nop
800026e0:	00c12403          	lw	s0,12(sp)
800026e4:	01010113          	addi	sp,sp,16
800026e8:	00008067          	ret

800026ec <xTaskResumeAll>:
xTaskResumeAll():
/casa/workspace/Chronos-RISCV6/FreeRTOS/Debug/../FreeRTOS/tasks.c:1670

#endif /* configUSE_TICKLESS_IDLE */
/*----------------------------------------------------------*/

BaseType_t xTaskResumeAll( void )
{
800026ec:	fe010113          	addi	sp,sp,-32
800026f0:	00112e23          	sw	ra,28(sp)
800026f4:	00812c23          	sw	s0,24(sp)
800026f8:	02010413          	addi	s0,sp,32
/casa/workspace/Chronos-RISCV6/FreeRTOS/Debug/../FreeRTOS/tasks.c:1672
TCB_t *pxTCB;
BaseType_t xAlreadyYielded = pdFALSE;
800026fc:	fe042623          	sw	zero,-20(s0)
/casa/workspace/Chronos-RISCV6/FreeRTOS/Debug/../FreeRTOS/tasks.c:1676

	/* If uxSchedulerSuspended is zero then this function does not match a
	previous call to vTaskSuspendAll(). */
	configASSERT( uxSchedulerSuspended );
80002700:	9601a783          	lw	a5,-1696(gp) # 80009690 <uxSchedulerSuspended>
80002704:	00079663          	bnez	a5,80002710 <xTaskResumeAll+0x24>
/casa/workspace/Chronos-RISCV6/FreeRTOS/Debug/../FreeRTOS/tasks.c:1676 (discriminator 1)
80002708:	30047073          	csrci	mstatus,8
8000270c:	0000006f          	j	8000270c <xTaskResumeAll+0x20>
/casa/workspace/Chronos-RISCV6/FreeRTOS/Debug/../FreeRTOS/tasks.c:1683
	/* It is possible that an ISR caused a task to be removed from an event
	list while the scheduler was suspended.  If this was the case then the
	removed task will have been added to the xPendingReadyList.  Once the
	scheduler has been resumed it is safe to move all the pending ready
	tasks from this list into their appropriate ready list. */
	taskENTER_CRITICAL();
80002710:	f01fe0ef          	jal	ra,80001610 <vPortEnterCritical>
/casa/workspace/Chronos-RISCV6/FreeRTOS/Debug/../FreeRTOS/tasks.c:1685
	{
		--uxSchedulerSuspended;
80002714:	9601a783          	lw	a5,-1696(gp) # 80009690 <uxSchedulerSuspended>
80002718:	fff78713          	addi	a4,a5,-1
8000271c:	96e1a023          	sw	a4,-1696(gp) # 80009690 <uxSchedulerSuspended>
/casa/workspace/Chronos-RISCV6/FreeRTOS/Debug/../FreeRTOS/tasks.c:1687

		if( uxSchedulerSuspended == ( UBaseType_t ) pdFALSE )
80002720:	9601a783          	lw	a5,-1696(gp) # 80009690 <uxSchedulerSuspended>
80002724:	10079663          	bnez	a5,80002830 <xTaskResumeAll+0x144>
/casa/workspace/Chronos-RISCV6/FreeRTOS/Debug/../FreeRTOS/tasks.c:1689
		{
			if( uxCurrentNumberOfTasks > ( UBaseType_t ) 0U )
80002728:	93c1a783          	lw	a5,-1732(gp) # 8000966c <uxCurrentNumberOfTasks>
8000272c:	10078263          	beqz	a5,80002830 <xTaskResumeAll+0x144>
/casa/workspace/Chronos-RISCV6/FreeRTOS/Debug/../FreeRTOS/tasks.c:1693
			{
				/* Move any readied tasks from the pending list into the
				appropriate ready list. */
				while( listLIST_IS_EMPTY( &xPendingReadyList ) == pdFALSE )
80002730:	0a80006f          	j	800027d8 <xTaskResumeAll+0xec>
/casa/workspace/Chronos-RISCV6/FreeRTOS/Debug/../FreeRTOS/tasks.c:1695
				{
					pxTCB = ( TCB_t * ) listGET_OWNER_OF_HEAD_ENTRY( ( &xPendingReadyList ) );
80002734:	800227b7          	lui	a5,0x80022
80002738:	75c78793          	addi	a5,a5,1884 # 8002275c <__stack_top+0xfffdb7cc>
8000273c:	00c7a783          	lw	a5,12(a5)
80002740:	00c7a783          	lw	a5,12(a5)
80002744:	fef42423          	sw	a5,-24(s0)
/casa/workspace/Chronos-RISCV6/FreeRTOS/Debug/../FreeRTOS/tasks.c:1696
					( void ) uxListRemove( &( pxTCB->xEventListItem ) );
80002748:	fe842783          	lw	a5,-24(s0)
8000274c:	01878793          	addi	a5,a5,24
80002750:	00078513          	mv	a0,a5
80002754:	e08ff0ef          	jal	ra,80001d5c <uxListRemove>
/casa/workspace/Chronos-RISCV6/FreeRTOS/Debug/../FreeRTOS/tasks.c:1697
					( void ) uxListRemove( &( pxTCB->xGenericListItem ) );
80002758:	fe842783          	lw	a5,-24(s0)
8000275c:	00478793          	addi	a5,a5,4
80002760:	00078513          	mv	a0,a5
80002764:	df8ff0ef          	jal	ra,80001d5c <uxListRemove>
/casa/workspace/Chronos-RISCV6/FreeRTOS/Debug/../FreeRTOS/tasks.c:1698
					prvAddTaskToReadyList( pxTCB );
80002768:	fe842783          	lw	a5,-24(s0)
8000276c:	02c7a703          	lw	a4,44(a5)
80002770:	9441a783          	lw	a5,-1724(gp) # 80009674 <uxTopReadyPriority>
80002774:	00e7f863          	bleu	a4,a5,80002784 <xTaskResumeAll+0x98>
/casa/workspace/Chronos-RISCV6/FreeRTOS/Debug/../FreeRTOS/tasks.c:1698 (discriminator 1)
80002778:	fe842783          	lw	a5,-24(s0)
8000277c:	02c7a703          	lw	a4,44(a5)
80002780:	94e1a223          	sw	a4,-1724(gp) # 80009674 <uxTopReadyPriority>
/casa/workspace/Chronos-RISCV6/FreeRTOS/Debug/../FreeRTOS/tasks.c:1698 (discriminator 3)
80002784:	fe842783          	lw	a5,-24(s0)
80002788:	02c7a703          	lw	a4,44(a5)
8000278c:	00070793          	mv	a5,a4
80002790:	00279793          	slli	a5,a5,0x2
80002794:	00e787b3          	add	a5,a5,a4
80002798:	00279793          	slli	a5,a5,0x2
8000279c:	80022737          	lui	a4,0x80022
800027a0:	6d070713          	addi	a4,a4,1744 # 800226d0 <__stack_top+0xfffdb740>
800027a4:	00e78733          	add	a4,a5,a4
800027a8:	fe842783          	lw	a5,-24(s0)
800027ac:	00478793          	addi	a5,a5,4
800027b0:	00078593          	mv	a1,a5
800027b4:	00070513          	mv	a0,a4
800027b8:	c48ff0ef          	jal	ra,80001c00 <vListInsertEnd>
/casa/workspace/Chronos-RISCV6/FreeRTOS/Debug/../FreeRTOS/tasks.c:1702 (discriminator 3)

					/* If the moved task has a priority higher than the current
					task then a yield must be performed. */
					if( pxTCB->uxPriority >= pxCurrentTCB->uxPriority )
800027bc:	fe842783          	lw	a5,-24(s0)
800027c0:	02c7a703          	lw	a4,44(a5)
800027c4:	92c1a783          	lw	a5,-1748(gp) # 8000965c <pxCurrentTCB>
800027c8:	02c7a783          	lw	a5,44(a5)
800027cc:	00f76663          	bltu	a4,a5,800027d8 <xTaskResumeAll+0xec>
/casa/workspace/Chronos-RISCV6/FreeRTOS/Debug/../FreeRTOS/tasks.c:1704
					{
						xYieldPending = pdTRUE;
800027d0:	00100713          	li	a4,1
800027d4:	94e1a823          	sw	a4,-1712(gp) # 80009680 <xYieldPending>
/casa/workspace/Chronos-RISCV6/FreeRTOS/Debug/../FreeRTOS/tasks.c:1693
				while( listLIST_IS_EMPTY( &xPendingReadyList ) == pdFALSE )
800027d8:	800227b7          	lui	a5,0x80022
800027dc:	75c7a783          	lw	a5,1884(a5) # 8002275c <__stack_top+0xfffdb7cc>
800027e0:	f4079ae3          	bnez	a5,80002734 <xTaskResumeAll+0x48>
/casa/workspace/Chronos-RISCV6/FreeRTOS/Debug/../FreeRTOS/tasks.c:1716

				/* If any ticks occurred while the scheduler was suspended then
				they should be processed now.  This ensures the tick count does
				not	slip, and that any delayed tasks are resumed at the correct
				time. */
				if( uxPendedTicks > ( UBaseType_t ) 0U )
800027e4:	94c1a783          	lw	a5,-1716(gp) # 8000967c <uxPendedTicks>
800027e8:	02078863          	beqz	a5,80002818 <xTaskResumeAll+0x12c>
/casa/workspace/Chronos-RISCV6/FreeRTOS/Debug/../FreeRTOS/tasks.c:1718
				{
					while( uxPendedTicks > ( UBaseType_t ) 0U )
800027ec:	0240006f          	j	80002810 <xTaskResumeAll+0x124>
/casa/workspace/Chronos-RISCV6/FreeRTOS/Debug/../FreeRTOS/tasks.c:1720
					{
						if( xTaskIncrementTick() != pdFALSE )
800027f0:	094000ef          	jal	ra,80002884 <xTaskIncrementTick>
800027f4:	00050793          	mv	a5,a0
800027f8:	00078663          	beqz	a5,80002804 <xTaskResumeAll+0x118>
/casa/workspace/Chronos-RISCV6/FreeRTOS/Debug/../FreeRTOS/tasks.c:1722
						{
							xYieldPending = pdTRUE;
800027fc:	00100713          	li	a4,1
80002800:	94e1a823          	sw	a4,-1712(gp) # 80009680 <xYieldPending>
/casa/workspace/Chronos-RISCV6/FreeRTOS/Debug/../FreeRTOS/tasks.c:1728
						}
						else
						{
							mtCOVERAGE_TEST_MARKER();
						}
						--uxPendedTicks;
80002804:	94c1a783          	lw	a5,-1716(gp) # 8000967c <uxPendedTicks>
80002808:	fff78713          	addi	a4,a5,-1
8000280c:	94e1a623          	sw	a4,-1716(gp) # 8000967c <uxPendedTicks>
/casa/workspace/Chronos-RISCV6/FreeRTOS/Debug/../FreeRTOS/tasks.c:1718
					while( uxPendedTicks > ( UBaseType_t ) 0U )
80002810:	94c1a783          	lw	a5,-1716(gp) # 8000967c <uxPendedTicks>
80002814:	fc079ee3          	bnez	a5,800027f0 <xTaskResumeAll+0x104>
/casa/workspace/Chronos-RISCV6/FreeRTOS/Debug/../FreeRTOS/tasks.c:1736
				else
				{
					mtCOVERAGE_TEST_MARKER();
				}

				if( xYieldPending == pdTRUE )
80002818:	9501a703          	lw	a4,-1712(gp) # 80009680 <xYieldPending>
8000281c:	00100793          	li	a5,1
80002820:	00f71863          	bne	a4,a5,80002830 <xTaskResumeAll+0x144>
/casa/workspace/Chronos-RISCV6/FreeRTOS/Debug/../FreeRTOS/tasks.c:1740
				{
					#if( configUSE_PREEMPTION != 0 )
					{
						xAlreadyYielded = pdTRUE;
80002824:	00100793          	li	a5,1
80002828:	fef42623          	sw	a5,-20(s0)
/casa/workspace/Chronos-RISCV6/FreeRTOS/Debug/../FreeRTOS/tasks.c:1743
					}
					#endif
					taskYIELD_IF_USING_PREEMPTION();
8000282c:	b20ff0ef          	jal	ra,80001b4c <vPortYield>
/casa/workspace/Chronos-RISCV6/FreeRTOS/Debug/../FreeRTOS/tasks.c:1756
		else
		{
			mtCOVERAGE_TEST_MARKER();
		}
	}
	taskEXIT_CRITICAL();
80002830:	e15fe0ef          	jal	ra,80001644 <vPortExitCritical>
/casa/workspace/Chronos-RISCV6/FreeRTOS/Debug/../FreeRTOS/tasks.c:1758

	return xAlreadyYielded;
80002834:	fec42783          	lw	a5,-20(s0)
/casa/workspace/Chronos-RISCV6/FreeRTOS/Debug/../FreeRTOS/tasks.c:1759
}
80002838:	00078513          	mv	a0,a5
8000283c:	01c12083          	lw	ra,28(sp)
80002840:	01812403          	lw	s0,24(sp)
80002844:	02010113          	addi	sp,sp,32
80002848:	00008067          	ret

8000284c <xTaskGetTickCount>:
xTaskGetTickCount():
/casa/workspace/Chronos-RISCV6/FreeRTOS/Debug/../FreeRTOS/tasks.c:1763
/*-----------------------------------------------------------*/

TickType_t xTaskGetTickCount( void )
{
8000284c:	fe010113          	addi	sp,sp,-32
80002850:	00112e23          	sw	ra,28(sp)
80002854:	00812c23          	sw	s0,24(sp)
80002858:	02010413          	addi	s0,sp,32
/casa/workspace/Chronos-RISCV6/FreeRTOS/Debug/../FreeRTOS/tasks.c:1767
TickType_t xTicks;

	/* Critical section required if running on a 16 bit processor. */
	portTICK_TYPE_ENTER_CRITICAL();
8000285c:	db5fe0ef          	jal	ra,80001610 <vPortEnterCritical>
/casa/workspace/Chronos-RISCV6/FreeRTOS/Debug/../FreeRTOS/tasks.c:1769
	{
		xTicks = xTickCount;
80002860:	9401a783          	lw	a5,-1728(gp) # 80009670 <xTickCount>
80002864:	fef42623          	sw	a5,-20(s0)
/casa/workspace/Chronos-RISCV6/FreeRTOS/Debug/../FreeRTOS/tasks.c:1771
	}
	portTICK_TYPE_EXIT_CRITICAL();
80002868:	dddfe0ef          	jal	ra,80001644 <vPortExitCritical>
/casa/workspace/Chronos-RISCV6/FreeRTOS/Debug/../FreeRTOS/tasks.c:1773

	return xTicks;
8000286c:	fec42783          	lw	a5,-20(s0)
/casa/workspace/Chronos-RISCV6/FreeRTOS/Debug/../FreeRTOS/tasks.c:1774
}
80002870:	00078513          	mv	a0,a5
80002874:	01c12083          	lw	ra,28(sp)
80002878:	01812403          	lw	s0,24(sp)
8000287c:	02010113          	addi	sp,sp,32
80002880:	00008067          	ret

80002884 <xTaskIncrementTick>:
xTaskIncrementTick():
/casa/workspace/Chronos-RISCV6/FreeRTOS/Debug/../FreeRTOS/tasks.c:1938

#endif /* configUSE_TICKLESS_IDLE */
/*----------------------------------------------------------*/

BaseType_t xTaskIncrementTick( void )
{
80002884:	fd010113          	addi	sp,sp,-48
80002888:	02112623          	sw	ra,44(sp)
8000288c:	02812423          	sw	s0,40(sp)
80002890:	03010413          	addi	s0,sp,48
/casa/workspace/Chronos-RISCV6/FreeRTOS/Debug/../FreeRTOS/tasks.c:1941
TCB_t * pxTCB;
TickType_t xItemValue;
BaseType_t xSwitchRequired = pdFALSE;
80002894:	fe042623          	sw	zero,-20(s0)
/casa/workspace/Chronos-RISCV6/FreeRTOS/Debug/../FreeRTOS/tasks.c:1947

	/* Called by the portable layer each time a tick interrupt occurs.
	Increments the tick then checks to see if the new tick value will cause any
	tasks to be unblocked. */
	traceTASK_INCREMENT_TICK( xTickCount );
	if( uxSchedulerSuspended == ( UBaseType_t ) pdFALSE )
80002898:	9601a783          	lw	a5,-1696(gp) # 80009690 <uxSchedulerSuspended>
8000289c:	1a079063          	bnez	a5,80002a3c <xTaskIncrementTick+0x1b8>
/casa/workspace/Chronos-RISCV6/FreeRTOS/Debug/../FreeRTOS/tasks.c:1951
	{
		/* Increment the RTOS tick, switching the delayed and overflowed
		delayed lists if it wraps to 0. */
		++xTickCount;
800028a0:	9401a783          	lw	a5,-1728(gp) # 80009670 <xTickCount>
800028a4:	00178713          	addi	a4,a5,1
800028a8:	94e1a023          	sw	a4,-1728(gp) # 80009670 <xTickCount>
/casa/workspace/Chronos-RISCV6/FreeRTOS/Debug/../FreeRTOS/tasks.c:1956

		{
			/* Minor optimisation.  The tick count cannot change in this
			block. */
			const TickType_t xConstTickCount = xTickCount;
800028ac:	9401a783          	lw	a5,-1728(gp) # 80009670 <xTickCount>
800028b0:	fef42423          	sw	a5,-24(s0)
/casa/workspace/Chronos-RISCV6/FreeRTOS/Debug/../FreeRTOS/tasks.c:1958

			if( xConstTickCount == ( TickType_t ) 0U )
800028b4:	fe842783          	lw	a5,-24(s0)
800028b8:	04079063          	bnez	a5,800028f8 <xTaskIncrementTick+0x74>
/casa/workspace/Chronos-RISCV6/FreeRTOS/Debug/../FreeRTOS/tasks.c:1960
			{
				taskSWITCH_DELAYED_LISTS();
800028bc:	9301a783          	lw	a5,-1744(gp) # 80009660 <pxDelayedTaskList>
800028c0:	0007a783          	lw	a5,0(a5)
800028c4:	00078663          	beqz	a5,800028d0 <xTaskIncrementTick+0x4c>
/casa/workspace/Chronos-RISCV6/FreeRTOS/Debug/../FreeRTOS/tasks.c:1960 (discriminator 1)
800028c8:	30047073          	csrci	mstatus,8
800028cc:	0000006f          	j	800028cc <xTaskIncrementTick+0x48>
/casa/workspace/Chronos-RISCV6/FreeRTOS/Debug/../FreeRTOS/tasks.c:1960 (discriminator 2)
800028d0:	9301a783          	lw	a5,-1744(gp) # 80009660 <pxDelayedTaskList>
800028d4:	fef42223          	sw	a5,-28(s0)
800028d8:	9341a703          	lw	a4,-1740(gp) # 80009664 <pxOverflowDelayedTaskList>
800028dc:	92e1a823          	sw	a4,-1744(gp) # 80009660 <pxDelayedTaskList>
800028e0:	fe442703          	lw	a4,-28(s0)
800028e4:	92e1aa23          	sw	a4,-1740(gp) # 80009664 <pxOverflowDelayedTaskList>
800028e8:	9541a783          	lw	a5,-1708(gp) # 80009684 <xNumOfOverflows>
800028ec:	00178713          	addi	a4,a5,1
800028f0:	94e1aa23          	sw	a4,-1708(gp) # 80009684 <xNumOfOverflows>
800028f4:	6bc000ef          	jal	ra,80002fb0 <prvResetNextTaskUnblockTime>
/casa/workspace/Chronos-RISCV6/FreeRTOS/Debug/../FreeRTOS/tasks.c:1971

			/* See if this tick has made a timeout expire.  Tasks are stored in
			the	queue in the order of their wake time - meaning once one task
			has been found whose block time has not expired there is no need to
			look any further down the list. */
			if( xConstTickCount >= xNextTaskUnblockTime )
800028f8:	95c1a783          	lw	a5,-1700(gp) # 8000968c <xNextTaskUnblockTime>
800028fc:	fe842703          	lw	a4,-24(s0)
80002900:	10f76063          	bltu	a4,a5,80002a00 <xTaskIncrementTick+0x17c>
/casa/workspace/Chronos-RISCV6/FreeRTOS/Debug/../FreeRTOS/tasks.c:1975
			{
				for( ;; )
				{
					if( listLIST_IS_EMPTY( pxDelayedTaskList ) != pdFALSE )
80002904:	9301a783          	lw	a5,-1744(gp) # 80009660 <pxDelayedTaskList>
80002908:	0007a783          	lw	a5,0(a5)
8000290c:	00079663          	bnez	a5,80002918 <xTaskIncrementTick+0x94>
/casa/workspace/Chronos-RISCV6/FreeRTOS/Debug/../FreeRTOS/tasks.c:1975 (discriminator 1)
80002910:	00100793          	li	a5,1
80002914:	0080006f          	j	8000291c <xTaskIncrementTick+0x98>
/casa/workspace/Chronos-RISCV6/FreeRTOS/Debug/../FreeRTOS/tasks.c:1975 (discriminator 2)
80002918:	00000793          	li	a5,0
/casa/workspace/Chronos-RISCV6/FreeRTOS/Debug/../FreeRTOS/tasks.c:1975 (discriminator 4)
8000291c:	00078863          	beqz	a5,8000292c <xTaskIncrementTick+0xa8>
/casa/workspace/Chronos-RISCV6/FreeRTOS/Debug/../FreeRTOS/tasks.c:1982
						/* The delayed list is empty.  Set xNextTaskUnblockTime
						to the maximum possible value so it is extremely
						unlikely that the
						if( xTickCount >= xNextTaskUnblockTime ) test will pass
						next time through. */
						xNextTaskUnblockTime = portMAX_DELAY;
80002920:	fff00713          	li	a4,-1
80002924:	94e1ae23          	sw	a4,-1700(gp) # 8000968c <xNextTaskUnblockTime>
/casa/workspace/Chronos-RISCV6/FreeRTOS/Debug/../FreeRTOS/tasks.c:1983
						break;
80002928:	0d80006f          	j	80002a00 <xTaskIncrementTick+0x17c>
/casa/workspace/Chronos-RISCV6/FreeRTOS/Debug/../FreeRTOS/tasks.c:1991
					{
						/* The delayed list is not empty, get the value of the
						item at the head of the delayed list.  This is the time
						at which the task at the head of the delayed list must
						be removed from the Blocked state. */
						pxTCB = ( TCB_t * ) listGET_OWNER_OF_HEAD_ENTRY( pxDelayedTaskList );
8000292c:	9301a783          	lw	a5,-1744(gp) # 80009660 <pxDelayedTaskList>
80002930:	00c7a783          	lw	a5,12(a5)
80002934:	00c7a783          	lw	a5,12(a5)
80002938:	fef42023          	sw	a5,-32(s0)
/casa/workspace/Chronos-RISCV6/FreeRTOS/Debug/../FreeRTOS/tasks.c:1992
						xItemValue = listGET_LIST_ITEM_VALUE( &( pxTCB->xGenericListItem ) );
8000293c:	fe042783          	lw	a5,-32(s0)
80002940:	0047a783          	lw	a5,4(a5)
80002944:	fcf42e23          	sw	a5,-36(s0)
/casa/workspace/Chronos-RISCV6/FreeRTOS/Debug/../FreeRTOS/tasks.c:1994

						if( xConstTickCount < xItemValue )
80002948:	fe842703          	lw	a4,-24(s0)
8000294c:	fdc42783          	lw	a5,-36(s0)
80002950:	00f77863          	bleu	a5,a4,80002960 <xTaskIncrementTick+0xdc>
/casa/workspace/Chronos-RISCV6/FreeRTOS/Debug/../FreeRTOS/tasks.c:2001
							/* It is not time to unblock this item yet, but the
							item value is the time at which the task at the head
							of the blocked list must be removed from the Blocked
							state -	so record the item value in
							xNextTaskUnblockTime. */
							xNextTaskUnblockTime = xItemValue;
80002954:	fdc42703          	lw	a4,-36(s0)
80002958:	94e1ae23          	sw	a4,-1700(gp) # 8000968c <xNextTaskUnblockTime>
/casa/workspace/Chronos-RISCV6/FreeRTOS/Debug/../FreeRTOS/tasks.c:2002
							break;
8000295c:	0a40006f          	j	80002a00 <xTaskIncrementTick+0x17c>
/casa/workspace/Chronos-RISCV6/FreeRTOS/Debug/../FreeRTOS/tasks.c:2010
						{
							mtCOVERAGE_TEST_MARKER();
						}

						/* It is time to remove the item from the Blocked state. */
						( void ) uxListRemove( &( pxTCB->xGenericListItem ) );
80002960:	fe042783          	lw	a5,-32(s0)
80002964:	00478793          	addi	a5,a5,4
80002968:	00078513          	mv	a0,a5
8000296c:	bf0ff0ef          	jal	ra,80001d5c <uxListRemove>
/casa/workspace/Chronos-RISCV6/FreeRTOS/Debug/../FreeRTOS/tasks.c:2014

						/* Is the task waiting on an event also?  If so remove
						it from the event list. */
						if( listLIST_ITEM_CONTAINER( &( pxTCB->xEventListItem ) ) != NULL )
80002970:	fe042783          	lw	a5,-32(s0)
80002974:	0287a783          	lw	a5,40(a5)
80002978:	00078a63          	beqz	a5,8000298c <xTaskIncrementTick+0x108>
/casa/workspace/Chronos-RISCV6/FreeRTOS/Debug/../FreeRTOS/tasks.c:2016
						{
							( void ) uxListRemove( &( pxTCB->xEventListItem ) );
8000297c:	fe042783          	lw	a5,-32(s0)
80002980:	01878793          	addi	a5,a5,24
80002984:	00078513          	mv	a0,a5
80002988:	bd4ff0ef          	jal	ra,80001d5c <uxListRemove>
/casa/workspace/Chronos-RISCV6/FreeRTOS/Debug/../FreeRTOS/tasks.c:2025
							mtCOVERAGE_TEST_MARKER();
						}

						/* Place the unblocked task into the appropriate ready
						list. */
						prvAddTaskToReadyList( pxTCB );
8000298c:	fe042783          	lw	a5,-32(s0)
80002990:	02c7a703          	lw	a4,44(a5)
80002994:	9441a783          	lw	a5,-1724(gp) # 80009674 <uxTopReadyPriority>
80002998:	00e7f863          	bleu	a4,a5,800029a8 <xTaskIncrementTick+0x124>
/casa/workspace/Chronos-RISCV6/FreeRTOS/Debug/../FreeRTOS/tasks.c:2025 (discriminator 1)
8000299c:	fe042783          	lw	a5,-32(s0)
800029a0:	02c7a703          	lw	a4,44(a5)
800029a4:	94e1a223          	sw	a4,-1724(gp) # 80009674 <uxTopReadyPriority>
/casa/workspace/Chronos-RISCV6/FreeRTOS/Debug/../FreeRTOS/tasks.c:2025 (discriminator 3)
800029a8:	fe042783          	lw	a5,-32(s0)
800029ac:	02c7a703          	lw	a4,44(a5)
800029b0:	00070793          	mv	a5,a4
800029b4:	00279793          	slli	a5,a5,0x2
800029b8:	00e787b3          	add	a5,a5,a4
800029bc:	00279793          	slli	a5,a5,0x2
800029c0:	80022737          	lui	a4,0x80022
800029c4:	6d070713          	addi	a4,a4,1744 # 800226d0 <__stack_top+0xfffdb740>
800029c8:	00e78733          	add	a4,a5,a4
800029cc:	fe042783          	lw	a5,-32(s0)
800029d0:	00478793          	addi	a5,a5,4
800029d4:	00078593          	mv	a1,a5
800029d8:	00070513          	mv	a0,a4
800029dc:	a24ff0ef          	jal	ra,80001c00 <vListInsertEnd>
/casa/workspace/Chronos-RISCV6/FreeRTOS/Debug/../FreeRTOS/tasks.c:2035 (discriminator 3)
						{
							/* Preemption is on, but a context switch should
							only be performed if the unblocked task has a
							priority that is equal to or higher than the
							currently executing task. */
							if( pxTCB->uxPriority >= pxCurrentTCB->uxPriority )
800029e0:	fe042783          	lw	a5,-32(s0)
800029e4:	02c7a703          	lw	a4,44(a5)
800029e8:	92c1a783          	lw	a5,-1748(gp) # 8000965c <pxCurrentTCB>
800029ec:	02c7a783          	lw	a5,44(a5)
800029f0:	f0f76ae3          	bltu	a4,a5,80002904 <xTaskIncrementTick+0x80>
/casa/workspace/Chronos-RISCV6/FreeRTOS/Debug/../FreeRTOS/tasks.c:2037
							{
								xSwitchRequired = pdTRUE;
800029f4:	00100793          	li	a5,1
800029f8:	fef42623          	sw	a5,-20(s0)
/casa/workspace/Chronos-RISCV6/FreeRTOS/Debug/../FreeRTOS/tasks.c:1975
					if( listLIST_IS_EMPTY( pxDelayedTaskList ) != pdFALSE )
800029fc:	f09ff06f          	j	80002904 <xTaskIncrementTick+0x80>
/casa/workspace/Chronos-RISCV6/FreeRTOS/Debug/../FreeRTOS/tasks.c:2055
		/* Tasks of equal priority to the currently running task will share
		processing time (time slice) if preemption is on, and the application
		writer has not explicitly turned time slicing off. */
		#if ( ( configUSE_PREEMPTION == 1 ) && ( configUSE_TIME_SLICING == 1 ) )
		{
			if( listCURRENT_LIST_LENGTH( &( pxReadyTasksLists[ pxCurrentTCB->uxPriority ] ) ) > ( UBaseType_t ) 1 )
80002a00:	92c1a783          	lw	a5,-1748(gp) # 8000965c <pxCurrentTCB>
80002a04:	02c7a703          	lw	a4,44(a5)
80002a08:	800226b7          	lui	a3,0x80022
80002a0c:	00070793          	mv	a5,a4
80002a10:	00279793          	slli	a5,a5,0x2
80002a14:	00e787b3          	add	a5,a5,a4
80002a18:	00279793          	slli	a5,a5,0x2
80002a1c:	6d068713          	addi	a4,a3,1744 # 800226d0 <__stack_top+0xfffdb740>
80002a20:	00e787b3          	add	a5,a5,a4
80002a24:	0007a703          	lw	a4,0(a5)
80002a28:	00100793          	li	a5,1
80002a2c:	00e7fe63          	bleu	a4,a5,80002a48 <xTaskIncrementTick+0x1c4>
/casa/workspace/Chronos-RISCV6/FreeRTOS/Debug/../FreeRTOS/tasks.c:2057
			{
				xSwitchRequired = pdTRUE;
80002a30:	00100793          	li	a5,1
80002a34:	fef42623          	sw	a5,-20(s0)
80002a38:	0100006f          	j	80002a48 <xTaskIncrementTick+0x1c4>
/casa/workspace/Chronos-RISCV6/FreeRTOS/Debug/../FreeRTOS/tasks.c:2083
		}
		#endif /* configUSE_TICK_HOOK */
	}
	else
	{
		++uxPendedTicks;
80002a3c:	94c1a783          	lw	a5,-1716(gp) # 8000967c <uxPendedTicks>
80002a40:	00178713          	addi	a4,a5,1
80002a44:	94e1a623          	sw	a4,-1716(gp) # 8000967c <uxPendedTicks>
/casa/workspace/Chronos-RISCV6/FreeRTOS/Debug/../FreeRTOS/tasks.c:2096
		#endif
	}

	#if ( configUSE_PREEMPTION == 1 )
	{
		if( xYieldPending != pdFALSE )
80002a48:	9501a783          	lw	a5,-1712(gp) # 80009680 <xYieldPending>
80002a4c:	00078663          	beqz	a5,80002a58 <xTaskIncrementTick+0x1d4>
/casa/workspace/Chronos-RISCV6/FreeRTOS/Debug/../FreeRTOS/tasks.c:2098
		{
			xSwitchRequired = pdTRUE;
80002a50:	00100793          	li	a5,1
80002a54:	fef42623          	sw	a5,-20(s0)
/casa/workspace/Chronos-RISCV6/FreeRTOS/Debug/../FreeRTOS/tasks.c:2107
			mtCOVERAGE_TEST_MARKER();
		}
	}
	#endif /* configUSE_PREEMPTION */

	return xSwitchRequired;
80002a58:	fec42783          	lw	a5,-20(s0)
/casa/workspace/Chronos-RISCV6/FreeRTOS/Debug/../FreeRTOS/tasks.c:2108
}
80002a5c:	00078513          	mv	a0,a5
80002a60:	02c12083          	lw	ra,44(sp)
80002a64:	02812403          	lw	s0,40(sp)
80002a68:	03010113          	addi	sp,sp,48
80002a6c:	00008067          	ret

80002a70 <vTaskSwitchContext>:
vTaskSwitchContext():
/casa/workspace/Chronos-RISCV6/FreeRTOS/Debug/../FreeRTOS/tasks.c:2202

#endif /* configUSE_APPLICATION_TASK_TAG */
/*-----------------------------------------------------------*/

void vTaskSwitchContext( void )
{
80002a70:	fe010113          	addi	sp,sp,-32
80002a74:	00812e23          	sw	s0,28(sp)
80002a78:	02010413          	addi	s0,sp,32
/casa/workspace/Chronos-RISCV6/FreeRTOS/Debug/../FreeRTOS/tasks.c:2203
	if( uxSchedulerSuspended != ( UBaseType_t ) pdFALSE )
80002a7c:	9601a783          	lw	a5,-1696(gp) # 80009690 <uxSchedulerSuspended>
80002a80:	00078863          	beqz	a5,80002a90 <vTaskSwitchContext+0x20>
/casa/workspace/Chronos-RISCV6/FreeRTOS/Debug/../FreeRTOS/tasks.c:2207
	{
		/* The scheduler is currently suspended - do not allow a context
		switch. */
		xYieldPending = pdTRUE;
80002a84:	00100713          	li	a4,1
80002a88:	94e1a823          	sw	a4,-1712(gp) # 80009680 <xYieldPending>
/casa/workspace/Chronos-RISCV6/FreeRTOS/Debug/../FreeRTOS/tasks.c:2257
			structure specific to this task. */
			_impure_ptr = &( pxCurrentTCB->xNewLib_reent );
		}
		#endif /* configUSE_NEWLIB_REENTRANT */
	}
}
80002a8c:	0c00006f          	j	80002b4c <vTaskSwitchContext+0xdc>
/casa/workspace/Chronos-RISCV6/FreeRTOS/Debug/../FreeRTOS/tasks.c:2211
		xYieldPending = pdFALSE;
80002a90:	9401a823          	sw	zero,-1712(gp) # 80009680 <xYieldPending>
/casa/workspace/Chronos-RISCV6/FreeRTOS/Debug/../FreeRTOS/tasks.c:2246
		taskSELECT_HIGHEST_PRIORITY_TASK();
80002a94:	0200006f          	j	80002ab4 <vTaskSwitchContext+0x44>
/casa/workspace/Chronos-RISCV6/FreeRTOS/Debug/../FreeRTOS/tasks.c:2246 (discriminator 4)
80002a98:	9441a783          	lw	a5,-1724(gp) # 80009674 <uxTopReadyPriority>
80002a9c:	00079663          	bnez	a5,80002aa8 <vTaskSwitchContext+0x38>
/casa/workspace/Chronos-RISCV6/FreeRTOS/Debug/../FreeRTOS/tasks.c:2246 (discriminator 1)
80002aa0:	30047073          	csrci	mstatus,8
80002aa4:	0000006f          	j	80002aa4 <vTaskSwitchContext+0x34>
/casa/workspace/Chronos-RISCV6/FreeRTOS/Debug/../FreeRTOS/tasks.c:2246 (discriminator 2)
80002aa8:	9441a783          	lw	a5,-1724(gp) # 80009674 <uxTopReadyPriority>
80002aac:	fff78713          	addi	a4,a5,-1
80002ab0:	94e1a223          	sw	a4,-1724(gp) # 80009674 <uxTopReadyPriority>
/casa/workspace/Chronos-RISCV6/FreeRTOS/Debug/../FreeRTOS/tasks.c:2246 (discriminator 3)
80002ab4:	9441a703          	lw	a4,-1724(gp) # 80009674 <uxTopReadyPriority>
80002ab8:	800226b7          	lui	a3,0x80022
80002abc:	00070793          	mv	a5,a4
80002ac0:	00279793          	slli	a5,a5,0x2
80002ac4:	00e787b3          	add	a5,a5,a4
80002ac8:	00279793          	slli	a5,a5,0x2
80002acc:	6d068713          	addi	a4,a3,1744 # 800226d0 <__stack_top+0xfffdb740>
80002ad0:	00e787b3          	add	a5,a5,a4
80002ad4:	0007a783          	lw	a5,0(a5)
80002ad8:	fc0780e3          	beqz	a5,80002a98 <vTaskSwitchContext+0x28>
/casa/workspace/Chronos-RISCV6/FreeRTOS/Debug/../FreeRTOS/tasks.c:2246 (discriminator 5)
80002adc:	9441a703          	lw	a4,-1724(gp) # 80009674 <uxTopReadyPriority>
80002ae0:	00070793          	mv	a5,a4
80002ae4:	00279793          	slli	a5,a5,0x2
80002ae8:	00e787b3          	add	a5,a5,a4
80002aec:	00279793          	slli	a5,a5,0x2
80002af0:	80022737          	lui	a4,0x80022
80002af4:	6d070713          	addi	a4,a4,1744 # 800226d0 <__stack_top+0xfffdb740>
80002af8:	00e787b3          	add	a5,a5,a4
80002afc:	fef42623          	sw	a5,-20(s0)
80002b00:	fec42783          	lw	a5,-20(s0)
80002b04:	0047a783          	lw	a5,4(a5)
80002b08:	0047a703          	lw	a4,4(a5)
80002b0c:	fec42783          	lw	a5,-20(s0)
80002b10:	00e7a223          	sw	a4,4(a5)
80002b14:	fec42783          	lw	a5,-20(s0)
80002b18:	0047a703          	lw	a4,4(a5)
80002b1c:	fec42783          	lw	a5,-20(s0)
80002b20:	00878793          	addi	a5,a5,8
80002b24:	00f71c63          	bne	a4,a5,80002b3c <vTaskSwitchContext+0xcc>
/casa/workspace/Chronos-RISCV6/FreeRTOS/Debug/../FreeRTOS/tasks.c:2246 (discriminator 6)
80002b28:	fec42783          	lw	a5,-20(s0)
80002b2c:	0047a783          	lw	a5,4(a5)
80002b30:	0047a703          	lw	a4,4(a5)
80002b34:	fec42783          	lw	a5,-20(s0)
80002b38:	00e7a223          	sw	a4,4(a5)
/casa/workspace/Chronos-RISCV6/FreeRTOS/Debug/../FreeRTOS/tasks.c:2246 (discriminator 8)
80002b3c:	fec42783          	lw	a5,-20(s0)
80002b40:	0047a783          	lw	a5,4(a5)
80002b44:	00c7a703          	lw	a4,12(a5)
80002b48:	92e1a623          	sw	a4,-1748(gp) # 8000965c <pxCurrentTCB>
/casa/workspace/Chronos-RISCV6/FreeRTOS/Debug/../FreeRTOS/tasks.c:2257
}
80002b4c:	00000013          	nop
80002b50:	01c12403          	lw	s0,28(sp)
80002b54:	02010113          	addi	sp,sp,32
80002b58:	00008067          	ret

80002b5c <prvIdleTask>:
prvIdleTask():
/casa/workspace/Chronos-RISCV6/FreeRTOS/Debug/../FreeRTOS/tasks.c:2689
 *
 * void prvIdleTask( void *pvParameters );
 *
 */
static portTASK_FUNCTION( prvIdleTask, pvParameters )
{
80002b5c:	fe010113          	addi	sp,sp,-32
80002b60:	00112e23          	sw	ra,28(sp)
80002b64:	00812c23          	sw	s0,24(sp)
80002b68:	02010413          	addi	s0,sp,32
80002b6c:	fea42623          	sw	a0,-20(s0)
/casa/workspace/Chronos-RISCV6/FreeRTOS/Debug/../FreeRTOS/tasks.c:2696
	( void ) pvParameters;

	for( ;; )
	{
		/* See if any tasks have been deleted. */
		prvCheckTasksWaitingTermination();
80002b70:	218000ef          	jal	ra,80002d88 <prvCheckTasksWaitingTermination>
/casa/workspace/Chronos-RISCV6/FreeRTOS/Debug/../FreeRTOS/tasks.c:2719

			A critical region is not required here as we are just reading from
			the list, and an occasional incorrect value will not matter.  If
			the ready list at the idle priority contains more than one task
			then a task other than the idle task is ready to execute. */
			if( listCURRENT_LIST_LENGTH( &( pxReadyTasksLists[ tskIDLE_PRIORITY ] ) ) > ( UBaseType_t ) 1 )
80002b74:	800227b7          	lui	a5,0x80022
80002b78:	6d07a703          	lw	a4,1744(a5) # 800226d0 <__stack_top+0xfffdb740>
80002b7c:	00100793          	li	a5,1
80002b80:	00e7f463          	bleu	a4,a5,80002b88 <prvIdleTask+0x2c>
/casa/workspace/Chronos-RISCV6/FreeRTOS/Debug/../FreeRTOS/tasks.c:2721
			{
				taskYIELD();
80002b84:	fc9fe0ef          	jal	ra,80001b4c <vPortYield>
/casa/workspace/Chronos-RISCV6/FreeRTOS/Debug/../FreeRTOS/tasks.c:2739
			/* Call the user defined function from within the idle task.  This
			allows the application designer to add background functionality
			without the overhead of a separate task.
			NOTE: vApplicationIdleHook() MUST NOT, UNDER ANY CIRCUMSTANCES,
			CALL A FUNCTION THAT MIGHT BLOCK. */
			vApplicationIdleHook();
80002b88:	2f8050ef          	jal	ra,80007e80 <vApplicationIdleHook>
/casa/workspace/Chronos-RISCV6/FreeRTOS/Debug/../FreeRTOS/tasks.c:2696
		prvCheckTasksWaitingTermination();
80002b8c:	fe5ff06f          	j	80002b70 <prvIdleTask+0x14>

80002b90 <prvInitialiseTCBVariables>:
prvInitialiseTCBVariables():
/casa/workspace/Chronos-RISCV6/FreeRTOS/Debug/../FreeRTOS/tasks.c:2832

#endif /* configUSE_TICKLESS_IDLE */
/*-----------------------------------------------------------*/

static void prvInitialiseTCBVariables( TCB_t * const pxTCB, const char * const pcName, UBaseType_t uxPriority, const MemoryRegion_t * const xRegions, const uint16_t usStackDepth ) /*lint !e971 Unqualified char types are allowed for strings and single characters only. */
{
80002b90:	fc010113          	addi	sp,sp,-64
80002b94:	02112e23          	sw	ra,60(sp)
80002b98:	02812c23          	sw	s0,56(sp)
80002b9c:	04010413          	addi	s0,sp,64
80002ba0:	fca42e23          	sw	a0,-36(s0)
80002ba4:	fcb42c23          	sw	a1,-40(s0)
80002ba8:	fcc42a23          	sw	a2,-44(s0)
80002bac:	fcd42823          	sw	a3,-48(s0)
80002bb0:	00070793          	mv	a5,a4
80002bb4:	fcf41723          	sh	a5,-50(s0)
/casa/workspace/Chronos-RISCV6/FreeRTOS/Debug/../FreeRTOS/tasks.c:2836
UBaseType_t x;

	/* Store the task name in the TCB. */
	for( x = ( UBaseType_t ) 0; x < ( UBaseType_t ) configMAX_TASK_NAME_LEN; x++ )
80002bb8:	fe042623          	sw	zero,-20(s0)
80002bbc:	0440006f          	j	80002c00 <prvInitialiseTCBVariables+0x70>
/casa/workspace/Chronos-RISCV6/FreeRTOS/Debug/../FreeRTOS/tasks.c:2838
	{
		pxTCB->pcTaskName[ x ] = pcName[ x ];
80002bc0:	fd842703          	lw	a4,-40(s0)
80002bc4:	fec42783          	lw	a5,-20(s0)
80002bc8:	00f707b3          	add	a5,a4,a5
80002bcc:	00078703          	lb	a4,0(a5)
80002bd0:	fdc42683          	lw	a3,-36(s0)
80002bd4:	fec42783          	lw	a5,-20(s0)
80002bd8:	00f687b3          	add	a5,a3,a5
80002bdc:	02e78a23          	sb	a4,52(a5)
/casa/workspace/Chronos-RISCV6/FreeRTOS/Debug/../FreeRTOS/tasks.c:2843

		/* Don't copy all configMAX_TASK_NAME_LEN if the string is shorter than
		configMAX_TASK_NAME_LEN characters just in case the memory after the
		string is not accessible (extremely unlikely). */
		if( pcName[ x ] == 0x00 )
80002be0:	fd842703          	lw	a4,-40(s0)
80002be4:	fec42783          	lw	a5,-20(s0)
80002be8:	00f707b3          	add	a5,a4,a5
80002bec:	00078783          	lb	a5,0(a5)
80002bf0:	02078063          	beqz	a5,80002c10 <prvInitialiseTCBVariables+0x80>
/casa/workspace/Chronos-RISCV6/FreeRTOS/Debug/../FreeRTOS/tasks.c:2836 (discriminator 2)
	for( x = ( UBaseType_t ) 0; x < ( UBaseType_t ) configMAX_TASK_NAME_LEN; x++ )
80002bf4:	fec42783          	lw	a5,-20(s0)
80002bf8:	00178793          	addi	a5,a5,1
80002bfc:	fef42623          	sw	a5,-20(s0)
/casa/workspace/Chronos-RISCV6/FreeRTOS/Debug/../FreeRTOS/tasks.c:2836 (discriminator 1)
80002c00:	fec42703          	lw	a4,-20(s0)
80002c04:	00f00793          	li	a5,15
80002c08:	fae7fce3          	bleu	a4,a5,80002bc0 <prvInitialiseTCBVariables+0x30>
80002c0c:	0080006f          	j	80002c14 <prvInitialiseTCBVariables+0x84>
/casa/workspace/Chronos-RISCV6/FreeRTOS/Debug/../FreeRTOS/tasks.c:2845
		{
			break;
80002c10:	00000013          	nop
/casa/workspace/Chronos-RISCV6/FreeRTOS/Debug/../FreeRTOS/tasks.c:2855
		}
	}

	/* Ensure the name string is terminated in the case that the string length
	was greater or equal to configMAX_TASK_NAME_LEN. */
	pxTCB->pcTaskName[ configMAX_TASK_NAME_LEN - 1 ] = '\0';
80002c14:	fdc42783          	lw	a5,-36(s0)
80002c18:	040781a3          	sb	zero,67(a5)
/casa/workspace/Chronos-RISCV6/FreeRTOS/Debug/../FreeRTOS/tasks.c:2859

	/* This is used as an array index so must ensure it's not too large.  First
	remove the privilege bit if one is present. */
	if( uxPriority >= ( UBaseType_t ) configMAX_PRIORITIES )
80002c1c:	fd442703          	lw	a4,-44(s0)
80002c20:	00400793          	li	a5,4
80002c24:	00e7f663          	bleu	a4,a5,80002c30 <prvInitialiseTCBVariables+0xa0>
/casa/workspace/Chronos-RISCV6/FreeRTOS/Debug/../FreeRTOS/tasks.c:2861
	{
		uxPriority = ( UBaseType_t ) configMAX_PRIORITIES - ( UBaseType_t ) 1U;
80002c28:	00400793          	li	a5,4
80002c2c:	fcf42a23          	sw	a5,-44(s0)
/casa/workspace/Chronos-RISCV6/FreeRTOS/Debug/../FreeRTOS/tasks.c:2868
	else
	{
		mtCOVERAGE_TEST_MARKER();
	}

	pxTCB->uxPriority = uxPriority;
80002c30:	fdc42783          	lw	a5,-36(s0)
80002c34:	fd442703          	lw	a4,-44(s0)
80002c38:	02e7a623          	sw	a4,44(a5)
/casa/workspace/Chronos-RISCV6/FreeRTOS/Debug/../FreeRTOS/tasks.c:2871
	#if ( configUSE_MUTEXES == 1 )
	{
		pxTCB->uxBasePriority = uxPriority;
80002c3c:	fdc42783          	lw	a5,-36(s0)
80002c40:	fd442703          	lw	a4,-44(s0)
80002c44:	04e7a823          	sw	a4,80(a5)
/casa/workspace/Chronos-RISCV6/FreeRTOS/Debug/../FreeRTOS/tasks.c:2872
		pxTCB->uxMutexesHeld = 0;
80002c48:	fdc42783          	lw	a5,-36(s0)
80002c4c:	0407aa23          	sw	zero,84(a5)
/casa/workspace/Chronos-RISCV6/FreeRTOS/Debug/../FreeRTOS/tasks.c:2876
	}
	#endif /* configUSE_MUTEXES */

	vListInitialiseItem( &( pxTCB->xGenericListItem ) );
80002c50:	fdc42783          	lw	a5,-36(s0)
80002c54:	00478793          	addi	a5,a5,4
80002c58:	00078513          	mv	a0,a5
80002c5c:	f7dfe0ef          	jal	ra,80001bd8 <vListInitialiseItem>
/casa/workspace/Chronos-RISCV6/FreeRTOS/Debug/../FreeRTOS/tasks.c:2877
	vListInitialiseItem( &( pxTCB->xEventListItem ) );
80002c60:	fdc42783          	lw	a5,-36(s0)
80002c64:	01878793          	addi	a5,a5,24
80002c68:	00078513          	mv	a0,a5
80002c6c:	f6dfe0ef          	jal	ra,80001bd8 <vListInitialiseItem>
/casa/workspace/Chronos-RISCV6/FreeRTOS/Debug/../FreeRTOS/tasks.c:2881

	/* Set the pxTCB as a link back from the ListItem_t.  This is so we can get
	back to	the containing TCB from a generic item in a list. */
	listSET_LIST_ITEM_OWNER( &( pxTCB->xGenericListItem ), pxTCB );
80002c70:	fdc42783          	lw	a5,-36(s0)
80002c74:	fdc42703          	lw	a4,-36(s0)
80002c78:	00e7a823          	sw	a4,16(a5)
/casa/workspace/Chronos-RISCV6/FreeRTOS/Debug/../FreeRTOS/tasks.c:2884

	/* Event lists are always in priority order. */
	listSET_LIST_ITEM_VALUE( &( pxTCB->xEventListItem ), ( TickType_t ) configMAX_PRIORITIES - ( TickType_t ) uxPriority ); /*lint !e961 MISRA exception as the casts are only redundant for some ports. */
80002c7c:	00500713          	li	a4,5
80002c80:	fd442783          	lw	a5,-44(s0)
80002c84:	40f70733          	sub	a4,a4,a5
80002c88:	fdc42783          	lw	a5,-36(s0)
80002c8c:	00e7ac23          	sw	a4,24(a5)
/casa/workspace/Chronos-RISCV6/FreeRTOS/Debug/../FreeRTOS/tasks.c:2885
	listSET_LIST_ITEM_OWNER( &( pxTCB->xEventListItem ), pxTCB );
80002c90:	fdc42783          	lw	a5,-36(s0)
80002c94:	fdc42703          	lw	a4,-36(s0)
80002c98:	02e7a223          	sw	a4,36(a5)
/casa/workspace/Chronos-RISCV6/FreeRTOS/Debug/../FreeRTOS/tasks.c:2889

	#if ( portCRITICAL_NESTING_IN_TCB == 1 )
	{
		pxTCB->uxCriticalNesting = ( UBaseType_t ) 0U;
80002c9c:	fdc42783          	lw	a5,-36(s0)
80002ca0:	0407a223          	sw	zero,68(a5)
/casa/workspace/Chronos-RISCV6/FreeRTOS/Debug/../FreeRTOS/tasks.c:2927
	}
	#endif

	#if ( configUSE_TASK_NOTIFICATIONS == 1 )
	{
		pxTCB->ulNotifiedValue = 0;
80002ca4:	fdc42783          	lw	a5,-36(s0)
80002ca8:	0407ac23          	sw	zero,88(a5)
/casa/workspace/Chronos-RISCV6/FreeRTOS/Debug/../FreeRTOS/tasks.c:2928
		pxTCB->eNotifyState = eNotWaitingNotification;
80002cac:	fdc42783          	lw	a5,-36(s0)
80002cb0:	0407ae23          	sw	zero,92(a5)
/casa/workspace/Chronos-RISCV6/FreeRTOS/Debug/../FreeRTOS/tasks.c:2938
	{
		/* Initialise this task's Newlib reent structure. */
		_REENT_INIT_PTR( ( &( pxTCB->xNewLib_reent ) ) );
	}
	#endif /* configUSE_NEWLIB_REENTRANT */
}
80002cb4:	00000013          	nop
80002cb8:	03c12083          	lw	ra,60(sp)
80002cbc:	03812403          	lw	s0,56(sp)
80002cc0:	04010113          	addi	sp,sp,64
80002cc4:	00008067          	ret

80002cc8 <prvInitialiseTaskLists>:
prvInitialiseTaskLists():
/casa/workspace/Chronos-RISCV6/FreeRTOS/Debug/../FreeRTOS/tasks.c:2997

#endif /* portUSING_MPU_WRAPPERS */
/*-----------------------------------------------------------*/

static void prvInitialiseTaskLists( void )
{
80002cc8:	fe010113          	addi	sp,sp,-32
80002ccc:	00112e23          	sw	ra,28(sp)
80002cd0:	00812c23          	sw	s0,24(sp)
80002cd4:	02010413          	addi	s0,sp,32
/casa/workspace/Chronos-RISCV6/FreeRTOS/Debug/../FreeRTOS/tasks.c:3000
UBaseType_t uxPriority;

	for( uxPriority = ( UBaseType_t ) 0U; uxPriority < ( UBaseType_t ) configMAX_PRIORITIES; uxPriority++ )
80002cd8:	fe042623          	sw	zero,-20(s0)
80002cdc:	0380006f          	j	80002d14 <prvInitialiseTaskLists+0x4c>
/casa/workspace/Chronos-RISCV6/FreeRTOS/Debug/../FreeRTOS/tasks.c:3002 (discriminator 3)
	{
		vListInitialise( &( pxReadyTasksLists[ uxPriority ] ) );
80002ce0:	fec42703          	lw	a4,-20(s0)
80002ce4:	00070793          	mv	a5,a4
80002ce8:	00279793          	slli	a5,a5,0x2
80002cec:	00e787b3          	add	a5,a5,a4
80002cf0:	00279793          	slli	a5,a5,0x2
80002cf4:	80022737          	lui	a4,0x80022
80002cf8:	6d070713          	addi	a4,a4,1744 # 800226d0 <__stack_top+0xfffdb740>
80002cfc:	00e787b3          	add	a5,a5,a4
80002d00:	00078513          	mv	a0,a5
80002d04:	e71fe0ef          	jal	ra,80001b74 <vListInitialise>
/casa/workspace/Chronos-RISCV6/FreeRTOS/Debug/../FreeRTOS/tasks.c:3000 (discriminator 3)
	for( uxPriority = ( UBaseType_t ) 0U; uxPriority < ( UBaseType_t ) configMAX_PRIORITIES; uxPriority++ )
80002d08:	fec42783          	lw	a5,-20(s0)
80002d0c:	00178793          	addi	a5,a5,1
80002d10:	fef42623          	sw	a5,-20(s0)
/casa/workspace/Chronos-RISCV6/FreeRTOS/Debug/../FreeRTOS/tasks.c:3000 (discriminator 1)
80002d14:	fec42703          	lw	a4,-20(s0)
80002d18:	00400793          	li	a5,4
80002d1c:	fce7f2e3          	bleu	a4,a5,80002ce0 <prvInitialiseTaskLists+0x18>
/casa/workspace/Chronos-RISCV6/FreeRTOS/Debug/../FreeRTOS/tasks.c:3005
	}

	vListInitialise( &xDelayedTaskList1 );
80002d20:	800227b7          	lui	a5,0x80022
80002d24:	73478513          	addi	a0,a5,1844 # 80022734 <__stack_top+0xfffdb7a4>
80002d28:	e4dfe0ef          	jal	ra,80001b74 <vListInitialise>
/casa/workspace/Chronos-RISCV6/FreeRTOS/Debug/../FreeRTOS/tasks.c:3006
	vListInitialise( &xDelayedTaskList2 );
80002d2c:	800227b7          	lui	a5,0x80022
80002d30:	74878513          	addi	a0,a5,1864 # 80022748 <__stack_top+0xfffdb7b8>
80002d34:	e41fe0ef          	jal	ra,80001b74 <vListInitialise>
/casa/workspace/Chronos-RISCV6/FreeRTOS/Debug/../FreeRTOS/tasks.c:3007
	vListInitialise( &xPendingReadyList );
80002d38:	800227b7          	lui	a5,0x80022
80002d3c:	75c78513          	addi	a0,a5,1884 # 8002275c <__stack_top+0xfffdb7cc>
80002d40:	e35fe0ef          	jal	ra,80001b74 <vListInitialise>
/casa/workspace/Chronos-RISCV6/FreeRTOS/Debug/../FreeRTOS/tasks.c:3011

	#if ( INCLUDE_vTaskDelete == 1 )
	{
		vListInitialise( &xTasksWaitingTermination );
80002d44:	800227b7          	lui	a5,0x80022
80002d48:	77078513          	addi	a0,a5,1904 # 80022770 <__stack_top+0xfffdb7e0>
80002d4c:	e29fe0ef          	jal	ra,80001b74 <vListInitialise>
/casa/workspace/Chronos-RISCV6/FreeRTOS/Debug/../FreeRTOS/tasks.c:3017
	}
	#endif /* INCLUDE_vTaskDelete */

	#if ( INCLUDE_vTaskSuspend == 1 )
	{
		vListInitialise( &xSuspendedTaskList );
80002d50:	800227b7          	lui	a5,0x80022
80002d54:	78478513          	addi	a0,a5,1924 # 80022784 <__stack_top+0xfffdb7f4>
80002d58:	e1dfe0ef          	jal	ra,80001b74 <vListInitialise>
/casa/workspace/Chronos-RISCV6/FreeRTOS/Debug/../FreeRTOS/tasks.c:3023
	}
	#endif /* INCLUDE_vTaskSuspend */

	/* Start with pxDelayedTaskList using list1 and the pxOverflowDelayedTaskList
	using list2. */
	pxDelayedTaskList = &xDelayedTaskList1;
80002d5c:	80022737          	lui	a4,0x80022
80002d60:	73470713          	addi	a4,a4,1844 # 80022734 <__stack_top+0xfffdb7a4>
80002d64:	92e1a823          	sw	a4,-1744(gp) # 80009660 <pxDelayedTaskList>
/casa/workspace/Chronos-RISCV6/FreeRTOS/Debug/../FreeRTOS/tasks.c:3024
	pxOverflowDelayedTaskList = &xDelayedTaskList2;
80002d68:	80022737          	lui	a4,0x80022
80002d6c:	74870713          	addi	a4,a4,1864 # 80022748 <__stack_top+0xfffdb7b8>
80002d70:	92e1aa23          	sw	a4,-1740(gp) # 80009664 <pxOverflowDelayedTaskList>
/casa/workspace/Chronos-RISCV6/FreeRTOS/Debug/../FreeRTOS/tasks.c:3025
}
80002d74:	00000013          	nop
80002d78:	01c12083          	lw	ra,28(sp)
80002d7c:	01812403          	lw	s0,24(sp)
80002d80:	02010113          	addi	sp,sp,32
80002d84:	00008067          	ret

80002d88 <prvCheckTasksWaitingTermination>:
prvCheckTasksWaitingTermination():
/casa/workspace/Chronos-RISCV6/FreeRTOS/Debug/../FreeRTOS/tasks.c:3029
/*-----------------------------------------------------------*/

static void prvCheckTasksWaitingTermination( void )
{
80002d88:	fe010113          	addi	sp,sp,-32
80002d8c:	00112e23          	sw	ra,28(sp)
80002d90:	00812c23          	sw	s0,24(sp)
80002d94:	02010413          	addi	s0,sp,32
/casa/workspace/Chronos-RISCV6/FreeRTOS/Debug/../FreeRTOS/tasks.c:3036
	{
		BaseType_t xListIsEmpty;

		/* ucTasksDeleted is used to prevent vTaskSuspendAll() being called
		too often in the idle task. */
		while( uxTasksDeleted > ( UBaseType_t ) 0U )
80002d98:	0740006f          	j	80002e0c <prvCheckTasksWaitingTermination+0x84>
/casa/workspace/Chronos-RISCV6/FreeRTOS/Debug/../FreeRTOS/tasks.c:3038
		{
			vTaskSuspendAll();
80002d9c:	929ff0ef          	jal	ra,800026c4 <vTaskSuspendAll>
/casa/workspace/Chronos-RISCV6/FreeRTOS/Debug/../FreeRTOS/tasks.c:3040
			{
				xListIsEmpty = listLIST_IS_EMPTY( &xTasksWaitingTermination );
80002da0:	800227b7          	lui	a5,0x80022
80002da4:	7707a783          	lw	a5,1904(a5) # 80022770 <__stack_top+0xfffdb7e0>
80002da8:	0017b793          	seqz	a5,a5
80002dac:	0ff7f793          	andi	a5,a5,255
80002db0:	fef42623          	sw	a5,-20(s0)
/casa/workspace/Chronos-RISCV6/FreeRTOS/Debug/../FreeRTOS/tasks.c:3042
			}
			( void ) xTaskResumeAll();
80002db4:	939ff0ef          	jal	ra,800026ec <xTaskResumeAll>
/casa/workspace/Chronos-RISCV6/FreeRTOS/Debug/../FreeRTOS/tasks.c:3044

			if( xListIsEmpty == pdFALSE )
80002db8:	fec42783          	lw	a5,-20(s0)
80002dbc:	04079863          	bnez	a5,80002e0c <prvCheckTasksWaitingTermination+0x84>
/casa/workspace/Chronos-RISCV6/FreeRTOS/Debug/../FreeRTOS/tasks.c:3048
			{
				TCB_t *pxTCB;

				taskENTER_CRITICAL();
80002dc0:	851fe0ef          	jal	ra,80001610 <vPortEnterCritical>
/casa/workspace/Chronos-RISCV6/FreeRTOS/Debug/../FreeRTOS/tasks.c:3050
				{
					pxTCB = ( TCB_t * ) listGET_OWNER_OF_HEAD_ENTRY( ( &xTasksWaitingTermination ) );
80002dc4:	800227b7          	lui	a5,0x80022
80002dc8:	77078793          	addi	a5,a5,1904 # 80022770 <__stack_top+0xfffdb7e0>
80002dcc:	00c7a783          	lw	a5,12(a5)
80002dd0:	00c7a783          	lw	a5,12(a5)
80002dd4:	fef42423          	sw	a5,-24(s0)
/casa/workspace/Chronos-RISCV6/FreeRTOS/Debug/../FreeRTOS/tasks.c:3051
					( void ) uxListRemove( &( pxTCB->xGenericListItem ) );
80002dd8:	fe842783          	lw	a5,-24(s0)
80002ddc:	00478793          	addi	a5,a5,4
80002de0:	00078513          	mv	a0,a5
80002de4:	f79fe0ef          	jal	ra,80001d5c <uxListRemove>
/casa/workspace/Chronos-RISCV6/FreeRTOS/Debug/../FreeRTOS/tasks.c:3052
					--uxCurrentNumberOfTasks;
80002de8:	93c1a783          	lw	a5,-1732(gp) # 8000966c <uxCurrentNumberOfTasks>
80002dec:	fff78713          	addi	a4,a5,-1
80002df0:	92e1ae23          	sw	a4,-1732(gp) # 8000966c <uxCurrentNumberOfTasks>
/casa/workspace/Chronos-RISCV6/FreeRTOS/Debug/../FreeRTOS/tasks.c:3053
					--uxTasksDeleted;
80002df4:	9381a783          	lw	a5,-1736(gp) # 80009668 <uxTasksDeleted>
80002df8:	fff78713          	addi	a4,a5,-1
80002dfc:	92e1ac23          	sw	a4,-1736(gp) # 80009668 <uxTasksDeleted>
/casa/workspace/Chronos-RISCV6/FreeRTOS/Debug/../FreeRTOS/tasks.c:3055
				}
				taskEXIT_CRITICAL();
80002e00:	845fe0ef          	jal	ra,80001644 <vPortExitCritical>
/casa/workspace/Chronos-RISCV6/FreeRTOS/Debug/../FreeRTOS/tasks.c:3057

				prvDeleteTCB( pxTCB );
80002e04:	fe842503          	lw	a0,-24(s0)
80002e08:	168000ef          	jal	ra,80002f70 <prvDeleteTCB>
/casa/workspace/Chronos-RISCV6/FreeRTOS/Debug/../FreeRTOS/tasks.c:3036
		while( uxTasksDeleted > ( UBaseType_t ) 0U )
80002e0c:	9381a783          	lw	a5,-1736(gp) # 80009668 <uxTasksDeleted>
80002e10:	f80796e3          	bnez	a5,80002d9c <prvCheckTasksWaitingTermination+0x14>
/casa/workspace/Chronos-RISCV6/FreeRTOS/Debug/../FreeRTOS/tasks.c:3066
				mtCOVERAGE_TEST_MARKER();
			}
		}
	}
	#endif /* vTaskDelete */
}
80002e14:	00000013          	nop
80002e18:	01c12083          	lw	ra,28(sp)
80002e1c:	01812403          	lw	s0,24(sp)
80002e20:	02010113          	addi	sp,sp,32
80002e24:	00008067          	ret

80002e28 <prvAddCurrentTaskToDelayedList>:
prvAddCurrentTaskToDelayedList():
/casa/workspace/Chronos-RISCV6/FreeRTOS/Debug/../FreeRTOS/tasks.c:3070
/*-----------------------------------------------------------*/

static void prvAddCurrentTaskToDelayedList( const TickType_t xTimeToWake )
{
80002e28:	fe010113          	addi	sp,sp,-32
80002e2c:	00112e23          	sw	ra,28(sp)
80002e30:	00812c23          	sw	s0,24(sp)
80002e34:	02010413          	addi	s0,sp,32
80002e38:	fea42623          	sw	a0,-20(s0)
/casa/workspace/Chronos-RISCV6/FreeRTOS/Debug/../FreeRTOS/tasks.c:3072
	/* The list item will be inserted in wake time order. */
	listSET_LIST_ITEM_VALUE( &( pxCurrentTCB->xGenericListItem ), xTimeToWake );
80002e3c:	92c1a783          	lw	a5,-1748(gp) # 8000965c <pxCurrentTCB>
80002e40:	fec42703          	lw	a4,-20(s0)
80002e44:	00e7a223          	sw	a4,4(a5)
/casa/workspace/Chronos-RISCV6/FreeRTOS/Debug/../FreeRTOS/tasks.c:3074

	if( xTimeToWake < xTickCount )
80002e48:	9401a783          	lw	a5,-1728(gp) # 80009670 <xTickCount>
80002e4c:	fec42703          	lw	a4,-20(s0)
80002e50:	02f77063          	bleu	a5,a4,80002e70 <prvAddCurrentTaskToDelayedList+0x48>
/casa/workspace/Chronos-RISCV6/FreeRTOS/Debug/../FreeRTOS/tasks.c:3077
	{
		/* Wake time has overflowed.  Place this item in the overflow list. */
		vListInsert( pxOverflowDelayedTaskList, &( pxCurrentTCB->xGenericListItem ) );
80002e54:	9341a703          	lw	a4,-1740(gp) # 80009664 <pxOverflowDelayedTaskList>
80002e58:	92c1a783          	lw	a5,-1748(gp) # 8000965c <pxCurrentTCB>
80002e5c:	00478793          	addi	a5,a5,4
80002e60:	00078593          	mv	a1,a5
80002e64:	00070513          	mv	a0,a4
80002e68:	e21fe0ef          	jal	ra,80001c88 <vListInsert>
/casa/workspace/Chronos-RISCV6/FreeRTOS/Debug/../FreeRTOS/tasks.c:3096
		else
		{
			mtCOVERAGE_TEST_MARKER();
		}
	}
}
80002e6c:	0300006f          	j	80002e9c <prvAddCurrentTaskToDelayedList+0x74>
/casa/workspace/Chronos-RISCV6/FreeRTOS/Debug/../FreeRTOS/tasks.c:3082
		vListInsert( pxDelayedTaskList, &( pxCurrentTCB->xGenericListItem ) );
80002e70:	9301a703          	lw	a4,-1744(gp) # 80009660 <pxDelayedTaskList>
80002e74:	92c1a783          	lw	a5,-1748(gp) # 8000965c <pxCurrentTCB>
80002e78:	00478793          	addi	a5,a5,4
80002e7c:	00078593          	mv	a1,a5
80002e80:	00070513          	mv	a0,a4
80002e84:	e05fe0ef          	jal	ra,80001c88 <vListInsert>
/casa/workspace/Chronos-RISCV6/FreeRTOS/Debug/../FreeRTOS/tasks.c:3087
		if( xTimeToWake < xNextTaskUnblockTime )
80002e88:	95c1a783          	lw	a5,-1700(gp) # 8000968c <xNextTaskUnblockTime>
80002e8c:	fec42703          	lw	a4,-20(s0)
80002e90:	00f77663          	bleu	a5,a4,80002e9c <prvAddCurrentTaskToDelayedList+0x74>
/casa/workspace/Chronos-RISCV6/FreeRTOS/Debug/../FreeRTOS/tasks.c:3089
			xNextTaskUnblockTime = xTimeToWake;
80002e94:	fec42703          	lw	a4,-20(s0)
80002e98:	94e1ae23          	sw	a4,-1700(gp) # 8000968c <xNextTaskUnblockTime>
/casa/workspace/Chronos-RISCV6/FreeRTOS/Debug/../FreeRTOS/tasks.c:3096
}
80002e9c:	00000013          	nop
80002ea0:	01c12083          	lw	ra,28(sp)
80002ea4:	01812403          	lw	s0,24(sp)
80002ea8:	02010113          	addi	sp,sp,32
80002eac:	00008067          	ret

80002eb0 <prvAllocateTCBAndStack>:
prvAllocateTCBAndStack():
/casa/workspace/Chronos-RISCV6/FreeRTOS/Debug/../FreeRTOS/tasks.c:3100
/*-----------------------------------------------------------*/

static TCB_t *prvAllocateTCBAndStack( const uint16_t usStackDepth, StackType_t * const puxStackBuffer )
{
80002eb0:	fd010113          	addi	sp,sp,-48
80002eb4:	02112623          	sw	ra,44(sp)
80002eb8:	02812423          	sw	s0,40(sp)
80002ebc:	03010413          	addi	s0,sp,48
80002ec0:	00050793          	mv	a5,a0
80002ec4:	fcb42c23          	sw	a1,-40(s0)
80002ec8:	fcf41f23          	sh	a5,-34(s0)
/casa/workspace/Chronos-RISCV6/FreeRTOS/Debug/../FreeRTOS/tasks.c:3132
	#else /* portSTACK_GROWTH */
	{
	StackType_t *pxStack;

		/* Allocate space for the stack used by the task being created. */
		pxStack = ( StackType_t * ) pvPortMallocAligned( ( ( ( size_t ) usStackDepth ) * sizeof( StackType_t ) ), puxStackBuffer ); /*lint !e961 MISRA exception as the casts are only redundant for some ports. */
80002ecc:	fd842783          	lw	a5,-40(s0)
80002ed0:	00079e63          	bnez	a5,80002eec <prvAllocateTCBAndStack+0x3c>
/casa/workspace/Chronos-RISCV6/FreeRTOS/Debug/../FreeRTOS/tasks.c:3132 (discriminator 1)
80002ed4:	fde45783          	lhu	a5,-34(s0)
80002ed8:	00279793          	slli	a5,a5,0x2
80002edc:	00078513          	mv	a0,a5
80002ee0:	bc8fe0ef          	jal	ra,800012a8 <pvPortMalloc>
80002ee4:	00050793          	mv	a5,a0
80002ee8:	0080006f          	j	80002ef0 <prvAllocateTCBAndStack+0x40>
/casa/workspace/Chronos-RISCV6/FreeRTOS/Debug/../FreeRTOS/tasks.c:3132 (discriminator 2)
80002eec:	fd842783          	lw	a5,-40(s0)
/casa/workspace/Chronos-RISCV6/FreeRTOS/Debug/../FreeRTOS/tasks.c:3132 (discriminator 4)
80002ef0:	fef42423          	sw	a5,-24(s0)
/casa/workspace/Chronos-RISCV6/FreeRTOS/Debug/../FreeRTOS/tasks.c:3134 (discriminator 4)

		if( pxStack != NULL )
80002ef4:	fe842783          	lw	a5,-24(s0)
80002ef8:	02078a63          	beqz	a5,80002f2c <prvAllocateTCBAndStack+0x7c>
/casa/workspace/Chronos-RISCV6/FreeRTOS/Debug/../FreeRTOS/tasks.c:3138
		{
			/* Allocate space for the TCB.  Where the memory comes from depends
			on the implementation of the port malloc function. */
			pxNewTCB = ( TCB_t * ) pvPortMalloc( sizeof( TCB_t ) );
80002efc:	06000513          	li	a0,96
80002f00:	ba8fe0ef          	jal	ra,800012a8 <pvPortMalloc>
80002f04:	fea42623          	sw	a0,-20(s0)
/casa/workspace/Chronos-RISCV6/FreeRTOS/Debug/../FreeRTOS/tasks.c:3140

			if( pxNewTCB != NULL )
80002f08:	fec42783          	lw	a5,-20(s0)
80002f0c:	00078a63          	beqz	a5,80002f20 <prvAllocateTCBAndStack+0x70>
/casa/workspace/Chronos-RISCV6/FreeRTOS/Debug/../FreeRTOS/tasks.c:3143
			{
				/* Store the stack location in the TCB. */
				pxNewTCB->pxStack = pxStack;
80002f10:	fec42783          	lw	a5,-20(s0)
80002f14:	fe842703          	lw	a4,-24(s0)
80002f18:	02e7a823          	sw	a4,48(a5)
80002f1c:	0140006f          	j	80002f30 <prvAllocateTCBAndStack+0x80>
/casa/workspace/Chronos-RISCV6/FreeRTOS/Debug/../FreeRTOS/tasks.c:3149
			}
			else
			{
				/* The stack cannot be used as the TCB was not created.  Free it
				again. */
				vPortFree( pxStack );
80002f20:	fe842503          	lw	a0,-24(s0)
80002f24:	d60fe0ef          	jal	ra,80001484 <vPortFree>
80002f28:	0080006f          	j	80002f30 <prvAllocateTCBAndStack+0x80>
/casa/workspace/Chronos-RISCV6/FreeRTOS/Debug/../FreeRTOS/tasks.c:3154
			}
		}
		else
		{
			pxNewTCB = NULL;
80002f2c:	fe042623          	sw	zero,-20(s0)
/casa/workspace/Chronos-RISCV6/FreeRTOS/Debug/../FreeRTOS/tasks.c:3159
		}
	}
	#endif /* portSTACK_GROWTH */

	if( pxNewTCB != NULL )
80002f30:	fec42783          	lw	a5,-20(s0)
80002f34:	02078263          	beqz	a5,80002f58 <prvAllocateTCBAndStack+0xa8>
/casa/workspace/Chronos-RISCV6/FreeRTOS/Debug/../FreeRTOS/tasks.c:3165
	{
		/* Avoid dependency on memset() if it is not required. */
		#if( ( configCHECK_FOR_STACK_OVERFLOW > 1 ) || ( configUSE_TRACE_FACILITY == 1 ) || ( INCLUDE_uxTaskGetStackHighWaterMark == 1 ) )
		{
			/* Just to help debugging. */
			( void ) memset( pxNewTCB->pxStack, ( int ) tskSTACK_FILL_BYTE, ( size_t ) usStackDepth * sizeof( StackType_t ) );
80002f38:	fec42783          	lw	a5,-20(s0)
80002f3c:	0307a703          	lw	a4,48(a5)
80002f40:	fde45783          	lhu	a5,-34(s0)
80002f44:	00279793          	slli	a5,a5,0x2
80002f48:	00078613          	mv	a2,a5
80002f4c:	0a500593          	li	a1,165
80002f50:	00070513          	mv	a0,a4
80002f54:	ea1fe0ef          	jal	ra,80001df4 <memset>
/casa/workspace/Chronos-RISCV6/FreeRTOS/Debug/../FreeRTOS/tasks.c:3170
		}
		#endif /* ( ( configCHECK_FOR_STACK_OVERFLOW > 1 ) || ( ( configUSE_TRACE_FACILITY == 1 ) || ( INCLUDE_uxTaskGetStackHighWaterMark == 1 ) ) ) */
	}

	return pxNewTCB;
80002f58:	fec42783          	lw	a5,-20(s0)
/casa/workspace/Chronos-RISCV6/FreeRTOS/Debug/../FreeRTOS/tasks.c:3171
}
80002f5c:	00078513          	mv	a0,a5
80002f60:	02c12083          	lw	ra,44(sp)
80002f64:	02812403          	lw	s0,40(sp)
80002f68:	03010113          	addi	sp,sp,48
80002f6c:	00008067          	ret

80002f70 <prvDeleteTCB>:
prvDeleteTCB():
/casa/workspace/Chronos-RISCV6/FreeRTOS/Debug/../FreeRTOS/tasks.c:3310
/*-----------------------------------------------------------*/

#if ( INCLUDE_vTaskDelete == 1 )

	static void prvDeleteTCB( TCB_t *pxTCB )
	{
80002f70:	fe010113          	addi	sp,sp,-32
80002f74:	00112e23          	sw	ra,28(sp)
80002f78:	00812c23          	sw	s0,24(sp)
80002f7c:	02010413          	addi	s0,sp,32
80002f80:	fea42623          	sw	a0,-20(s0)
/casa/workspace/Chronos-RISCV6/FreeRTOS/Debug/../FreeRTOS/tasks.c:3335
				vPortFreeAligned( pxTCB->pxStack );
			}
		}
		#else
		{
			vPortFreeAligned( pxTCB->pxStack );
80002f84:	fec42783          	lw	a5,-20(s0)
80002f88:	0307a783          	lw	a5,48(a5)
80002f8c:	00078513          	mv	a0,a5
80002f90:	cf4fe0ef          	jal	ra,80001484 <vPortFree>
/casa/workspace/Chronos-RISCV6/FreeRTOS/Debug/../FreeRTOS/tasks.c:3339
		}
		#endif

		vPortFree( pxTCB );
80002f94:	fec42503          	lw	a0,-20(s0)
80002f98:	cecfe0ef          	jal	ra,80001484 <vPortFree>
/casa/workspace/Chronos-RISCV6/FreeRTOS/Debug/../FreeRTOS/tasks.c:3340
	}
80002f9c:	00000013          	nop
80002fa0:	01c12083          	lw	ra,28(sp)
80002fa4:	01812403          	lw	s0,24(sp)
80002fa8:	02010113          	addi	sp,sp,32
80002fac:	00008067          	ret

80002fb0 <prvResetNextTaskUnblockTime>:
prvResetNextTaskUnblockTime():
/casa/workspace/Chronos-RISCV6/FreeRTOS/Debug/../FreeRTOS/tasks.c:3346

#endif /* INCLUDE_vTaskDelete */
/*-----------------------------------------------------------*/

static void prvResetNextTaskUnblockTime( void )
{
80002fb0:	fe010113          	addi	sp,sp,-32
80002fb4:	00812e23          	sw	s0,28(sp)
80002fb8:	02010413          	addi	s0,sp,32
/casa/workspace/Chronos-RISCV6/FreeRTOS/Debug/../FreeRTOS/tasks.c:3349
TCB_t *pxTCB;

	if( listLIST_IS_EMPTY( pxDelayedTaskList ) != pdFALSE )
80002fbc:	9301a783          	lw	a5,-1744(gp) # 80009660 <pxDelayedTaskList>
80002fc0:	0007a783          	lw	a5,0(a5)
80002fc4:	00079663          	bnez	a5,80002fd0 <prvResetNextTaskUnblockTime+0x20>
/casa/workspace/Chronos-RISCV6/FreeRTOS/Debug/../FreeRTOS/tasks.c:3349 (discriminator 1)
80002fc8:	00100793          	li	a5,1
80002fcc:	0080006f          	j	80002fd4 <prvResetNextTaskUnblockTime+0x24>
/casa/workspace/Chronos-RISCV6/FreeRTOS/Debug/../FreeRTOS/tasks.c:3349 (discriminator 2)
80002fd0:	00000793          	li	a5,0
/casa/workspace/Chronos-RISCV6/FreeRTOS/Debug/../FreeRTOS/tasks.c:3349 (discriminator 4)
80002fd4:	00078863          	beqz	a5,80002fe4 <prvResetNextTaskUnblockTime+0x34>
/casa/workspace/Chronos-RISCV6/FreeRTOS/Debug/../FreeRTOS/tasks.c:3355
	{
		/* The new current delayed list is empty.  Set xNextTaskUnblockTime to
		the maximum possible value so it is	extremely unlikely that the
		if( xTickCount >= xNextTaskUnblockTime ) test will pass until
		there is an item in the delayed list. */
		xNextTaskUnblockTime = portMAX_DELAY;
80002fd8:	fff00713          	li	a4,-1
80002fdc:	94e1ae23          	sw	a4,-1700(gp) # 8000968c <xNextTaskUnblockTime>
/casa/workspace/Chronos-RISCV6/FreeRTOS/Debug/../FreeRTOS/tasks.c:3366
		which the task at the head of the delayed list should be removed
		from the Blocked state. */
		( pxTCB ) = ( TCB_t * ) listGET_OWNER_OF_HEAD_ENTRY( pxDelayedTaskList );
		xNextTaskUnblockTime = listGET_LIST_ITEM_VALUE( &( ( pxTCB )->xGenericListItem ) );
	}
}
80002fe0:	0200006f          	j	80003000 <prvResetNextTaskUnblockTime+0x50>
/casa/workspace/Chronos-RISCV6/FreeRTOS/Debug/../FreeRTOS/tasks.c:3363
		( pxTCB ) = ( TCB_t * ) listGET_OWNER_OF_HEAD_ENTRY( pxDelayedTaskList );
80002fe4:	9301a783          	lw	a5,-1744(gp) # 80009660 <pxDelayedTaskList>
80002fe8:	00c7a783          	lw	a5,12(a5)
80002fec:	00c7a783          	lw	a5,12(a5)
80002ff0:	fef42623          	sw	a5,-20(s0)
/casa/workspace/Chronos-RISCV6/FreeRTOS/Debug/../FreeRTOS/tasks.c:3364
		xNextTaskUnblockTime = listGET_LIST_ITEM_VALUE( &( ( pxTCB )->xGenericListItem ) );
80002ff4:	fec42783          	lw	a5,-20(s0)
80002ff8:	0047a703          	lw	a4,4(a5)
80002ffc:	94e1ae23          	sw	a4,-1700(gp) # 8000968c <xNextTaskUnblockTime>
/casa/workspace/Chronos-RISCV6/FreeRTOS/Debug/../FreeRTOS/tasks.c:3366
}
80003000:	00000013          	nop
80003004:	01c12403          	lw	s0,28(sp)
80003008:	02010113          	addi	sp,sp,32
8000300c:	00008067          	ret

80003010 <xTaskGetCurrentTaskHandle>:
xTaskGetCurrentTaskHandle():
/casa/workspace/Chronos-RISCV6/FreeRTOS/Debug/../FreeRTOS/tasks.c:3372
/*-----------------------------------------------------------*/

#if ( ( INCLUDE_xTaskGetCurrentTaskHandle == 1 ) || ( configUSE_MUTEXES == 1 ) )

	TaskHandle_t xTaskGetCurrentTaskHandle( void )
	{
80003010:	fe010113          	addi	sp,sp,-32
80003014:	00812e23          	sw	s0,28(sp)
80003018:	02010413          	addi	s0,sp,32
/casa/workspace/Chronos-RISCV6/FreeRTOS/Debug/../FreeRTOS/tasks.c:3378
	TaskHandle_t xReturn;

		/* A critical section is not required as this is not called from
		an interrupt and the current TCB will always be the same for any
		individual execution thread. */
		xReturn = pxCurrentTCB;
8000301c:	92c1a783          	lw	a5,-1748(gp) # 8000965c <pxCurrentTCB>
80003020:	fef42623          	sw	a5,-20(s0)
/casa/workspace/Chronos-RISCV6/FreeRTOS/Debug/../FreeRTOS/tasks.c:3380

		return xReturn;
80003024:	fec42783          	lw	a5,-20(s0)
/casa/workspace/Chronos-RISCV6/FreeRTOS/Debug/../FreeRTOS/tasks.c:3381
	}
80003028:	00078513          	mv	a0,a5
8000302c:	01c12403          	lw	s0,28(sp)
80003030:	02010113          	addi	sp,sp,32
80003034:	00008067          	ret

80003038 <vTaskEnterCritical>:
vTaskEnterCritical():
/casa/workspace/Chronos-RISCV6/FreeRTOS/Debug/../FreeRTOS/tasks.c:3564
/*-----------------------------------------------------------*/

#if ( portCRITICAL_NESTING_IN_TCB == 1 )

	void vTaskEnterCritical( void )
	{
80003038:	ff010113          	addi	sp,sp,-16
8000303c:	00812623          	sw	s0,12(sp)
80003040:	01010413          	addi	s0,sp,16
/casa/workspace/Chronos-RISCV6/FreeRTOS/Debug/../FreeRTOS/tasks.c:3565
		portDISABLE_INTERRUPTS();
80003044:	30047073          	csrci	mstatus,8
/casa/workspace/Chronos-RISCV6/FreeRTOS/Debug/../FreeRTOS/tasks.c:3567

		if( xSchedulerRunning != pdFALSE )
80003048:	9481a783          	lw	a5,-1720(gp) # 80009678 <xSchedulerRunning>
8000304c:	00078c63          	beqz	a5,80003064 <vTaskEnterCritical+0x2c>
/casa/workspace/Chronos-RISCV6/FreeRTOS/Debug/../FreeRTOS/tasks.c:3569
		{
			( pxCurrentTCB->uxCriticalNesting )++;
80003050:	92c1a783          	lw	a5,-1748(gp) # 8000965c <pxCurrentTCB>
80003054:	0447a703          	lw	a4,68(a5)
80003058:	00170713          	addi	a4,a4,1
8000305c:	04e7a223          	sw	a4,68(a5)
/casa/workspace/Chronos-RISCV6/FreeRTOS/Debug/../FreeRTOS/tasks.c:3577
			function so	assert() if it is being called from an interrupt
			context.  Only API functions that end in "FromISR" can be used in an
			interrupt.  Only assert if the critical nesting count is 1 to
			protect against recursive calls if the assert function also uses a
			critical section. */
			if( pxCurrentTCB->uxCriticalNesting == 1 )
80003060:	92c1a783          	lw	a5,-1748(gp) # 8000965c <pxCurrentTCB>
/casa/workspace/Chronos-RISCV6/FreeRTOS/Debug/../FreeRTOS/tasks.c:3586
		}
		else
		{
			mtCOVERAGE_TEST_MARKER();
		}
	}
80003064:	00000013          	nop
80003068:	00c12403          	lw	s0,12(sp)
8000306c:	01010113          	addi	sp,sp,16
80003070:	00008067          	ret

80003074 <vTaskExitCritical>:
vTaskExitCritical():
/casa/workspace/Chronos-RISCV6/FreeRTOS/Debug/../FreeRTOS/tasks.c:3594
/*-----------------------------------------------------------*/

#if ( portCRITICAL_NESTING_IN_TCB == 1 )

	void vTaskExitCritical( void )
	{
80003074:	ff010113          	addi	sp,sp,-16
80003078:	00812623          	sw	s0,12(sp)
8000307c:	01010413          	addi	s0,sp,16
/casa/workspace/Chronos-RISCV6/FreeRTOS/Debug/../FreeRTOS/tasks.c:3595
		if( xSchedulerRunning != pdFALSE )
80003080:	9481a783          	lw	a5,-1720(gp) # 80009678 <xSchedulerRunning>
80003084:	02078863          	beqz	a5,800030b4 <vTaskExitCritical+0x40>
/casa/workspace/Chronos-RISCV6/FreeRTOS/Debug/../FreeRTOS/tasks.c:3597
		{
			if( pxCurrentTCB->uxCriticalNesting > 0U )
80003088:	92c1a783          	lw	a5,-1748(gp) # 8000965c <pxCurrentTCB>
8000308c:	0447a783          	lw	a5,68(a5)
80003090:	02078263          	beqz	a5,800030b4 <vTaskExitCritical+0x40>
/casa/workspace/Chronos-RISCV6/FreeRTOS/Debug/../FreeRTOS/tasks.c:3599
			{
				( pxCurrentTCB->uxCriticalNesting )--;
80003094:	92c1a783          	lw	a5,-1748(gp) # 8000965c <pxCurrentTCB>
80003098:	0447a703          	lw	a4,68(a5)
8000309c:	fff70713          	addi	a4,a4,-1
800030a0:	04e7a223          	sw	a4,68(a5)
/casa/workspace/Chronos-RISCV6/FreeRTOS/Debug/../FreeRTOS/tasks.c:3601

				if( pxCurrentTCB->uxCriticalNesting == 0U )
800030a4:	92c1a783          	lw	a5,-1748(gp) # 8000965c <pxCurrentTCB>
800030a8:	0447a783          	lw	a5,68(a5)
800030ac:	00079463          	bnez	a5,800030b4 <vTaskExitCritical+0x40>
/casa/workspace/Chronos-RISCV6/FreeRTOS/Debug/../FreeRTOS/tasks.c:3603
				{
					portENABLE_INTERRUPTS();
800030b0:	30046073          	csrsi	mstatus,8
/casa/workspace/Chronos-RISCV6/FreeRTOS/Debug/../FreeRTOS/tasks.c:3619
		}
		else
		{
			mtCOVERAGE_TEST_MARKER();
		}
	}
800030b4:	00000013          	nop
800030b8:	00c12403          	lw	s0,12(sp)
800030bc:	01010113          	addi	sp,sp,16
800030c0:	00008067          	ret

800030c4 <ulTaskNotifyTake>:
ulTaskNotifyTake():
/casa/workspace/Chronos-RISCV6/FreeRTOS/Debug/../FreeRTOS/tasks.c:3900
/*-----------------------------------------------------------*/

#if( configUSE_TASK_NOTIFICATIONS == 1 )

	uint32_t ulTaskNotifyTake( BaseType_t xClearCountOnExit, TickType_t xTicksToWait )
	{
800030c4:	fd010113          	addi	sp,sp,-48
800030c8:	02112623          	sw	ra,44(sp)
800030cc:	02812423          	sw	s0,40(sp)
800030d0:	03010413          	addi	s0,sp,48
800030d4:	fca42e23          	sw	a0,-36(s0)
800030d8:	fcb42c23          	sw	a1,-40(s0)
/casa/workspace/Chronos-RISCV6/FreeRTOS/Debug/../FreeRTOS/tasks.c:3904
	TickType_t xTimeToWake;
	uint32_t ulReturn;

		taskENTER_CRITICAL();
800030dc:	d34fe0ef          	jal	ra,80001610 <vPortEnterCritical>
/casa/workspace/Chronos-RISCV6/FreeRTOS/Debug/../FreeRTOS/tasks.c:3907
		{
			/* Only block if the notification count is not already non-zero. */
			if( pxCurrentTCB->ulNotifiedValue == 0UL )
800030e0:	92c1a783          	lw	a5,-1748(gp) # 8000965c <pxCurrentTCB>
800030e4:	0587a783          	lw	a5,88(a5)
800030e8:	06079663          	bnez	a5,80003154 <ulTaskNotifyTake+0x90>
/casa/workspace/Chronos-RISCV6/FreeRTOS/Debug/../FreeRTOS/tasks.c:3910
			{
				/* Mark this task as waiting for a notification. */
				pxCurrentTCB->eNotifyState = eWaitingNotification;
800030ec:	92c1a783          	lw	a5,-1748(gp) # 8000965c <pxCurrentTCB>
800030f0:	00100713          	li	a4,1
800030f4:	04e7ae23          	sw	a4,92(a5)
/casa/workspace/Chronos-RISCV6/FreeRTOS/Debug/../FreeRTOS/tasks.c:3912

				if( xTicksToWait > ( TickType_t ) 0 )
800030f8:	fd842783          	lw	a5,-40(s0)
800030fc:	04078c63          	beqz	a5,80003154 <ulTaskNotifyTake+0x90>
/casa/workspace/Chronos-RISCV6/FreeRTOS/Debug/../FreeRTOS/tasks.c:3916
				{
					/* The task is going to block.  First it must be removed
					from the ready list. */
					if( uxListRemove( &( pxCurrentTCB->xGenericListItem ) ) == ( UBaseType_t ) 0 )
80003100:	92c1a783          	lw	a5,-1748(gp) # 8000965c <pxCurrentTCB>
80003104:	00478793          	addi	a5,a5,4
80003108:	00078513          	mv	a0,a5
8000310c:	c51fe0ef          	jal	ra,80001d5c <uxListRemove>
/casa/workspace/Chronos-RISCV6/FreeRTOS/Debug/../FreeRTOS/tasks.c:3930
						mtCOVERAGE_TEST_MARKER();
					}

					#if ( INCLUDE_vTaskSuspend == 1 )
					{
						if( xTicksToWait == portMAX_DELAY )
80003110:	fd842703          	lw	a4,-40(s0)
80003114:	fff00793          	li	a5,-1
80003118:	02f71063          	bne	a4,a5,80003138 <ulTaskNotifyTake+0x74>
/casa/workspace/Chronos-RISCV6/FreeRTOS/Debug/../FreeRTOS/tasks.c:3936
						{
							/* Add the task to the suspended task list instead
							of a delayed task list to ensure the task is not
							woken by a timing event.  It will block
							indefinitely. */
							vListInsertEnd( &xSuspendedTaskList, &( pxCurrentTCB->xGenericListItem ) );
8000311c:	92c1a783          	lw	a5,-1748(gp) # 8000965c <pxCurrentTCB>
80003120:	00478793          	addi	a5,a5,4
80003124:	00078593          	mv	a1,a5
80003128:	800227b7          	lui	a5,0x80022
8000312c:	78478513          	addi	a0,a5,1924 # 80022784 <__stack_top+0xfffdb7f4>
80003130:	ad1fe0ef          	jal	ra,80001c00 <vListInsertEnd>
80003134:	01c0006f          	j	80003150 <ulTaskNotifyTake+0x8c>
/casa/workspace/Chronos-RISCV6/FreeRTOS/Debug/../FreeRTOS/tasks.c:3944
						{
							/* Calculate the time at which the task should be
							woken if no notification events occur.  This may
							overflow but this doesn't matter, the scheduler will
							handle it. */
							xTimeToWake = xTickCount + xTicksToWait;
80003138:	9401a783          	lw	a5,-1728(gp) # 80009670 <xTickCount>
8000313c:	fd842703          	lw	a4,-40(s0)
80003140:	00f707b3          	add	a5,a4,a5
80003144:	fef42623          	sw	a5,-20(s0)
/casa/workspace/Chronos-RISCV6/FreeRTOS/Debug/../FreeRTOS/tasks.c:3945
							prvAddCurrentTaskToDelayedList( xTimeToWake );
80003148:	fec42503          	lw	a0,-20(s0)
8000314c:	cddff0ef          	jal	ra,80002e28 <prvAddCurrentTaskToDelayedList>
/casa/workspace/Chronos-RISCV6/FreeRTOS/Debug/../FreeRTOS/tasks.c:3965

					/* All ports are written to allow a yield in a critical
					section (some will yield immediately, others wait until the
					critical section exits) - but it is not something that
					application code should ever do. */
					portYIELD_WITHIN_API();
80003150:	9fdfe0ef          	jal	ra,80001b4c <vPortYield>
/casa/workspace/Chronos-RISCV6/FreeRTOS/Debug/../FreeRTOS/tasks.c:3977
			else
			{
				mtCOVERAGE_TEST_MARKER();
			}
		}
		taskEXIT_CRITICAL();
80003154:	cf0fe0ef          	jal	ra,80001644 <vPortExitCritical>
/casa/workspace/Chronos-RISCV6/FreeRTOS/Debug/../FreeRTOS/tasks.c:3979

		taskENTER_CRITICAL();
80003158:	cb8fe0ef          	jal	ra,80001610 <vPortEnterCritical>
/casa/workspace/Chronos-RISCV6/FreeRTOS/Debug/../FreeRTOS/tasks.c:3982
		{
			traceTASK_NOTIFY_TAKE();
			ulReturn = pxCurrentTCB->ulNotifiedValue;
8000315c:	92c1a783          	lw	a5,-1748(gp) # 8000965c <pxCurrentTCB>
80003160:	0587a783          	lw	a5,88(a5)
80003164:	fef42423          	sw	a5,-24(s0)
/casa/workspace/Chronos-RISCV6/FreeRTOS/Debug/../FreeRTOS/tasks.c:3984

			if( ulReturn != 0UL )
80003168:	fe842783          	lw	a5,-24(s0)
8000316c:	02078463          	beqz	a5,80003194 <ulTaskNotifyTake+0xd0>
/casa/workspace/Chronos-RISCV6/FreeRTOS/Debug/../FreeRTOS/tasks.c:3986
			{
				if( xClearCountOnExit != pdFALSE )
80003170:	fdc42783          	lw	a5,-36(s0)
80003174:	00078863          	beqz	a5,80003184 <ulTaskNotifyTake+0xc0>
/casa/workspace/Chronos-RISCV6/FreeRTOS/Debug/../FreeRTOS/tasks.c:3988
				{
					pxCurrentTCB->ulNotifiedValue = 0UL;
80003178:	92c1a783          	lw	a5,-1748(gp) # 8000965c <pxCurrentTCB>
8000317c:	0407ac23          	sw	zero,88(a5)
80003180:	0140006f          	j	80003194 <ulTaskNotifyTake+0xd0>
/casa/workspace/Chronos-RISCV6/FreeRTOS/Debug/../FreeRTOS/tasks.c:3992
				}
				else
				{
					( pxCurrentTCB->ulNotifiedValue )--;
80003184:	92c1a783          	lw	a5,-1748(gp) # 8000965c <pxCurrentTCB>
80003188:	0587a703          	lw	a4,88(a5)
8000318c:	fff70713          	addi	a4,a4,-1
80003190:	04e7ac23          	sw	a4,88(a5)
/casa/workspace/Chronos-RISCV6/FreeRTOS/Debug/../FreeRTOS/tasks.c:4000
			else
			{
				mtCOVERAGE_TEST_MARKER();
			}

			pxCurrentTCB->eNotifyState = eNotWaitingNotification;
80003194:	92c1a783          	lw	a5,-1748(gp) # 8000965c <pxCurrentTCB>
80003198:	0407ae23          	sw	zero,92(a5)
/casa/workspace/Chronos-RISCV6/FreeRTOS/Debug/../FreeRTOS/tasks.c:4002
		}
		taskEXIT_CRITICAL();
8000319c:	ca8fe0ef          	jal	ra,80001644 <vPortExitCritical>
/casa/workspace/Chronos-RISCV6/FreeRTOS/Debug/../FreeRTOS/tasks.c:4004

		return ulReturn;
800031a0:	fe842783          	lw	a5,-24(s0)
/casa/workspace/Chronos-RISCV6/FreeRTOS/Debug/../FreeRTOS/tasks.c:4005
	}
800031a4:	00078513          	mv	a0,a5
800031a8:	02c12083          	lw	ra,44(sp)
800031ac:	02812403          	lw	s0,40(sp)
800031b0:	03010113          	addi	sp,sp,48
800031b4:	00008067          	ret

800031b8 <vTaskNotifyGiveFromISR>:
vTaskNotifyGiveFromISR():
/casa/workspace/Chronos-RISCV6/FreeRTOS/Debug/../FreeRTOS/tasks.c:4361
/*-----------------------------------------------------------*/

#if( configUSE_TASK_NOTIFICATIONS == 1 )

	void vTaskNotifyGiveFromISR( TaskHandle_t xTaskToNotify, BaseType_t *pxHigherPriorityTaskWoken )
	{
800031b8:	fd010113          	addi	sp,sp,-48
800031bc:	02112623          	sw	ra,44(sp)
800031c0:	02812423          	sw	s0,40(sp)
800031c4:	03010413          	addi	s0,sp,48
800031c8:	fca42e23          	sw	a0,-36(s0)
800031cc:	fcb42c23          	sw	a1,-40(s0)
/casa/workspace/Chronos-RISCV6/FreeRTOS/Debug/../FreeRTOS/tasks.c:4366
	TCB_t * pxTCB;
	eNotifyValue eOriginalNotifyState;
	UBaseType_t uxSavedInterruptStatus;

		configASSERT( xTaskToNotify );
800031d0:	fdc42783          	lw	a5,-36(s0)
800031d4:	00079663          	bnez	a5,800031e0 <vTaskNotifyGiveFromISR+0x28>
/casa/workspace/Chronos-RISCV6/FreeRTOS/Debug/../FreeRTOS/tasks.c:4366 (discriminator 1)
800031d8:	30047073          	csrci	mstatus,8
800031dc:	0000006f          	j	800031dc <vTaskNotifyGiveFromISR+0x24>
/casa/workspace/Chronos-RISCV6/FreeRTOS/Debug/../FreeRTOS/tasks.c:4386
		simple as possible.  More information (albeit Cortex-M specific) is
		provided on the following link:
		http://www.freertos.org/RTOS-Cortex-M3-M4.html */
		portASSERT_IF_INTERRUPT_PRIORITY_INVALID();

		pxTCB = ( TCB_t * ) xTaskToNotify;
800031e0:	fdc42783          	lw	a5,-36(s0)
800031e4:	fef42623          	sw	a5,-20(s0)
/casa/workspace/Chronos-RISCV6/FreeRTOS/Debug/../FreeRTOS/tasks.c:4388

		uxSavedInterruptStatus = portSET_INTERRUPT_MASK_FROM_ISR();
800031e8:	e88fe0ef          	jal	ra,80001870 <vPortSetInterruptMask>
800031ec:	00050793          	mv	a5,a0
800031f0:	fef42423          	sw	a5,-24(s0)
/casa/workspace/Chronos-RISCV6/FreeRTOS/Debug/../FreeRTOS/tasks.c:4390
		{
			eOriginalNotifyState = pxTCB->eNotifyState;
800031f4:	fec42783          	lw	a5,-20(s0)
800031f8:	05c7a783          	lw	a5,92(a5)
800031fc:	fef42223          	sw	a5,-28(s0)
/casa/workspace/Chronos-RISCV6/FreeRTOS/Debug/../FreeRTOS/tasks.c:4391
			pxTCB->eNotifyState = eNotified;
80003200:	fec42783          	lw	a5,-20(s0)
80003204:	00200713          	li	a4,2
80003208:	04e7ae23          	sw	a4,92(a5)
/casa/workspace/Chronos-RISCV6/FreeRTOS/Debug/../FreeRTOS/tasks.c:4395

			/* 'Giving' is equivalent to incrementing a count in a counting
			semaphore. */
			( pxTCB->ulNotifiedValue )++;
8000320c:	fec42783          	lw	a5,-20(s0)
80003210:	0587a783          	lw	a5,88(a5)
80003214:	00178713          	addi	a4,a5,1
80003218:	fec42783          	lw	a5,-20(s0)
8000321c:	04e7ac23          	sw	a4,88(a5)
/casa/workspace/Chronos-RISCV6/FreeRTOS/Debug/../FreeRTOS/tasks.c:4401

			traceTASK_NOTIFY_GIVE_FROM_ISR();

			/* If the task is in the blocked state specifically to wait for a
			notification then unblock it now. */
			if( eOriginalNotifyState == eWaitingNotification )
80003220:	fe442703          	lw	a4,-28(s0)
80003224:	00100793          	li	a5,1
80003228:	0cf71463          	bne	a4,a5,800032f0 <vTaskNotifyGiveFromISR+0x138>
/casa/workspace/Chronos-RISCV6/FreeRTOS/Debug/../FreeRTOS/tasks.c:4404
			{
				/* The task should not have been on an event list. */
				configASSERT( listLIST_ITEM_CONTAINER( &( pxTCB->xEventListItem ) ) == NULL );
8000322c:	fec42783          	lw	a5,-20(s0)
80003230:	0287a783          	lw	a5,40(a5)
80003234:	00078663          	beqz	a5,80003240 <vTaskNotifyGiveFromISR+0x88>
/casa/workspace/Chronos-RISCV6/FreeRTOS/Debug/../FreeRTOS/tasks.c:4404 (discriminator 1)
80003238:	30047073          	csrci	mstatus,8
/casa/workspace/Chronos-RISCV6/FreeRTOS/Debug/../FreeRTOS/tasks.c:4404 (discriminator 2)
8000323c:	0000006f          	j	8000323c <vTaskNotifyGiveFromISR+0x84>
/casa/workspace/Chronos-RISCV6/FreeRTOS/Debug/../FreeRTOS/tasks.c:4406

				if( uxSchedulerSuspended == ( UBaseType_t ) pdFALSE )
80003240:	9601a783          	lw	a5,-1696(gp) # 80009690 <uxSchedulerSuspended>
80003244:	06079663          	bnez	a5,800032b0 <vTaskNotifyGiveFromISR+0xf8>
/casa/workspace/Chronos-RISCV6/FreeRTOS/Debug/../FreeRTOS/tasks.c:4408
				{
					( void ) uxListRemove( &( pxTCB->xGenericListItem ) );
80003248:	fec42783          	lw	a5,-20(s0)
8000324c:	00478793          	addi	a5,a5,4
80003250:	00078513          	mv	a0,a5
80003254:	b09fe0ef          	jal	ra,80001d5c <uxListRemove>
/casa/workspace/Chronos-RISCV6/FreeRTOS/Debug/../FreeRTOS/tasks.c:4409
					prvAddTaskToReadyList( pxTCB );
80003258:	fec42783          	lw	a5,-20(s0)
8000325c:	02c7a703          	lw	a4,44(a5)
80003260:	9441a783          	lw	a5,-1724(gp) # 80009674 <uxTopReadyPriority>
80003264:	00e7f863          	bleu	a4,a5,80003274 <vTaskNotifyGiveFromISR+0xbc>
/casa/workspace/Chronos-RISCV6/FreeRTOS/Debug/../FreeRTOS/tasks.c:4409 (discriminator 1)
80003268:	fec42783          	lw	a5,-20(s0)
8000326c:	02c7a703          	lw	a4,44(a5)
80003270:	94e1a223          	sw	a4,-1724(gp) # 80009674 <uxTopReadyPriority>
/casa/workspace/Chronos-RISCV6/FreeRTOS/Debug/../FreeRTOS/tasks.c:4409 (discriminator 3)
80003274:	fec42783          	lw	a5,-20(s0)
80003278:	02c7a703          	lw	a4,44(a5)
8000327c:	00070793          	mv	a5,a4
80003280:	00279793          	slli	a5,a5,0x2
80003284:	00e787b3          	add	a5,a5,a4
80003288:	00279793          	slli	a5,a5,0x2
8000328c:	80022737          	lui	a4,0x80022
80003290:	6d070713          	addi	a4,a4,1744 # 800226d0 <__stack_top+0xfffdb740>
80003294:	00e78733          	add	a4,a5,a4
80003298:	fec42783          	lw	a5,-20(s0)
8000329c:	00478793          	addi	a5,a5,4
800032a0:	00078593          	mv	a1,a5
800032a4:	00070513          	mv	a0,a4
800032a8:	959fe0ef          	jal	ra,80001c00 <vListInsertEnd>
800032ac:	01c0006f          	j	800032c8 <vTaskNotifyGiveFromISR+0x110>
/casa/workspace/Chronos-RISCV6/FreeRTOS/Debug/../FreeRTOS/tasks.c:4415
				}
				else
				{
					/* The delayed and ready lists cannot be accessed, so hold
					this task pending until the scheduler is resumed. */
					vListInsertEnd( &( xPendingReadyList ), &( pxTCB->xEventListItem ) );
800032b0:	fec42783          	lw	a5,-20(s0)
800032b4:	01878793          	addi	a5,a5,24
800032b8:	00078593          	mv	a1,a5
800032bc:	800227b7          	lui	a5,0x80022
800032c0:	75c78513          	addi	a0,a5,1884 # 8002275c <__stack_top+0xfffdb7cc>
800032c4:	93dfe0ef          	jal	ra,80001c00 <vListInsertEnd>
/casa/workspace/Chronos-RISCV6/FreeRTOS/Debug/../FreeRTOS/tasks.c:4418
				}

				if( pxTCB->uxPriority > pxCurrentTCB->uxPriority )
800032c8:	fec42783          	lw	a5,-20(s0)
800032cc:	02c7a703          	lw	a4,44(a5)
800032d0:	92c1a783          	lw	a5,-1748(gp) # 8000965c <pxCurrentTCB>
800032d4:	02c7a783          	lw	a5,44(a5)
800032d8:	00e7fc63          	bleu	a4,a5,800032f0 <vTaskNotifyGiveFromISR+0x138>
/casa/workspace/Chronos-RISCV6/FreeRTOS/Debug/../FreeRTOS/tasks.c:4422
				{
					/* The notified task has a priority above the currently
					executing task so a yield is required. */
					if( pxHigherPriorityTaskWoken != NULL )
800032dc:	fd842783          	lw	a5,-40(s0)
800032e0:	00078863          	beqz	a5,800032f0 <vTaskNotifyGiveFromISR+0x138>
/casa/workspace/Chronos-RISCV6/FreeRTOS/Debug/../FreeRTOS/tasks.c:4424
					{
						*pxHigherPriorityTaskWoken = pdTRUE;
800032e4:	fd842783          	lw	a5,-40(s0)
800032e8:	00100713          	li	a4,1
800032ec:	00e7a023          	sw	a4,0(a5)
/casa/workspace/Chronos-RISCV6/FreeRTOS/Debug/../FreeRTOS/tasks.c:4433
				{
					mtCOVERAGE_TEST_MARKER();
				}
			}
		}
		portCLEAR_INTERRUPT_MASK_FROM_ISR( uxSavedInterruptStatus );
800032f0:	fe842783          	lw	a5,-24(s0)
800032f4:	00078513          	mv	a0,a5
800032f8:	d50fe0ef          	jal	ra,80001848 <vPortClearInterruptMask>
/casa/workspace/Chronos-RISCV6/FreeRTOS/Debug/../FreeRTOS/tasks.c:4434
	}
800032fc:	00000013          	nop
80003300:	02c12083          	lw	ra,44(sp)
80003304:	02812403          	lw	s0,40(sp)
80003308:	03010113          	addi	sp,sp,48
8000330c:	00008067          	ret

80003310 <API_RepositoryWakeUp>:
API_RepositoryWakeUp():
/casa/workspace/Chronos-RISCV6/FreeRTOS/Debug/../FreeRTOS/globalMaster.c:10
#include "packet.h"
#include "services.h"

////////////////////////////////////////////////////////////
// Informs the Repository that the GLOBALMASTER is ready to receive the application info
void API_RepositoryWakeUp(){
80003310:	fe010113          	addi	sp,sp,-32
80003314:	00112e23          	sw	ra,28(sp)
80003318:	00812c23          	sw	s0,24(sp)
8000331c:	02010413          	addi	s0,sp,32
/casa/workspace/Chronos-RISCV6/FreeRTOS/Debug/../FreeRTOS/globalMaster.c:13
    unsigned int mySlot;
    do{
        mySlot = API_GetServiceSlot();
80003320:	370020ef          	jal	ra,80005690 <API_GetServiceSlot>
80003324:	fea42623          	sw	a0,-20(s0)
/casa/workspace/Chronos-RISCV6/FreeRTOS/Debug/../FreeRTOS/globalMaster.c:14
        if(mySlot == PIPE_FULL){
80003328:	fec42703          	lw	a4,-20(s0)
8000332c:	fdfe07b7          	lui	a5,0xfdfe0
80003330:	dfd78793          	addi	a5,a5,-515 # fdfdfdfd <__stack_top+0x7df98e6d>
80003334:	00f71a63          	bne	a4,a5,80003348 <API_RepositoryWakeUp+0x38>
/casa/workspace/Chronos-RISCV6/FreeRTOS/Debug/../FreeRTOS/globalMaster.c:16
            // Runs the NI Handler to send/receive packets, opening space in the PIPE
            prints("Estou preso aqui5...\n");
80003338:	800097b7          	lui	a5,0x80009
8000333c:	a7078513          	addi	a0,a5,-1424 # 80008a70 <__stack_top+0xfffc1ae0>
80003340:	138030ef          	jal	ra,80006478 <prints>
/casa/workspace/Chronos-RISCV6/FreeRTOS/Debug/../FreeRTOS/globalMaster.c:17
            API_NI_Handler();
80003344:	089040ef          	jal	ra,80007bcc <API_NI_Handler>
/casa/workspace/Chronos-RISCV6/FreeRTOS/Debug/../FreeRTOS/globalMaster.c:19
        }
    }while(mySlot == PIPE_FULL);
80003348:	fec42703          	lw	a4,-20(s0)
8000334c:	fdfe07b7          	lui	a5,0xfdfe0
80003350:	dfd78793          	addi	a5,a5,-515 # fdfdfdfd <__stack_top+0x7df98e6d>
80003354:	fcf706e3          	beq	a4,a5,80003320 <API_RepositoryWakeUp+0x10>
/casa/workspace/Chronos-RISCV6/FreeRTOS/Debug/../FreeRTOS/globalMaster.c:22
    //printsv("I got a free service slot!! -> ", mySlot);

    ServicePipe[mySlot].holder = PIPE_SYS_HOLDER;
80003358:	800227b7          	lui	a5,0x80022
8000335c:	fec42703          	lw	a4,-20(s0)
80003360:	79c78693          	addi	a3,a5,1948 # 8002279c <__stack_top+0xfffdb80c>
80003364:	00070793          	mv	a5,a4
80003368:	00479793          	slli	a5,a5,0x4
8000336c:	40e787b3          	sub	a5,a5,a4
80003370:	00279793          	slli	a5,a5,0x2
80003374:	00f687b3          	add	a5,a3,a5
80003378:	feff0737          	lui	a4,0xfeff0
8000337c:	efe70713          	addi	a4,a4,-258 # fefefefe <__stack_top+0x7efa8f6e>
80003380:	00e7a223          	sw	a4,4(a5)
/casa/workspace/Chronos-RISCV6/FreeRTOS/Debug/../FreeRTOS/globalMaster.c:24

    ServicePipe[mySlot].header.header       = makeAddress(0, 0) | PERIPH_SOUTH;
80003384:	00000593          	li	a1,0
80003388:	00000513          	li	a0,0
8000338c:	6f4030ef          	jal	ra,80006a80 <makeAddress>
80003390:	00050713          	mv	a4,a0
80003394:	000407b7          	lui	a5,0x40
80003398:	00f766b3          	or	a3,a4,a5
8000339c:	800227b7          	lui	a5,0x80022
800033a0:	fec42703          	lw	a4,-20(s0)
800033a4:	79c78613          	addi	a2,a5,1948 # 8002279c <__stack_top+0xfffdb80c>
800033a8:	00070793          	mv	a5,a4
800033ac:	00479793          	slli	a5,a5,0x4
800033b0:	40e787b3          	sub	a5,a5,a4
800033b4:	00279793          	slli	a5,a5,0x2
800033b8:	00f607b3          	add	a5,a2,a5
800033bc:	00d7a423          	sw	a3,8(a5)
/casa/workspace/Chronos-RISCV6/FreeRTOS/Debug/../FreeRTOS/globalMaster.c:25
    ServicePipe[mySlot].header.payload_size = PKT_SERVICE_SIZE;
800033c0:	800227b7          	lui	a5,0x80022
800033c4:	fec42703          	lw	a4,-20(s0)
800033c8:	79c78693          	addi	a3,a5,1948 # 8002279c <__stack_top+0xfffdb80c>
800033cc:	00070793          	mv	a5,a4
800033d0:	00479793          	slli	a5,a5,0x4
800033d4:	40e787b3          	sub	a5,a5,a4
800033d8:	00279793          	slli	a5,a5,0x2
800033dc:	00f687b3          	add	a5,a3,a5
800033e0:	00b00713          	li	a4,11
800033e4:	00e7a623          	sw	a4,12(a5)
/casa/workspace/Chronos-RISCV6/FreeRTOS/Debug/../FreeRTOS/globalMaster.c:26
    ServicePipe[mySlot].header.service      = REPOSITORY_WAKEUP;
800033e8:	800227b7          	lui	a5,0x80022
800033ec:	fec42703          	lw	a4,-20(s0)
800033f0:	79c78693          	addi	a3,a5,1948 # 8002279c <__stack_top+0xfffdb80c>
800033f4:	00070793          	mv	a5,a4
800033f8:	00479793          	slli	a5,a5,0x4
800033fc:	40e787b3          	sub	a5,a5,a4
80003400:	00279793          	slli	a5,a5,0x2
80003404:	00f687b3          	add	a5,a3,a5
80003408:	10000713          	li	a4,256
8000340c:	00e7a823          	sw	a4,16(a5)
/casa/workspace/Chronos-RISCV6/FreeRTOS/Debug/../FreeRTOS/globalMaster.c:28

    API_PushSendQueue(SERVICE, mySlot);
80003410:	fec42583          	lw	a1,-20(s0)
80003414:	10100537          	lui	a0,0x10100
80003418:	6a8030ef          	jal	ra,80006ac0 <API_PushSendQueue>
/casa/workspace/Chronos-RISCV6/FreeRTOS/Debug/../FreeRTOS/globalMaster.c:29
    return;    
8000341c:	00000013          	nop
/casa/workspace/Chronos-RISCV6/FreeRTOS/Debug/../FreeRTOS/globalMaster.c:30
}
80003420:	01c12083          	lw	ra,28(sp)
80003424:	01812403          	lw	s0,24(sp)
80003428:	02010113          	addi	sp,sp,32
8000342c:	00008067          	ret

80003430 <API_AddApplication>:
API_AddApplication():
/casa/workspace/Chronos-RISCV6/FreeRTOS/Debug/../FreeRTOS/globalMaster.c:34

////////////////////////////////////////////////////////////
// Add one Application in the Execution Queue
void API_AddApplication(unsigned int appID, unsigned int appPeriod, unsigned int appExec, unsigned int appNTasks){
80003430:	fd010113          	addi	sp,sp,-48
80003434:	02112623          	sw	ra,44(sp)
80003438:	02812423          	sw	s0,40(sp)
8000343c:	03010413          	addi	s0,sp,48
80003440:	fca42e23          	sw	a0,-36(s0)
80003444:	fcb42c23          	sw	a1,-40(s0)
80003448:	fcc42a23          	sw	a2,-44(s0)
8000344c:	fcd42823          	sw	a3,-48(s0)
/casa/workspace/Chronos-RISCV6/FreeRTOS/Debug/../FreeRTOS/globalMaster.c:35
    int slot = API_GetApplicationFreeSlot();
80003450:	1c4000ef          	jal	ra,80003614 <API_GetApplicationFreeSlot>
80003454:	00050793          	mv	a5,a0
80003458:	fef42623          	sw	a5,-20(s0)
/casa/workspace/Chronos-RISCV6/FreeRTOS/Debug/../FreeRTOS/globalMaster.c:36
    applications[slot].occupied = TRUE;
8000345c:	800236b7          	lui	a3,0x80023
80003460:	fec42703          	lw	a4,-20(s0)
80003464:	00070793          	mv	a5,a4
80003468:	00279793          	slli	a5,a5,0x2
8000346c:	00e787b3          	add	a5,a5,a4
80003470:	00579793          	slli	a5,a5,0x5
80003474:	dd068713          	addi	a4,a3,-560 # 80022dd0 <__stack_top+0xfffdbe40>
80003478:	00e787b3          	add	a5,a5,a4
8000347c:	00100713          	li	a4,1
80003480:	00e7a023          	sw	a4,0(a5)
/casa/workspace/Chronos-RISCV6/FreeRTOS/Debug/../FreeRTOS/globalMaster.c:37
    applications[slot].appID = appID;
80003484:	800237b7          	lui	a5,0x80023
80003488:	fec42703          	lw	a4,-20(s0)
8000348c:	dd078693          	addi	a3,a5,-560 # 80022dd0 <__stack_top+0xfffdbe40>
80003490:	00070793          	mv	a5,a4
80003494:	00279793          	slli	a5,a5,0x2
80003498:	00e787b3          	add	a5,a5,a4
8000349c:	00579793          	slli	a5,a5,0x5
800034a0:	00f687b3          	add	a5,a3,a5
800034a4:	fdc42703          	lw	a4,-36(s0)
800034a8:	00e7a223          	sw	a4,4(a5)
/casa/workspace/Chronos-RISCV6/FreeRTOS/Debug/../FreeRTOS/globalMaster.c:38
    applications[slot].appPeriod = appPeriod;
800034ac:	800237b7          	lui	a5,0x80023
800034b0:	fec42703          	lw	a4,-20(s0)
800034b4:	dd078693          	addi	a3,a5,-560 # 80022dd0 <__stack_top+0xfffdbe40>
800034b8:	00070793          	mv	a5,a4
800034bc:	00279793          	slli	a5,a5,0x2
800034c0:	00e787b3          	add	a5,a5,a4
800034c4:	00579793          	slli	a5,a5,0x5
800034c8:	00f687b3          	add	a5,a3,a5
800034cc:	fd842703          	lw	a4,-40(s0)
800034d0:	00e7a423          	sw	a4,8(a5)
/casa/workspace/Chronos-RISCV6/FreeRTOS/Debug/../FreeRTOS/globalMaster.c:39
    applications[slot].appExec = appExec;
800034d4:	800237b7          	lui	a5,0x80023
800034d8:	fec42703          	lw	a4,-20(s0)
800034dc:	dd078693          	addi	a3,a5,-560 # 80022dd0 <__stack_top+0xfffdbe40>
800034e0:	00070793          	mv	a5,a4
800034e4:	00279793          	slli	a5,a5,0x2
800034e8:	00e787b3          	add	a5,a5,a4
800034ec:	00579793          	slli	a5,a5,0x5
800034f0:	00f687b3          	add	a5,a3,a5
800034f4:	fd442703          	lw	a4,-44(s0)
800034f8:	00e7a623          	sw	a4,12(a5)
/casa/workspace/Chronos-RISCV6/FreeRTOS/Debug/../FreeRTOS/globalMaster.c:40
    applications[slot].numTasks = appNTasks;
800034fc:	800236b7          	lui	a3,0x80023
80003500:	fec42703          	lw	a4,-20(s0)
80003504:	00070793          	mv	a5,a4
80003508:	00279793          	slli	a5,a5,0x2
8000350c:	00e787b3          	add	a5,a5,a4
80003510:	00579793          	slli	a5,a5,0x5
80003514:	dd068713          	addi	a4,a3,-560 # 80022dd0 <__stack_top+0xfffdbe40>
80003518:	00e787b3          	add	a5,a5,a4
8000351c:	fd042703          	lw	a4,-48(s0)
80003520:	00e7a823          	sw	a4,16(a5)
/casa/workspace/Chronos-RISCV6/FreeRTOS/Debug/../FreeRTOS/globalMaster.c:41
    applications[slot].nextRun = xTaskGetTickCount() + appPeriod;
80003524:	b28ff0ef          	jal	ra,8000284c <xTaskGetTickCount>
80003528:	00050713          	mv	a4,a0
8000352c:	fd842783          	lw	a5,-40(s0)
80003530:	00f706b3          	add	a3,a4,a5
80003534:	800237b7          	lui	a5,0x80023
80003538:	fec42703          	lw	a4,-20(s0)
8000353c:	dd078613          	addi	a2,a5,-560 # 80022dd0 <__stack_top+0xfffdbe40>
80003540:	00070793          	mv	a5,a4
80003544:	00279793          	slli	a5,a5,0x2
80003548:	00e787b3          	add	a5,a5,a4
8000354c:	00579793          	slli	a5,a5,0x5
80003550:	00f607b3          	add	a5,a2,a5
80003554:	08d7a623          	sw	a3,140(a5)
/casa/workspace/Chronos-RISCV6/FreeRTOS/Debug/../FreeRTOS/globalMaster.c:42
    applications[slot].executed = 0;
80003558:	800236b7          	lui	a3,0x80023
8000355c:	fec42703          	lw	a4,-20(s0)
80003560:	00070793          	mv	a5,a4
80003564:	00279793          	slli	a5,a5,0x2
80003568:	00e787b3          	add	a5,a5,a4
8000356c:	00579793          	slli	a5,a5,0x5
80003570:	dd068713          	addi	a4,a3,-560 # 80022dd0 <__stack_top+0xfffdbe40>
80003574:	00e787b3          	add	a5,a5,a4
80003578:	0807a823          	sw	zero,144(a5)
/casa/workspace/Chronos-RISCV6/FreeRTOS/Debug/../FreeRTOS/globalMaster.c:43
    applications[slot].lastStart = -1;
8000357c:	800237b7          	lui	a5,0x80023
80003580:	fec42703          	lw	a4,-20(s0)
80003584:	dd078693          	addi	a3,a5,-560 # 80022dd0 <__stack_top+0xfffdbe40>
80003588:	00070793          	mv	a5,a4
8000358c:	00279793          	slli	a5,a5,0x2
80003590:	00e787b3          	add	a5,a5,a4
80003594:	00579793          	slli	a5,a5,0x5
80003598:	00f687b3          	add	a5,a3,a5
8000359c:	fff00713          	li	a4,-1
800035a0:	08e7aa23          	sw	a4,148(a5)
/casa/workspace/Chronos-RISCV6/FreeRTOS/Debug/../FreeRTOS/globalMaster.c:44
    applications[slot].finishedTasks = 0;
800035a4:	800237b7          	lui	a5,0x80023
800035a8:	fec42703          	lw	a4,-20(s0)
800035ac:	dd078693          	addi	a3,a5,-560 # 80022dd0 <__stack_top+0xfffdbe40>
800035b0:	00070793          	mv	a5,a4
800035b4:	00279793          	slli	a5,a5,0x2
800035b8:	00e787b3          	add	a5,a5,a4
800035bc:	00579793          	slli	a5,a5,0x5
800035c0:	00f687b3          	add	a5,a3,a5
800035c4:	0807ac23          	sw	zero,152(a5)
/casa/workspace/Chronos-RISCV6/FreeRTOS/Debug/../FreeRTOS/globalMaster.c:45
    applications[slot].lastFinish = 0;
800035c8:	800237b7          	lui	a5,0x80023
800035cc:	fec42703          	lw	a4,-20(s0)
800035d0:	dd078693          	addi	a3,a5,-560 # 80022dd0 <__stack_top+0xfffdbe40>
800035d4:	00070793          	mv	a5,a4
800035d8:	00279793          	slli	a5,a5,0x2
800035dc:	00e787b3          	add	a5,a5,a4
800035e0:	00579793          	slli	a5,a5,0x5
800035e4:	00f687b3          	add	a5,a3,a5
800035e8:	0807ae23          	sw	zero,156(a5)
/casa/workspace/Chronos-RISCV6/FreeRTOS/Debug/../FreeRTOS/globalMaster.c:46
    printsv("New application registered - ID: ", appID);
800035ec:	fdc42783          	lw	a5,-36(s0)
800035f0:	00078593          	mv	a1,a5
800035f4:	800097b7          	lui	a5,0x80009
800035f8:	a8878513          	addi	a0,a5,-1400 # 80008a88 <__stack_top+0xfffc1af8>
800035fc:	729020ef          	jal	ra,80006524 <printsv>
/casa/workspace/Chronos-RISCV6/FreeRTOS/Debug/../FreeRTOS/globalMaster.c:47
    return;
80003600:	00000013          	nop
/casa/workspace/Chronos-RISCV6/FreeRTOS/Debug/../FreeRTOS/globalMaster.c:48
}
80003604:	02c12083          	lw	ra,44(sp)
80003608:	02812403          	lw	s0,40(sp)
8000360c:	03010113          	addi	sp,sp,48
80003610:	00008067          	ret

80003614 <API_GetApplicationFreeSlot>:
API_GetApplicationFreeSlot():
/casa/workspace/Chronos-RISCV6/FreeRTOS/Debug/../FreeRTOS/globalMaster.c:66
}


////////////////////////////////////////////////////////////
// Gets an application slot that is free
unsigned int API_GetApplicationFreeSlot(){
80003614:	fe010113          	addi	sp,sp,-32
80003618:	00112e23          	sw	ra,28(sp)
8000361c:	00812c23          	sw	s0,24(sp)
80003620:	02010413          	addi	s0,sp,32
/casa/workspace/Chronos-RISCV6/FreeRTOS/Debug/../FreeRTOS/globalMaster.c:68
    int i;
    for (i = 0; i < NUM_MAX_APPS; i++){
80003624:	fe042623          	sw	zero,-20(s0)
80003628:	0400006f          	j	80003668 <API_GetApplicationFreeSlot+0x54>
/casa/workspace/Chronos-RISCV6/FreeRTOS/Debug/../FreeRTOS/globalMaster.c:69
        if (applications[i].occupied == FALSE){
8000362c:	800236b7          	lui	a3,0x80023
80003630:	fec42703          	lw	a4,-20(s0)
80003634:	00070793          	mv	a5,a4
80003638:	00279793          	slli	a5,a5,0x2
8000363c:	00e787b3          	add	a5,a5,a4
80003640:	00579793          	slli	a5,a5,0x5
80003644:	dd068713          	addi	a4,a3,-560 # 80022dd0 <__stack_top+0xfffdbe40>
80003648:	00e787b3          	add	a5,a5,a4
8000364c:	0007a783          	lw	a5,0(a5)
80003650:	00079663          	bnez	a5,8000365c <API_GetApplicationFreeSlot+0x48>
/casa/workspace/Chronos-RISCV6/FreeRTOS/Debug/../FreeRTOS/globalMaster.c:70
            return i;
80003654:	fec42783          	lw	a5,-20(s0)
80003658:	02c0006f          	j	80003684 <API_GetApplicationFreeSlot+0x70>
/casa/workspace/Chronos-RISCV6/FreeRTOS/Debug/../FreeRTOS/globalMaster.c:68 (discriminator 2)
    for (i = 0; i < NUM_MAX_APPS; i++){
8000365c:	fec42783          	lw	a5,-20(s0)
80003660:	00178793          	addi	a5,a5,1
80003664:	fef42623          	sw	a5,-20(s0)
/casa/workspace/Chronos-RISCV6/FreeRTOS/Debug/../FreeRTOS/globalMaster.c:68 (discriminator 1)
80003668:	fec42703          	lw	a4,-20(s0)
8000366c:	00b00793          	li	a5,11
80003670:	fae7dee3          	ble	a4,a5,8000362c <API_GetApplicationFreeSlot+0x18>
/casa/workspace/Chronos-RISCV6/FreeRTOS/Debug/../FreeRTOS/globalMaster.c:73
        }
    }
    prints("returning erro4\n");
80003674:	800097b7          	lui	a5,0x80009
80003678:	ac078513          	addi	a0,a5,-1344 # 80008ac0 <__stack_top+0xfffc1b30>
8000367c:	5fd020ef          	jal	ra,80006478 <prints>
/casa/workspace/Chronos-RISCV6/FreeRTOS/Debug/../FreeRTOS/globalMaster.c:74
    return ERRO;
80003680:	fff00793          	li	a5,-1
/casa/workspace/Chronos-RISCV6/FreeRTOS/Debug/../FreeRTOS/globalMaster.c:75
}
80003684:	00078513          	mv	a0,a5
80003688:	01c12083          	lw	ra,28(sp)
8000368c:	01812403          	lw	s0,24(sp)
80003690:	02010113          	addi	sp,sp,32
80003694:	00008067          	ret

80003698 <API_ApplicationsReset>:
API_ApplicationsReset():
/casa/workspace/Chronos-RISCV6/FreeRTOS/Debug/../FreeRTOS/globalMaster.c:79

////////////////////////////////////////////////////////////
// Reset applications vector
void API_ApplicationsReset(){
80003698:	fe010113          	addi	sp,sp,-32
8000369c:	00812e23          	sw	s0,28(sp)
800036a0:	02010413          	addi	s0,sp,32
/casa/workspace/Chronos-RISCV6/FreeRTOS/Debug/../FreeRTOS/globalMaster.c:81
    int i;
    for (i = 0; i < NUM_MAX_APPS; i++){
800036a4:	fe042623          	sw	zero,-20(s0)
800036a8:	0340006f          	j	800036dc <API_ApplicationsReset+0x44>
/casa/workspace/Chronos-RISCV6/FreeRTOS/Debug/../FreeRTOS/globalMaster.c:82 (discriminator 3)
        applications[i].occupied = FALSE;
800036ac:	800236b7          	lui	a3,0x80023
800036b0:	fec42703          	lw	a4,-20(s0)
800036b4:	00070793          	mv	a5,a4
800036b8:	00279793          	slli	a5,a5,0x2
800036bc:	00e787b3          	add	a5,a5,a4
800036c0:	00579793          	slli	a5,a5,0x5
800036c4:	dd068713          	addi	a4,a3,-560 # 80022dd0 <__stack_top+0xfffdbe40>
800036c8:	00e787b3          	add	a5,a5,a4
800036cc:	0007a023          	sw	zero,0(a5)
/casa/workspace/Chronos-RISCV6/FreeRTOS/Debug/../FreeRTOS/globalMaster.c:81 (discriminator 3)
    for (i = 0; i < NUM_MAX_APPS; i++){
800036d0:	fec42783          	lw	a5,-20(s0)
800036d4:	00178793          	addi	a5,a5,1
800036d8:	fef42623          	sw	a5,-20(s0)
/casa/workspace/Chronos-RISCV6/FreeRTOS/Debug/../FreeRTOS/globalMaster.c:81 (discriminator 1)
800036dc:	fec42703          	lw	a4,-20(s0)
800036e0:	00b00793          	li	a5,11
800036e4:	fce7d4e3          	ble	a4,a5,800036ac <API_ApplicationsReset+0x14>
/casa/workspace/Chronos-RISCV6/FreeRTOS/Debug/../FreeRTOS/globalMaster.c:84
    }
    return;
800036e8:	00000013          	nop
/casa/workspace/Chronos-RISCV6/FreeRTOS/Debug/../FreeRTOS/globalMaster.c:85
}
800036ec:	01c12403          	lw	s0,28(sp)
800036f0:	02010113          	addi	sp,sp,32
800036f4:	00008067          	ret

800036f8 <API_TilesReset>:
API_TilesReset():
/casa/workspace/Chronos-RISCV6/FreeRTOS/Debug/../FreeRTOS/globalMaster.c:89

////////////////////////////////////////////////////////////
// Initialize the Tiles Info
void API_TilesReset(){
800036f8:	fe010113          	addi	sp,sp,-32
800036fc:	00812e23          	sw	s0,28(sp)
80003700:	02010413          	addi	s0,sp,32
/casa/workspace/Chronos-RISCV6/FreeRTOS/Debug/../FreeRTOS/globalMaster.c:91
    int i, m, n;
    for (m = 0; m < DIM_X; m++){
80003704:	fe042623          	sw	zero,-20(s0)
80003708:	0fc0006f          	j	80003804 <API_TilesReset+0x10c>
/casa/workspace/Chronos-RISCV6/FreeRTOS/Debug/../FreeRTOS/globalMaster.c:92
        for (n = 0; n < DIM_Y; n++){
8000370c:	fe042423          	sw	zero,-24(s0)
80003710:	0dc0006f          	j	800037ec <API_TilesReset+0xf4>
/casa/workspace/Chronos-RISCV6/FreeRTOS/Debug/../FreeRTOS/globalMaster.c:93 (discriminator 3)
            Tiles[m][n].temperature = 273;
80003714:	80023637          	lui	a2,0x80023
80003718:	fe842783          	lw	a5,-24(s0)
8000371c:	fec42683          	lw	a3,-20(s0)
80003720:	00078713          	mv	a4,a5
80003724:	00171713          	slli	a4,a4,0x1
80003728:	00f70733          	add	a4,a4,a5
8000372c:	00271793          	slli	a5,a4,0x2
80003730:	00078713          	mv	a4,a5
80003734:	00068793          	mv	a5,a3
80003738:	00179793          	slli	a5,a5,0x1
8000373c:	00d787b3          	add	a5,a5,a3
80003740:	00479793          	slli	a5,a5,0x4
80003744:	00f70733          	add	a4,a4,a5
80003748:	59860793          	addi	a5,a2,1432 # 80023598 <__stack_top+0xfffdc608>
8000374c:	00f707b3          	add	a5,a4,a5
80003750:	11100713          	li	a4,273
80003754:	00e7a023          	sw	a4,0(a5)
/casa/workspace/Chronos-RISCV6/FreeRTOS/Debug/../FreeRTOS/globalMaster.c:94 (discriminator 3)
            Tiles[m][n].frequency = 1000;
80003758:	80023737          	lui	a4,0x80023
8000375c:	fe842783          	lw	a5,-24(s0)
80003760:	fec42683          	lw	a3,-20(s0)
80003764:	59870613          	addi	a2,a4,1432 # 80023598 <__stack_top+0xfffdc608>
80003768:	00078713          	mv	a4,a5
8000376c:	00171713          	slli	a4,a4,0x1
80003770:	00f70733          	add	a4,a4,a5
80003774:	00271793          	slli	a5,a4,0x2
80003778:	00078713          	mv	a4,a5
8000377c:	00068793          	mv	a5,a3
80003780:	00179793          	slli	a5,a5,0x1
80003784:	00d787b3          	add	a5,a5,a3
80003788:	00479793          	slli	a5,a5,0x4
8000378c:	00f707b3          	add	a5,a4,a5
80003790:	00f607b3          	add	a5,a2,a5
80003794:	3e800713          	li	a4,1000
80003798:	00e7a223          	sw	a4,4(a5)
/casa/workspace/Chronos-RISCV6/FreeRTOS/Debug/../FreeRTOS/globalMaster.c:95 (discriminator 3)
            Tiles[m][n].taskSlots = NUM_MAX_TASKS;
8000379c:	80023737          	lui	a4,0x80023
800037a0:	fe842783          	lw	a5,-24(s0)
800037a4:	fec42683          	lw	a3,-20(s0)
800037a8:	59870613          	addi	a2,a4,1432 # 80023598 <__stack_top+0xfffdc608>
800037ac:	00078713          	mv	a4,a5
800037b0:	00171713          	slli	a4,a4,0x1
800037b4:	00f70733          	add	a4,a4,a5
800037b8:	00271793          	slli	a5,a4,0x2
800037bc:	00078713          	mv	a4,a5
800037c0:	00068793          	mv	a5,a3
800037c4:	00179793          	slli	a5,a5,0x1
800037c8:	00d787b3          	add	a5,a5,a3
800037cc:	00479793          	slli	a5,a5,0x4
800037d0:	00f707b3          	add	a5,a4,a5
800037d4:	00f607b3          	add	a5,a2,a5
800037d8:	00600713          	li	a4,6
800037dc:	00e7a423          	sw	a4,8(a5)
/casa/workspace/Chronos-RISCV6/FreeRTOS/Debug/../FreeRTOS/globalMaster.c:92 (discriminator 3)
        for (n = 0; n < DIM_Y; n++){
800037e0:	fe842783          	lw	a5,-24(s0)
800037e4:	00178793          	addi	a5,a5,1
800037e8:	fef42423          	sw	a5,-24(s0)
/casa/workspace/Chronos-RISCV6/FreeRTOS/Debug/../FreeRTOS/globalMaster.c:92 (discriminator 1)
800037ec:	fe842703          	lw	a4,-24(s0)
800037f0:	00300793          	li	a5,3
800037f4:	f2e7d0e3          	ble	a4,a5,80003714 <API_TilesReset+0x1c>
/casa/workspace/Chronos-RISCV6/FreeRTOS/Debug/../FreeRTOS/globalMaster.c:91 (discriminator 2)
    for (m = 0; m < DIM_X; m++){
800037f8:	fec42783          	lw	a5,-20(s0)
800037fc:	00178793          	addi	a5,a5,1
80003800:	fef42623          	sw	a5,-20(s0)
/casa/workspace/Chronos-RISCV6/FreeRTOS/Debug/../FreeRTOS/globalMaster.c:91 (discriminator 1)
80003804:	fec42703          	lw	a4,-20(s0)
80003808:	00300793          	li	a5,3
8000380c:	f0e7d0e3          	ble	a4,a5,8000370c <API_TilesReset+0x14>
/casa/workspace/Chronos-RISCV6/FreeRTOS/Debug/../FreeRTOS/globalMaster.c:101
            /*for(i = 0; i < NUM_MAX_TASKS; i++){
                Tiles[m][n].AppTask[i] = NONE;
            }*/
        }
    }    
    return;
80003810:	00000013          	nop
/casa/workspace/Chronos-RISCV6/FreeRTOS/Debug/../FreeRTOS/globalMaster.c:102
}
80003814:	01c12403          	lw	s0,28(sp)
80003818:	02010113          	addi	sp,sp,32
8000381c:	00008067          	ret

80003820 <GeneratePatternMatrix>:
GeneratePatternMatrix():
/casa/workspace/Chronos-RISCV6/FreeRTOS/Debug/../FreeRTOS/globalMaster.c:105

// Generates the Pattern Matrix for Pattern mapping
void GeneratePatternMatrix(){
80003820:	fe010113          	addi	sp,sp,-32
80003824:	00812e23          	sw	s0,28(sp)
80003828:	02010413          	addi	s0,sp,32
/casa/workspace/Chronos-RISCV6/FreeRTOS/Debug/../FreeRTOS/globalMaster.c:107
    int i, aux;
    aux = 0;
8000382c:	fe042423          	sw	zero,-24(s0)
/casa/workspace/Chronos-RISCV6/FreeRTOS/Debug/../FreeRTOS/globalMaster.c:108
    priorityPointer = 0;
80003830:	800237b7          	lui	a5,0x80023
80003834:	5807aa23          	sw	zero,1428(a5) # 80023594 <__stack_top+0xfffdc604>
/casa/workspace/Chronos-RISCV6/FreeRTOS/Debug/../FreeRTOS/globalMaster.c:110
    //prints("Testando Pattern: \n");
    for(i=0; i<(DIM_X*DIM_Y); i++){
80003838:	fe042623          	sw	zero,-20(s0)
8000383c:	0c40006f          	j	80003900 <GeneratePatternMatrix+0xe0>
/casa/workspace/Chronos-RISCV6/FreeRTOS/Debug/../FreeRTOS/globalMaster.c:112
        //printi(i); prints(": "); printi(aux); prints("\n");
        priorityMatrix[i] = (aux / DIM_X << 8) | aux % DIM_X;
80003840:	fe842783          	lw	a5,-24(s0)
80003844:	41f7d713          	srai	a4,a5,0x1f
80003848:	00377713          	andi	a4,a4,3
8000384c:	00f707b3          	add	a5,a4,a5
80003850:	4027d793          	srai	a5,a5,0x2
80003854:	00879693          	slli	a3,a5,0x8
80003858:	fe842703          	lw	a4,-24(s0)
8000385c:	41f75793          	srai	a5,a4,0x1f
80003860:	01e7d793          	srli	a5,a5,0x1e
80003864:	00f70733          	add	a4,a4,a5
80003868:	00377713          	andi	a4,a4,3
8000386c:	40f707b3          	sub	a5,a4,a5
80003870:	00f6e7b3          	or	a5,a3,a5
80003874:	00078693          	mv	a3,a5
80003878:	800237b7          	lui	a5,0x80023
8000387c:	fec42703          	lw	a4,-20(s0)
80003880:	00271713          	slli	a4,a4,0x2
80003884:	d9078793          	addi	a5,a5,-624 # 80022d90 <__stack_top+0xfffdbe00>
80003888:	00f707b3          	add	a5,a4,a5
8000388c:	00d7a023          	sw	a3,0(a5)
/casa/workspace/Chronos-RISCV6/FreeRTOS/Debug/../FreeRTOS/globalMaster.c:115

        if(DIM_X%2 == 0){
            if(aux<=((DIM_X*DIM_Y)-3)){
80003890:	fe842703          	lw	a4,-24(s0)
80003894:	00d00793          	li	a5,13
80003898:	04e7ca63          	blt	a5,a4,800038ec <GeneratePatternMatrix+0xcc>
/casa/workspace/Chronos-RISCV6/FreeRTOS/Debug/../FreeRTOS/globalMaster.c:116
                if((aux+2)%DIM_X==0){
8000389c:	fe842783          	lw	a5,-24(s0)
800038a0:	00278793          	addi	a5,a5,2
800038a4:	0037f793          	andi	a5,a5,3
800038a8:	00079a63          	bnez	a5,800038bc <GeneratePatternMatrix+0x9c>
/casa/workspace/Chronos-RISCV6/FreeRTOS/Debug/../FreeRTOS/globalMaster.c:117
                    aux += 3;
800038ac:	fe842783          	lw	a5,-24(s0)
800038b0:	00378793          	addi	a5,a5,3
800038b4:	fef42423          	sw	a5,-24(s0)
800038b8:	03c0006f          	j	800038f4 <GeneratePatternMatrix+0xd4>
/casa/workspace/Chronos-RISCV6/FreeRTOS/Debug/../FreeRTOS/globalMaster.c:119
                }
                else if((aux+1)%DIM_X==0){
800038bc:	fe842783          	lw	a5,-24(s0)
800038c0:	00178793          	addi	a5,a5,1
800038c4:	0037f793          	andi	a5,a5,3
800038c8:	00079a63          	bnez	a5,800038dc <GeneratePatternMatrix+0xbc>
/casa/workspace/Chronos-RISCV6/FreeRTOS/Debug/../FreeRTOS/globalMaster.c:120
                    aux += 1;
800038cc:	fe842783          	lw	a5,-24(s0)
800038d0:	00178793          	addi	a5,a5,1
800038d4:	fef42423          	sw	a5,-24(s0)
800038d8:	01c0006f          	j	800038f4 <GeneratePatternMatrix+0xd4>
/casa/workspace/Chronos-RISCV6/FreeRTOS/Debug/../FreeRTOS/globalMaster.c:123
                }
                else{
                    aux += 2;
800038dc:	fe842783          	lw	a5,-24(s0)
800038e0:	00278793          	addi	a5,a5,2
800038e4:	fef42423          	sw	a5,-24(s0)
800038e8:	00c0006f          	j	800038f4 <GeneratePatternMatrix+0xd4>
/casa/workspace/Chronos-RISCV6/FreeRTOS/Debug/../FreeRTOS/globalMaster.c:127
                }
            }
            else{
                aux = 1;
800038ec:	00100793          	li	a5,1
800038f0:	fef42423          	sw	a5,-24(s0)
/casa/workspace/Chronos-RISCV6/FreeRTOS/Debug/../FreeRTOS/globalMaster.c:110 (discriminator 2)
    for(i=0; i<(DIM_X*DIM_Y); i++){
800038f4:	fec42783          	lw	a5,-20(s0)
800038f8:	00178793          	addi	a5,a5,1
800038fc:	fef42623          	sw	a5,-20(s0)
/casa/workspace/Chronos-RISCV6/FreeRTOS/Debug/../FreeRTOS/globalMaster.c:110 (discriminator 1)
80003900:	fec42703          	lw	a4,-20(s0)
80003904:	00f00793          	li	a5,15
80003908:	f2e7dce3          	ble	a4,a5,80003840 <GeneratePatternMatrix+0x20>
/casa/workspace/Chronos-RISCV6/FreeRTOS/Debug/../FreeRTOS/globalMaster.c:137
                aux += 2;
            else
                aux = 1;
        }    
    }
    return;
8000390c:	00000013          	nop
/casa/workspace/Chronos-RISCV6/FreeRTOS/Debug/../FreeRTOS/globalMaster.c:138
}
80003910:	01c12403          	lw	s0,28(sp)
80003914:	02010113          	addi	sp,sp,32
80003918:	00008067          	ret

8000391c <API_AllocateTasks>:
API_AllocateTasks():
/casa/workspace/Chronos-RISCV6/FreeRTOS/Debug/../FreeRTOS/globalMaster.c:141

// Checks if there is some task to allocate...
void API_AllocateTasks(unsigned int tick){
8000391c:	fd010113          	addi	sp,sp,-48
80003920:	02112623          	sw	ra,44(sp)
80003924:	02812423          	sw	s0,40(sp)
80003928:	02912223          	sw	s1,36(sp)
8000392c:	03010413          	addi	s0,sp,48
80003930:	fca42e23          	sw	a0,-36(s0)
/casa/workspace/Chronos-RISCV6/FreeRTOS/Debug/../FreeRTOS/globalMaster.c:145
    int i, j;
    int addr, slot;
    // Iterate around every possible application
    for (i = 0; i < NUM_MAX_APPS; i++){
80003934:	fe042623          	sw	zero,-20(s0)
80003938:	2980006f          	j	80003bd0 <API_AllocateTasks+0x2b4>
/casa/workspace/Chronos-RISCV6/FreeRTOS/Debug/../FreeRTOS/globalMaster.c:147
        // If the application is valid
        if (applications[i].occupied == TRUE){
8000393c:	800236b7          	lui	a3,0x80023
80003940:	fec42703          	lw	a4,-20(s0)
80003944:	00070793          	mv	a5,a4
80003948:	00279793          	slli	a5,a5,0x2
8000394c:	00e787b3          	add	a5,a5,a4
80003950:	00579793          	slli	a5,a5,0x5
80003954:	dd068713          	addi	a4,a3,-560 # 80022dd0 <__stack_top+0xfffdbe40>
80003958:	00e787b3          	add	a5,a5,a4
8000395c:	0007a703          	lw	a4,0(a5)
80003960:	00100793          	li	a5,1
80003964:	26f71063          	bne	a4,a5,80003bc4 <API_AllocateTasks+0x2a8>
/casa/workspace/Chronos-RISCV6/FreeRTOS/Debug/../FreeRTOS/globalMaster.c:150

            // If the nextRun of this application is right now, then release each task!
            if(applications[i].nextRun <= tick && applications[i].nextRun != applications[i].lastStart){
80003968:	800237b7          	lui	a5,0x80023
8000396c:	fec42703          	lw	a4,-20(s0)
80003970:	dd078693          	addi	a3,a5,-560 # 80022dd0 <__stack_top+0xfffdbe40>
80003974:	00070793          	mv	a5,a4
80003978:	00279793          	slli	a5,a5,0x2
8000397c:	00e787b3          	add	a5,a5,a4
80003980:	00579793          	slli	a5,a5,0x5
80003984:	00f687b3          	add	a5,a3,a5
80003988:	08c7a783          	lw	a5,140(a5)
8000398c:	fdc42703          	lw	a4,-36(s0)
80003990:	22f76a63          	bltu	a4,a5,80003bc4 <API_AllocateTasks+0x2a8>
/casa/workspace/Chronos-RISCV6/FreeRTOS/Debug/../FreeRTOS/globalMaster.c:150 (discriminator 1)
80003994:	800237b7          	lui	a5,0x80023
80003998:	fec42703          	lw	a4,-20(s0)
8000399c:	dd078693          	addi	a3,a5,-560 # 80022dd0 <__stack_top+0xfffdbe40>
800039a0:	00070793          	mv	a5,a4
800039a4:	00279793          	slli	a5,a5,0x2
800039a8:	00e787b3          	add	a5,a5,a4
800039ac:	00579793          	slli	a5,a5,0x5
800039b0:	00f687b3          	add	a5,a3,a5
800039b4:	08c7a683          	lw	a3,140(a5)
800039b8:	800237b7          	lui	a5,0x80023
800039bc:	fec42703          	lw	a4,-20(s0)
800039c0:	dd078613          	addi	a2,a5,-560 # 80022dd0 <__stack_top+0xfffdbe40>
800039c4:	00070793          	mv	a5,a4
800039c8:	00279793          	slli	a5,a5,0x2
800039cc:	00e787b3          	add	a5,a5,a4
800039d0:	00579793          	slli	a5,a5,0x5
800039d4:	00f607b3          	add	a5,a2,a5
800039d8:	0947a783          	lw	a5,148(a5)
800039dc:	1ef68463          	beq	a3,a5,80003bc4 <API_AllocateTasks+0x2a8>
/casa/workspace/Chronos-RISCV6/FreeRTOS/Debug/../FreeRTOS/globalMaster.c:153

                // If the system has space to accept every task
                if(applications[i].numTasks <= API_GetSystemTasksSlots()){
800039e0:	800236b7          	lui	a3,0x80023
800039e4:	fec42703          	lw	a4,-20(s0)
800039e8:	00070793          	mv	a5,a4
800039ec:	00279793          	slli	a5,a5,0x2
800039f0:	00e787b3          	add	a5,a5,a4
800039f4:	00579793          	slli	a5,a5,0x5
800039f8:	dd068713          	addi	a4,a3,-560 # 80022dd0 <__stack_top+0xfffdbe40>
800039fc:	00e787b3          	add	a5,a5,a4
80003a00:	0107a483          	lw	s1,16(a5)
80003a04:	191000ef          	jal	ra,80004394 <API_GetSystemTasksSlots>
80003a08:	00050793          	mv	a5,a0
80003a0c:	1a97ec63          	bltu	a5,s1,80003bc4 <API_AllocateTasks+0x2a8>
/casa/workspace/Chronos-RISCV6/FreeRTOS/Debug/../FreeRTOS/globalMaster.c:156
                    
                    // Iterates around each task of this application
                    for(j = 0; j < applications[i].numTasks; j++){
80003a10:	fe042423          	sw	zero,-24(s0)
80003a14:	13c0006f          	j	80003b50 <API_AllocateTasks+0x234>
/casa/workspace/Chronos-RISCV6/FreeRTOS/Debug/../FreeRTOS/globalMaster.c:159

                        for(;;){
                            addr = getNextPriorityAddr();
80003a18:	5ac000ef          	jal	ra,80003fc4 <getNextPriorityAddr>
80003a1c:	00050793          	mv	a5,a0
80003a20:	fef42223          	sw	a5,-28(s0)
/casa/workspace/Chronos-RISCV6/FreeRTOS/Debug/../FreeRTOS/globalMaster.c:160
                            slot = API_GetTaskSlotFromTile(addr, i, j);
80003a24:	fe442783          	lw	a5,-28(s0)
80003a28:	fec42703          	lw	a4,-20(s0)
80003a2c:	fe842683          	lw	a3,-24(s0)
80003a30:	00068613          	mv	a2,a3
80003a34:	00070593          	mv	a1,a4
80003a38:	00078513          	mv	a0,a5
80003a3c:	6bc000ef          	jal	ra,800040f8 <API_GetTaskSlotFromTile>
80003a40:	00050793          	mv	a5,a0
80003a44:	fef42023          	sw	a5,-32(s0)
/casa/workspace/Chronos-RISCV6/FreeRTOS/Debug/../FreeRTOS/globalMaster.c:161
                            if (slot != ERRO)
80003a48:	fe042703          	lw	a4,-32(s0)
80003a4c:	fff00793          	li	a5,-1
80003a50:	00f71463          	bne	a4,a5,80003a58 <API_AllocateTasks+0x13c>
/casa/workspace/Chronos-RISCV6/FreeRTOS/Debug/../FreeRTOS/globalMaster.c:159
                            addr = getNextPriorityAddr();
80003a54:	fc5ff06f          	j	80003a18 <API_AllocateTasks+0xfc>
/casa/workspace/Chronos-RISCV6/FreeRTOS/Debug/../FreeRTOS/globalMaster.c:162
                                break;
80003a58:	00000013          	nop
/casa/workspace/Chronos-RISCV6/FreeRTOS/Debug/../FreeRTOS/globalMaster.c:164
                        }
                        applications[i].tasks[j].status = TASK_ALLOCATING;
80003a5c:	80023737          	lui	a4,0x80023
80003a60:	fe842783          	lw	a5,-24(s0)
80003a64:	fec42683          	lw	a3,-20(s0)
80003a68:	dd070613          	addi	a2,a4,-560 # 80022dd0 <__stack_top+0xfffdbe40>
80003a6c:	00078713          	mv	a4,a5
80003a70:	00171713          	slli	a4,a4,0x1
80003a74:	00f70733          	add	a4,a4,a5
80003a78:	00271793          	slli	a5,a4,0x2
80003a7c:	00078713          	mv	a4,a5
80003a80:	00068793          	mv	a5,a3
80003a84:	00279793          	slli	a5,a5,0x2
80003a88:	00d787b3          	add	a5,a5,a3
80003a8c:	00579793          	slli	a5,a5,0x5
80003a90:	00f707b3          	add	a5,a4,a5
80003a94:	00f607b3          	add	a5,a2,a5
80003a98:	00300713          	li	a4,3
80003a9c:	00e7aa23          	sw	a4,20(a5)
/casa/workspace/Chronos-RISCV6/FreeRTOS/Debug/../FreeRTOS/globalMaster.c:165
                        applications[i].tasks[j].addr = addr;
80003aa0:	fe442603          	lw	a2,-28(s0)
80003aa4:	80023737          	lui	a4,0x80023
80003aa8:	fe842783          	lw	a5,-24(s0)
80003aac:	fec42683          	lw	a3,-20(s0)
80003ab0:	dd070593          	addi	a1,a4,-560 # 80022dd0 <__stack_top+0xfffdbe40>
80003ab4:	00078713          	mv	a4,a5
80003ab8:	00171713          	slli	a4,a4,0x1
80003abc:	00f70733          	add	a4,a4,a5
80003ac0:	00271793          	slli	a5,a4,0x2
80003ac4:	00078713          	mv	a4,a5
80003ac8:	00068793          	mv	a5,a3
80003acc:	00279793          	slli	a5,a5,0x2
80003ad0:	00d787b3          	add	a5,a5,a3
80003ad4:	00579793          	slli	a5,a5,0x5
80003ad8:	00f707b3          	add	a5,a4,a5
80003adc:	00f587b3          	add	a5,a1,a5
80003ae0:	00c7ac23          	sw	a2,24(a5)
/casa/workspace/Chronos-RISCV6/FreeRTOS/Debug/../FreeRTOS/globalMaster.c:166
                        applications[i].tasks[j].slot = slot;
80003ae4:	fe042603          	lw	a2,-32(s0)
80003ae8:	80023737          	lui	a4,0x80023
80003aec:	fe842783          	lw	a5,-24(s0)
80003af0:	fec42683          	lw	a3,-20(s0)
80003af4:	dd070593          	addi	a1,a4,-560 # 80022dd0 <__stack_top+0xfffdbe40>
80003af8:	00078713          	mv	a4,a5
80003afc:	00171713          	slli	a4,a4,0x1
80003b00:	00f70733          	add	a4,a4,a5
80003b04:	00271793          	slli	a5,a4,0x2
80003b08:	00078713          	mv	a4,a5
80003b0c:	00068793          	mv	a5,a3
80003b10:	00279793          	slli	a5,a5,0x2
80003b14:	00d787b3          	add	a5,a5,a3
80003b18:	00579793          	slli	a5,a5,0x5
80003b1c:	00f707b3          	add	a5,a4,a5
80003b20:	00f587b3          	add	a5,a1,a5
80003b24:	00c7ae23          	sw	a2,28(a5)
/casa/workspace/Chronos-RISCV6/FreeRTOS/Debug/../FreeRTOS/globalMaster.c:167
                        API_RepositoryAllocation(i, j, addr);
80003b28:	fec42783          	lw	a5,-20(s0)
80003b2c:	fe842703          	lw	a4,-24(s0)
80003b30:	fe442683          	lw	a3,-28(s0)
80003b34:	00068613          	mv	a2,a3
80003b38:	00070593          	mv	a1,a4
80003b3c:	00078513          	mv	a0,a5
80003b40:	141000ef          	jal	ra,80004480 <API_RepositoryAllocation>
/casa/workspace/Chronos-RISCV6/FreeRTOS/Debug/../FreeRTOS/globalMaster.c:156
                    for(j = 0; j < applications[i].numTasks; j++){
80003b44:	fe842783          	lw	a5,-24(s0)
80003b48:	00178793          	addi	a5,a5,1
80003b4c:	fef42423          	sw	a5,-24(s0)
/casa/workspace/Chronos-RISCV6/FreeRTOS/Debug/../FreeRTOS/globalMaster.c:156 (discriminator 1)
80003b50:	800236b7          	lui	a3,0x80023
80003b54:	fec42703          	lw	a4,-20(s0)
80003b58:	00070793          	mv	a5,a4
80003b5c:	00279793          	slli	a5,a5,0x2
80003b60:	00e787b3          	add	a5,a5,a4
80003b64:	00579793          	slli	a5,a5,0x5
80003b68:	dd068713          	addi	a4,a3,-560 # 80022dd0 <__stack_top+0xfffdbe40>
80003b6c:	00e787b3          	add	a5,a5,a4
80003b70:	0107a703          	lw	a4,16(a5)
80003b74:	fe842783          	lw	a5,-24(s0)
80003b78:	eae7e0e3          	bltu	a5,a4,80003a18 <API_AllocateTasks+0xfc>
/casa/workspace/Chronos-RISCV6/FreeRTOS/Debug/../FreeRTOS/globalMaster.c:171
                    }

                    // Resets the lastStart
                    applications[i].lastStart = applications[i].nextRun;
80003b7c:	800237b7          	lui	a5,0x80023
80003b80:	fec42703          	lw	a4,-20(s0)
80003b84:	dd078693          	addi	a3,a5,-560 # 80022dd0 <__stack_top+0xfffdbe40>
80003b88:	00070793          	mv	a5,a4
80003b8c:	00279793          	slli	a5,a5,0x2
80003b90:	00e787b3          	add	a5,a5,a4
80003b94:	00579793          	slli	a5,a5,0x5
80003b98:	00f687b3          	add	a5,a3,a5
80003b9c:	08c7a683          	lw	a3,140(a5)
80003ba0:	800237b7          	lui	a5,0x80023
80003ba4:	fec42703          	lw	a4,-20(s0)
80003ba8:	dd078613          	addi	a2,a5,-560 # 80022dd0 <__stack_top+0xfffdbe40>
80003bac:	00070793          	mv	a5,a4
80003bb0:	00279793          	slli	a5,a5,0x2
80003bb4:	00e787b3          	add	a5,a5,a4
80003bb8:	00579793          	slli	a5,a5,0x5
80003bbc:	00f607b3          	add	a5,a2,a5
80003bc0:	08d7aa23          	sw	a3,148(a5)
/casa/workspace/Chronos-RISCV6/FreeRTOS/Debug/../FreeRTOS/globalMaster.c:145 (discriminator 2)
    for (i = 0; i < NUM_MAX_APPS; i++){
80003bc4:	fec42783          	lw	a5,-20(s0)
80003bc8:	00178793          	addi	a5,a5,1
80003bcc:	fef42623          	sw	a5,-20(s0)
/casa/workspace/Chronos-RISCV6/FreeRTOS/Debug/../FreeRTOS/globalMaster.c:145 (discriminator 1)
80003bd0:	fec42703          	lw	a4,-20(s0)
80003bd4:	00b00793          	li	a5,11
80003bd8:	d6e7d2e3          	ble	a4,a5,8000393c <API_AllocateTasks+0x20>
/casa/workspace/Chronos-RISCV6/FreeRTOS/Debug/../FreeRTOS/globalMaster.c:177
                }
            }
        }
    }

    return;
80003bdc:	00000013          	nop
/casa/workspace/Chronos-RISCV6/FreeRTOS/Debug/../FreeRTOS/globalMaster.c:178
}
80003be0:	02c12083          	lw	ra,44(sp)
80003be4:	02812403          	lw	s0,40(sp)
80003be8:	02412483          	lw	s1,36(sp)
80003bec:	03010113          	addi	sp,sp,48
80003bf0:	00008067          	ret

80003bf4 <API_DealocateTask>:
API_DealocateTask():
/casa/workspace/Chronos-RISCV6/FreeRTOS/Debug/../FreeRTOS/globalMaster.c:180

void API_DealocateTask(unsigned int task_id, unsigned int app_id){
80003bf4:	fd010113          	addi	sp,sp,-48
80003bf8:	02112623          	sw	ra,44(sp)
80003bfc:	02812423          	sw	s0,40(sp)
80003c00:	03010413          	addi	s0,sp,48
80003c04:	fca42e23          	sw	a0,-36(s0)
80003c08:	fcb42c23          	sw	a1,-40(s0)
/casa/workspace/Chronos-RISCV6/FreeRTOS/Debug/../FreeRTOS/globalMaster.c:183
    unsigned int i, tick;
    volatile int flag;
    applications[app_id].tasks[task_id].status = TASK_FINISHED;
80003c0c:	80023737          	lui	a4,0x80023
80003c10:	fdc42783          	lw	a5,-36(s0)
80003c14:	fd842683          	lw	a3,-40(s0)
80003c18:	dd070613          	addi	a2,a4,-560 # 80022dd0 <__stack_top+0xfffdbe40>
80003c1c:	00078713          	mv	a4,a5
80003c20:	00171713          	slli	a4,a4,0x1
80003c24:	00f70733          	add	a4,a4,a5
80003c28:	00271793          	slli	a5,a4,0x2
80003c2c:	00078713          	mv	a4,a5
80003c30:	00068793          	mv	a5,a3
80003c34:	00279793          	slli	a5,a5,0x2
80003c38:	00d787b3          	add	a5,a5,a3
80003c3c:	00579793          	slli	a5,a5,0x5
80003c40:	00f707b3          	add	a5,a4,a5
80003c44:	00f607b3          	add	a5,a2,a5
80003c48:	00200713          	li	a4,2
80003c4c:	00e7aa23          	sw	a4,20(a5)
/casa/workspace/Chronos-RISCV6/FreeRTOS/Debug/../FreeRTOS/globalMaster.c:185
    // verify if every task has finished
    flag = 1;
80003c50:	00100793          	li	a5,1
80003c54:	fef42223          	sw	a5,-28(s0)
/casa/workspace/Chronos-RISCV6/FreeRTOS/Debug/../FreeRTOS/globalMaster.c:186
    for (i = 0; i < applications[app_id].numTasks; i++){
80003c58:	fe042623          	sw	zero,-20(s0)
80003c5c:	0d00006f          	j	80003d2c <API_DealocateTask+0x138>
/casa/workspace/Chronos-RISCV6/FreeRTOS/Debug/../FreeRTOS/globalMaster.c:187
        printsvsv("checking ", i, "task is: ", applications[app_id].tasks[i].status);
80003c60:	fec42583          	lw	a1,-20(s0)
80003c64:	80023737          	lui	a4,0x80023
80003c68:	fec42783          	lw	a5,-20(s0)
80003c6c:	fd842683          	lw	a3,-40(s0)
80003c70:	dd070613          	addi	a2,a4,-560 # 80022dd0 <__stack_top+0xfffdbe40>
80003c74:	00078713          	mv	a4,a5
80003c78:	00171713          	slli	a4,a4,0x1
80003c7c:	00f70733          	add	a4,a4,a5
80003c80:	00271793          	slli	a5,a4,0x2
80003c84:	00078713          	mv	a4,a5
80003c88:	00068793          	mv	a5,a3
80003c8c:	00279793          	slli	a5,a5,0x2
80003c90:	00d787b3          	add	a5,a5,a3
80003c94:	00579793          	slli	a5,a5,0x5
80003c98:	00f707b3          	add	a5,a4,a5
80003c9c:	00f607b3          	add	a5,a2,a5
80003ca0:	0147a783          	lw	a5,20(a5)
80003ca4:	00078693          	mv	a3,a5
80003ca8:	800097b7          	lui	a5,0x80009
80003cac:	ad478613          	addi	a2,a5,-1324 # 80008ad4 <__stack_top+0xfffc1b44>
80003cb0:	800097b7          	lui	a5,0x80009
80003cb4:	ae078513          	addi	a0,a5,-1312 # 80008ae0 <__stack_top+0xfffc1b50>
80003cb8:	0b5020ef          	jal	ra,8000656c <printsvsv>
/casa/workspace/Chronos-RISCV6/FreeRTOS/Debug/../FreeRTOS/globalMaster.c:188
        printsv("from app: ", app_id);
80003cbc:	fd842783          	lw	a5,-40(s0)
80003cc0:	00078593          	mv	a1,a5
80003cc4:	800097b7          	lui	a5,0x80009
80003cc8:	aec78513          	addi	a0,a5,-1300 # 80008aec <__stack_top+0xfffc1b5c>
80003ccc:	059020ef          	jal	ra,80006524 <printsv>
/casa/workspace/Chronos-RISCV6/FreeRTOS/Debug/../FreeRTOS/globalMaster.c:189
        if(applications[app_id].tasks[i].status != TASK_FINISHED){
80003cd0:	80023737          	lui	a4,0x80023
80003cd4:	fec42783          	lw	a5,-20(s0)
80003cd8:	fd842683          	lw	a3,-40(s0)
80003cdc:	dd070613          	addi	a2,a4,-560 # 80022dd0 <__stack_top+0xfffdbe40>
80003ce0:	00078713          	mv	a4,a5
80003ce4:	00171713          	slli	a4,a4,0x1
80003ce8:	00f70733          	add	a4,a4,a5
80003cec:	00271793          	slli	a5,a4,0x2
80003cf0:	00078713          	mv	a4,a5
80003cf4:	00068793          	mv	a5,a3
80003cf8:	00279793          	slli	a5,a5,0x2
80003cfc:	00d787b3          	add	a5,a5,a3
80003d00:	00579793          	slli	a5,a5,0x5
80003d04:	00f707b3          	add	a5,a4,a5
80003d08:	00f607b3          	add	a5,a2,a5
80003d0c:	0147a703          	lw	a4,20(a5)
80003d10:	00200793          	li	a5,2
80003d14:	00f70663          	beq	a4,a5,80003d20 <API_DealocateTask+0x12c>
/casa/workspace/Chronos-RISCV6/FreeRTOS/Debug/../FreeRTOS/globalMaster.c:190
            flag = 0;
80003d18:	fe042223          	sw	zero,-28(s0)
/casa/workspace/Chronos-RISCV6/FreeRTOS/Debug/../FreeRTOS/globalMaster.c:191
            break;
80003d1c:	03c0006f          	j	80003d58 <API_DealocateTask+0x164>
/casa/workspace/Chronos-RISCV6/FreeRTOS/Debug/../FreeRTOS/globalMaster.c:186 (discriminator 2)
    for (i = 0; i < applications[app_id].numTasks; i++){
80003d20:	fec42783          	lw	a5,-20(s0)
80003d24:	00178793          	addi	a5,a5,1
80003d28:	fef42623          	sw	a5,-20(s0)
/casa/workspace/Chronos-RISCV6/FreeRTOS/Debug/../FreeRTOS/globalMaster.c:186 (discriminator 1)
80003d2c:	800236b7          	lui	a3,0x80023
80003d30:	fd842703          	lw	a4,-40(s0)
80003d34:	00070793          	mv	a5,a4
80003d38:	00279793          	slli	a5,a5,0x2
80003d3c:	00e787b3          	add	a5,a5,a4
80003d40:	00579793          	slli	a5,a5,0x5
80003d44:	dd068713          	addi	a4,a3,-560 # 80022dd0 <__stack_top+0xfffdbe40>
80003d48:	00e787b3          	add	a5,a5,a4
80003d4c:	0107a783          	lw	a5,16(a5)
80003d50:	fec42703          	lw	a4,-20(s0)
80003d54:	f0f766e3          	bltu	a4,a5,80003c60 <API_DealocateTask+0x6c>
/casa/workspace/Chronos-RISCV6/FreeRTOS/Debug/../FreeRTOS/globalMaster.c:195
        }
    }
    // in positive case
    if(flag){
80003d58:	fe442783          	lw	a5,-28(s0)
80003d5c:	24078663          	beqz	a5,80003fa8 <API_DealocateTask+0x3b4>
/casa/workspace/Chronos-RISCV6/FreeRTOS/Debug/../FreeRTOS/globalMaster.c:197
        // register that the application has executed another time
        tick = xTaskGetTickCount();
80003d60:	aedfe0ef          	jal	ra,8000284c <xTaskGetTickCount>
80003d64:	fea42423          	sw	a0,-24(s0)
/casa/workspace/Chronos-RISCV6/FreeRTOS/Debug/../FreeRTOS/globalMaster.c:198
        applications[app_id].executed++;
80003d68:	800236b7          	lui	a3,0x80023
80003d6c:	fd842703          	lw	a4,-40(s0)
80003d70:	00070793          	mv	a5,a4
80003d74:	00279793          	slli	a5,a5,0x2
80003d78:	00e787b3          	add	a5,a5,a4
80003d7c:	00579793          	slli	a5,a5,0x5
80003d80:	dd068713          	addi	a4,a3,-560 # 80022dd0 <__stack_top+0xfffdbe40>
80003d84:	00e787b3          	add	a5,a5,a4
80003d88:	0907a783          	lw	a5,144(a5)
80003d8c:	00178693          	addi	a3,a5,1
80003d90:	80023637          	lui	a2,0x80023
80003d94:	fd842703          	lw	a4,-40(s0)
80003d98:	00070793          	mv	a5,a4
80003d9c:	00279793          	slli	a5,a5,0x2
80003da0:	00e787b3          	add	a5,a5,a4
80003da4:	00579793          	slli	a5,a5,0x5
80003da8:	dd060713          	addi	a4,a2,-560 # 80022dd0 <__stack_top+0xfffdbe40>
80003dac:	00e787b3          	add	a5,a5,a4
80003db0:	08d7a823          	sw	a3,144(a5)
/casa/workspace/Chronos-RISCV6/FreeRTOS/Debug/../FreeRTOS/globalMaster.c:199
        printsvsv("Application ", app_id, "was executed in ", (tick - applications[app_id].lastStart));
80003db4:	fd842583          	lw	a1,-40(s0)
80003db8:	800237b7          	lui	a5,0x80023
80003dbc:	fd842703          	lw	a4,-40(s0)
80003dc0:	dd078693          	addi	a3,a5,-560 # 80022dd0 <__stack_top+0xfffdbe40>
80003dc4:	00070793          	mv	a5,a4
80003dc8:	00279793          	slli	a5,a5,0x2
80003dcc:	00e787b3          	add	a5,a5,a4
80003dd0:	00579793          	slli	a5,a5,0x5
80003dd4:	00f687b3          	add	a5,a3,a5
80003dd8:	0947a783          	lw	a5,148(a5)
80003ddc:	fe842703          	lw	a4,-24(s0)
80003de0:	40f707b3          	sub	a5,a4,a5
80003de4:	00078693          	mv	a3,a5
80003de8:	800097b7          	lui	a5,0x80009
80003dec:	af878613          	addi	a2,a5,-1288 # 80008af8 <__stack_top+0xfffc1b68>
80003df0:	800097b7          	lui	a5,0x80009
80003df4:	b0c78513          	addi	a0,a5,-1268 # 80008b0c <__stack_top+0xfffc1b7c>
80003df8:	774020ef          	jal	ra,8000656c <printsvsv>
/casa/workspace/Chronos-RISCV6/FreeRTOS/Debug/../FreeRTOS/globalMaster.c:200
        applications[app_id].lastFinish = tick;
80003dfc:	800237b7          	lui	a5,0x80023
80003e00:	fd842703          	lw	a4,-40(s0)
80003e04:	dd078693          	addi	a3,a5,-560 # 80022dd0 <__stack_top+0xfffdbe40>
80003e08:	00070793          	mv	a5,a4
80003e0c:	00279793          	slli	a5,a5,0x2
80003e10:	00e787b3          	add	a5,a5,a4
80003e14:	00579793          	slli	a5,a5,0x5
80003e18:	00f687b3          	add	a5,a3,a5
80003e1c:	fe842703          	lw	a4,-24(s0)
80003e20:	08e7ae23          	sw	a4,156(a5)
/casa/workspace/Chronos-RISCV6/FreeRTOS/Debug/../FreeRTOS/globalMaster.c:202
        // if the application must run another time
        if(applications[app_id].appExec > applications[app_id].executed){
80003e24:	800237b7          	lui	a5,0x80023
80003e28:	fd842703          	lw	a4,-40(s0)
80003e2c:	dd078693          	addi	a3,a5,-560 # 80022dd0 <__stack_top+0xfffdbe40>
80003e30:	00070793          	mv	a5,a4
80003e34:	00279793          	slli	a5,a5,0x2
80003e38:	00e787b3          	add	a5,a5,a4
80003e3c:	00579793          	slli	a5,a5,0x5
80003e40:	00f687b3          	add	a5,a3,a5
80003e44:	00c7a683          	lw	a3,12(a5)
80003e48:	80023637          	lui	a2,0x80023
80003e4c:	fd842703          	lw	a4,-40(s0)
80003e50:	00070793          	mv	a5,a4
80003e54:	00279793          	slli	a5,a5,0x2
80003e58:	00e787b3          	add	a5,a5,a4
80003e5c:	00579793          	slli	a5,a5,0x5
80003e60:	dd060713          	addi	a4,a2,-560 # 80022dd0 <__stack_top+0xfffdbe40>
80003e64:	00e787b3          	add	a5,a5,a4
80003e68:	0907a783          	lw	a5,144(a5)
80003e6c:	0ad7fa63          	bleu	a3,a5,80003f20 <API_DealocateTask+0x32c>
/casa/workspace/Chronos-RISCV6/FreeRTOS/Debug/../FreeRTOS/globalMaster.c:203
            printsv("\t\tThis application still need to run: ", (applications[app_id].appExec - applications[app_id].executed));
80003e70:	800237b7          	lui	a5,0x80023
80003e74:	fd842703          	lw	a4,-40(s0)
80003e78:	dd078693          	addi	a3,a5,-560 # 80022dd0 <__stack_top+0xfffdbe40>
80003e7c:	00070793          	mv	a5,a4
80003e80:	00279793          	slli	a5,a5,0x2
80003e84:	00e787b3          	add	a5,a5,a4
80003e88:	00579793          	slli	a5,a5,0x5
80003e8c:	00f687b3          	add	a5,a3,a5
80003e90:	00c7a683          	lw	a3,12(a5)
80003e94:	80023637          	lui	a2,0x80023
80003e98:	fd842703          	lw	a4,-40(s0)
80003e9c:	00070793          	mv	a5,a4
80003ea0:	00279793          	slli	a5,a5,0x2
80003ea4:	00e787b3          	add	a5,a5,a4
80003ea8:	00579793          	slli	a5,a5,0x5
80003eac:	dd060713          	addi	a4,a2,-560 # 80022dd0 <__stack_top+0xfffdbe40>
80003eb0:	00e787b3          	add	a5,a5,a4
80003eb4:	0907a783          	lw	a5,144(a5)
80003eb8:	40f687b3          	sub	a5,a3,a5
80003ebc:	00078593          	mv	a1,a5
80003ec0:	800097b7          	lui	a5,0x80009
80003ec4:	b1c78513          	addi	a0,a5,-1252 # 80008b1c <__stack_top+0xfffc1b8c>
80003ec8:	65c020ef          	jal	ra,80006524 <printsv>
/casa/workspace/Chronos-RISCV6/FreeRTOS/Debug/../FreeRTOS/globalMaster.c:204
            applications[app_id].nextRun = tick + applications[app_id].appPeriod;
80003ecc:	800237b7          	lui	a5,0x80023
80003ed0:	fd842703          	lw	a4,-40(s0)
80003ed4:	dd078693          	addi	a3,a5,-560 # 80022dd0 <__stack_top+0xfffdbe40>
80003ed8:	00070793          	mv	a5,a4
80003edc:	00279793          	slli	a5,a5,0x2
80003ee0:	00e787b3          	add	a5,a5,a4
80003ee4:	00579793          	slli	a5,a5,0x5
80003ee8:	00f687b3          	add	a5,a3,a5
80003eec:	0087a703          	lw	a4,8(a5)
80003ef0:	fe842783          	lw	a5,-24(s0)
80003ef4:	00f706b3          	add	a3,a4,a5
80003ef8:	800237b7          	lui	a5,0x80023
80003efc:	fd842703          	lw	a4,-40(s0)
80003f00:	dd078613          	addi	a2,a5,-560 # 80022dd0 <__stack_top+0xfffdbe40>
80003f04:	00070793          	mv	a5,a4
80003f08:	00279793          	slli	a5,a5,0x2
80003f0c:	00e787b3          	add	a5,a5,a4
80003f10:	00579793          	slli	a5,a5,0x5
80003f14:	00f607b3          	add	a5,a2,a5
80003f18:	08d7a623          	sw	a3,140(a5)
/casa/workspace/Chronos-RISCV6/FreeRTOS/Debug/../FreeRTOS/globalMaster.c:219
            }
            API_SystemFinish = TRUE;
            //_exit(0xfe10);
        }        
    }
    return;
80003f1c:	08c0006f          	j	80003fa8 <API_DealocateTask+0x3b4>
/casa/workspace/Chronos-RISCV6/FreeRTOS/Debug/../FreeRTOS/globalMaster.c:206
            prints("\t\tThis application is DONE!\n");
80003f20:	800097b7          	lui	a5,0x80009
80003f24:	b4478513          	addi	a0,a5,-1212 # 80008b44 <__stack_top+0xfffc1bb4>
80003f28:	550020ef          	jal	ra,80006478 <prints>
/casa/workspace/Chronos-RISCV6/FreeRTOS/Debug/../FreeRTOS/globalMaster.c:207
            applications[app_id].occupied = FALSE;
80003f2c:	800236b7          	lui	a3,0x80023
80003f30:	fd842703          	lw	a4,-40(s0)
80003f34:	00070793          	mv	a5,a4
80003f38:	00279793          	slli	a5,a5,0x2
80003f3c:	00e787b3          	add	a5,a5,a4
80003f40:	00579793          	slli	a5,a5,0x5
80003f44:	dd068713          	addi	a4,a3,-560 # 80022dd0 <__stack_top+0xfffdbe40>
80003f48:	00e787b3          	add	a5,a5,a4
80003f4c:	0007a023          	sw	zero,0(a5)
/casa/workspace/Chronos-RISCV6/FreeRTOS/Debug/../FreeRTOS/globalMaster.c:210
            for(i = 0; i < NUM_MAX_APPS; i++){
80003f50:	fe042623          	sw	zero,-20(s0)
80003f54:	03c0006f          	j	80003f90 <API_DealocateTask+0x39c>
/casa/workspace/Chronos-RISCV6/FreeRTOS/Debug/../FreeRTOS/globalMaster.c:211
                if (applications[i].occupied == TRUE){
80003f58:	800236b7          	lui	a3,0x80023
80003f5c:	fec42703          	lw	a4,-20(s0)
80003f60:	00070793          	mv	a5,a4
80003f64:	00279793          	slli	a5,a5,0x2
80003f68:	00e787b3          	add	a5,a5,a4
80003f6c:	00579793          	slli	a5,a5,0x5
80003f70:	dd068713          	addi	a4,a3,-560 # 80022dd0 <__stack_top+0xfffdbe40>
80003f74:	00e787b3          	add	a5,a5,a4
80003f78:	0007a703          	lw	a4,0(a5)
80003f7c:	00100793          	li	a5,1
80003f80:	02f70863          	beq	a4,a5,80003fb0 <API_DealocateTask+0x3bc>
/casa/workspace/Chronos-RISCV6/FreeRTOS/Debug/../FreeRTOS/globalMaster.c:210 (discriminator 2)
            for(i = 0; i < NUM_MAX_APPS; i++){
80003f84:	fec42783          	lw	a5,-20(s0)
80003f88:	00178793          	addi	a5,a5,1
80003f8c:	fef42623          	sw	a5,-20(s0)
/casa/workspace/Chronos-RISCV6/FreeRTOS/Debug/../FreeRTOS/globalMaster.c:210 (discriminator 1)
80003f90:	fec42703          	lw	a4,-20(s0)
80003f94:	00b00793          	li	a5,11
80003f98:	fce7f0e3          	bleu	a4,a5,80003f58 <API_DealocateTask+0x364>
/casa/workspace/Chronos-RISCV6/FreeRTOS/Debug/../FreeRTOS/globalMaster.c:215
            API_SystemFinish = TRUE;
80003f9c:	00100713          	li	a4,1
80003fa0:	98e1a823          	sw	a4,-1648(gp) # 800096c0 <API_SystemFinish>
/casa/workspace/Chronos-RISCV6/FreeRTOS/Debug/../FreeRTOS/globalMaster.c:219
    return;
80003fa4:	00000013          	nop
80003fa8:	00000013          	nop
80003fac:	0080006f          	j	80003fb4 <API_DealocateTask+0x3c0>
/casa/workspace/Chronos-RISCV6/FreeRTOS/Debug/../FreeRTOS/globalMaster.c:212
                    return;
80003fb0:	00000013          	nop
/casa/workspace/Chronos-RISCV6/FreeRTOS/Debug/../FreeRTOS/globalMaster.c:220
}
80003fb4:	02c12083          	lw	ra,44(sp)
80003fb8:	02812403          	lw	s0,40(sp)
80003fbc:	03010113          	addi	sp,sp,48
80003fc0:	00008067          	ret

80003fc4 <getNextPriorityAddr>:
getNextPriorityAddr():
/casa/workspace/Chronos-RISCV6/FreeRTOS/Debug/../FreeRTOS/globalMaster.c:223

// Gets the address of the next tile in the priority list 
unsigned int getNextPriorityAddr(){
80003fc4:	fe010113          	addi	sp,sp,-32
80003fc8:	00112e23          	sw	ra,28(sp)
80003fcc:	00812c23          	sw	s0,24(sp)
80003fd0:	00912a23          	sw	s1,20(sp)
80003fd4:	02010413          	addi	s0,sp,32
/casa/workspace/Chronos-RISCV6/FreeRTOS/Debug/../FreeRTOS/globalMaster.c:225
    int i;
    unsigned int addr = makeAddress(0,0);
80003fd8:	00000593          	li	a1,0
80003fdc:	00000513          	li	a0,0
80003fe0:	2a1020ef          	jal	ra,80006a80 <makeAddress>
80003fe4:	fea42623          	sw	a0,-20(s0)
/casa/workspace/Chronos-RISCV6/FreeRTOS/Debug/../FreeRTOS/globalMaster.c:228
    for(;;){
        // Checks if it's a valid address
        if (priorityMatrix[priorityPointer] != makeAddress(0,0)){
80003fe8:	800237b7          	lui	a5,0x80023
80003fec:	5947a703          	lw	a4,1428(a5) # 80023594 <__stack_top+0xfffdc604>
80003ff0:	800237b7          	lui	a5,0x80023
80003ff4:	00271713          	slli	a4,a4,0x2
80003ff8:	d9078793          	addi	a5,a5,-624 # 80022d90 <__stack_top+0xfffdbe00>
80003ffc:	00f707b3          	add	a5,a4,a5
80004000:	0007a483          	lw	s1,0(a5)
80004004:	00000593          	li	a1,0
80004008:	00000513          	li	a0,0
8000400c:	275020ef          	jal	ra,80006a80 <makeAddress>
80004010:	00050793          	mv	a5,a0
80004014:	06f48e63          	beq	s1,a5,80004090 <getNextPriorityAddr+0xcc>
/casa/workspace/Chronos-RISCV6/FreeRTOS/Debug/../FreeRTOS/globalMaster.c:229
            if (Tiles[getXpos(addr)][getYpos(addr)].taskSlots > 0){
80004018:	fec42503          	lw	a0,-20(s0)
8000401c:	5b0020ef          	jal	ra,800065cc <getXpos>
80004020:	00050493          	mv	s1,a0
80004024:	fec42503          	lw	a0,-20(s0)
80004028:	5d0020ef          	jal	ra,800065f8 <getYpos>
8000402c:	00050613          	mv	a2,a0
80004030:	800237b7          	lui	a5,0x80023
80004034:	59878693          	addi	a3,a5,1432 # 80023598 <__stack_top+0xfffdc608>
80004038:	00060713          	mv	a4,a2
8000403c:	00171793          	slli	a5,a4,0x1
80004040:	00078713          	mv	a4,a5
80004044:	00c70733          	add	a4,a4,a2
80004048:	00271793          	slli	a5,a4,0x2
8000404c:	00078713          	mv	a4,a5
80004050:	00048793          	mv	a5,s1
80004054:	00179793          	slli	a5,a5,0x1
80004058:	009787b3          	add	a5,a5,s1
8000405c:	00479793          	slli	a5,a5,0x4
80004060:	00f707b3          	add	a5,a4,a5
80004064:	00f687b3          	add	a5,a3,a5
80004068:	0087a783          	lw	a5,8(a5)
8000406c:	02078263          	beqz	a5,80004090 <getNextPriorityAddr+0xcc>
/casa/workspace/Chronos-RISCV6/FreeRTOS/Debug/../FreeRTOS/globalMaster.c:232
            //for(i = 0; i < NUM_MAX_TASKS; i++){
                //if (Tiles[getXpos(addr)][getYpos(addr)].AppTask[i] == NONE)
                    addr = priorityMatrix[priorityPointer];
80004070:	800237b7          	lui	a5,0x80023
80004074:	5947a703          	lw	a4,1428(a5) # 80023594 <__stack_top+0xfffdc604>
80004078:	800237b7          	lui	a5,0x80023
8000407c:	00271713          	slli	a4,a4,0x2
80004080:	d9078793          	addi	a5,a5,-624 # 80022d90 <__stack_top+0xfffdbe00>
80004084:	00f707b3          	add	a5,a4,a5
80004088:	0007a783          	lw	a5,0(a5)
8000408c:	fef42623          	sw	a5,-20(s0)
/casa/workspace/Chronos-RISCV6/FreeRTOS/Debug/../FreeRTOS/globalMaster.c:238
            //}
            }
        }

        // Increments the priorityPointer
        priorityPointer++;
80004090:	800237b7          	lui	a5,0x80023
80004094:	5947a783          	lw	a5,1428(a5) # 80023594 <__stack_top+0xfffdc604>
80004098:	00178713          	addi	a4,a5,1
8000409c:	800237b7          	lui	a5,0x80023
800040a0:	58e7aa23          	sw	a4,1428(a5) # 80023594 <__stack_top+0xfffdc604>
/casa/workspace/Chronos-RISCV6/FreeRTOS/Debug/../FreeRTOS/globalMaster.c:239
        if (priorityPointer == DIM_X*DIM_Y)
800040a4:	800237b7          	lui	a5,0x80023
800040a8:	5947a703          	lw	a4,1428(a5) # 80023594 <__stack_top+0xfffdc604>
800040ac:	01000793          	li	a5,16
800040b0:	00f71663          	bne	a4,a5,800040bc <getNextPriorityAddr+0xf8>
/casa/workspace/Chronos-RISCV6/FreeRTOS/Debug/../FreeRTOS/globalMaster.c:240
            priorityPointer = 0;
800040b4:	800237b7          	lui	a5,0x80023
800040b8:	5807aa23          	sw	zero,1428(a5) # 80023594 <__stack_top+0xfffdc604>
/casa/workspace/Chronos-RISCV6/FreeRTOS/Debug/../FreeRTOS/globalMaster.c:243

        // If we found a new valid address, return
        if( addr != makeAddress(0,0))
800040bc:	00000593          	li	a1,0
800040c0:	00000513          	li	a0,0
800040c4:	1bd020ef          	jal	ra,80006a80 <makeAddress>
800040c8:	00050713          	mv	a4,a0
800040cc:	fec42783          	lw	a5,-20(s0)
800040d0:	00e79463          	bne	a5,a4,800040d8 <getNextPriorityAddr+0x114>
/casa/workspace/Chronos-RISCV6/FreeRTOS/Debug/../FreeRTOS/globalMaster.c:228
        if (priorityMatrix[priorityPointer] != makeAddress(0,0)){
800040d4:	f15ff06f          	j	80003fe8 <getNextPriorityAddr+0x24>
/casa/workspace/Chronos-RISCV6/FreeRTOS/Debug/../FreeRTOS/globalMaster.c:244
            break;
800040d8:	00000013          	nop
/casa/workspace/Chronos-RISCV6/FreeRTOS/Debug/../FreeRTOS/globalMaster.c:246
    }
    return addr;
800040dc:	fec42783          	lw	a5,-20(s0)
/casa/workspace/Chronos-RISCV6/FreeRTOS/Debug/../FreeRTOS/globalMaster.c:248
    //return 0x101;
}
800040e0:	00078513          	mv	a0,a5
800040e4:	01c12083          	lw	ra,28(sp)
800040e8:	01812403          	lw	s0,24(sp)
800040ec:	01412483          	lw	s1,20(sp)
800040f0:	02010113          	addi	sp,sp,32
800040f4:	00008067          	ret

800040f8 <API_GetTaskSlotFromTile>:
API_GetTaskSlotFromTile():
/casa/workspace/Chronos-RISCV6/FreeRTOS/Debug/../FreeRTOS/globalMaster.c:251

// Gets a free slot from one given tile
unsigned int API_GetTaskSlotFromTile(unsigned int addr, unsigned int app, unsigned int task){
800040f8:	fe010113          	addi	sp,sp,-32
800040fc:	00112e23          	sw	ra,28(sp)
80004100:	00812c23          	sw	s0,24(sp)
80004104:	00912a23          	sw	s1,20(sp)
80004108:	01212823          	sw	s2,16(sp)
8000410c:	02010413          	addi	s0,sp,32
80004110:	fea42623          	sw	a0,-20(s0)
80004114:	feb42423          	sw	a1,-24(s0)
80004118:	fec42223          	sw	a2,-28(s0)
/casa/workspace/Chronos-RISCV6/FreeRTOS/Debug/../FreeRTOS/globalMaster.c:261
            printsv("\t achei!! > ", i);
            Tiles[getXpos(addr)][getYpos(addr)].AppTask[i] = (app << 16) | task;
            return i;
        }
    }*/
    if(Tiles[getXpos(addr)][getYpos(addr)].taskSlots > 0){
8000411c:	fec42503          	lw	a0,-20(s0)
80004120:	4ac020ef          	jal	ra,800065cc <getXpos>
80004124:	00050493          	mv	s1,a0
80004128:	fec42503          	lw	a0,-20(s0)
8000412c:	4cc020ef          	jal	ra,800065f8 <getYpos>
80004130:	00050613          	mv	a2,a0
80004134:	800237b7          	lui	a5,0x80023
80004138:	59878693          	addi	a3,a5,1432 # 80023598 <__stack_top+0xfffdc608>
8000413c:	00060713          	mv	a4,a2
80004140:	00171793          	slli	a5,a4,0x1
80004144:	00078713          	mv	a4,a5
80004148:	00c70733          	add	a4,a4,a2
8000414c:	00271793          	slli	a5,a4,0x2
80004150:	00078713          	mv	a4,a5
80004154:	00048793          	mv	a5,s1
80004158:	00179793          	slli	a5,a5,0x1
8000415c:	009787b3          	add	a5,a5,s1
80004160:	00479793          	slli	a5,a5,0x4
80004164:	00f707b3          	add	a5,a4,a5
80004168:	00f687b3          	add	a5,a3,a5
8000416c:	0087a783          	lw	a5,8(a5)
80004170:	0a078c63          	beqz	a5,80004228 <API_GetTaskSlotFromTile+0x130>
/casa/workspace/Chronos-RISCV6/FreeRTOS/Debug/../FreeRTOS/globalMaster.c:262
        Tiles[getXpos(addr)][getYpos(addr)].taskSlots = Tiles[getXpos(addr)][getYpos(addr)].taskSlots - 1;
80004174:	fec42503          	lw	a0,-20(s0)
80004178:	454020ef          	jal	ra,800065cc <getXpos>
8000417c:	00050493          	mv	s1,a0
80004180:	fec42503          	lw	a0,-20(s0)
80004184:	474020ef          	jal	ra,800065f8 <getYpos>
80004188:	00050613          	mv	a2,a0
8000418c:	800237b7          	lui	a5,0x80023
80004190:	59878693          	addi	a3,a5,1432 # 80023598 <__stack_top+0xfffdc608>
80004194:	00060713          	mv	a4,a2
80004198:	00171793          	slli	a5,a4,0x1
8000419c:	00078713          	mv	a4,a5
800041a0:	00c70733          	add	a4,a4,a2
800041a4:	00271793          	slli	a5,a4,0x2
800041a8:	00078713          	mv	a4,a5
800041ac:	00048793          	mv	a5,s1
800041b0:	00179793          	slli	a5,a5,0x1
800041b4:	009787b3          	add	a5,a5,s1
800041b8:	00479793          	slli	a5,a5,0x4
800041bc:	00f707b3          	add	a5,a4,a5
800041c0:	00f687b3          	add	a5,a3,a5
800041c4:	0087a483          	lw	s1,8(a5)
800041c8:	fec42503          	lw	a0,-20(s0)
800041cc:	400020ef          	jal	ra,800065cc <getXpos>
800041d0:	00050913          	mv	s2,a0
800041d4:	fec42503          	lw	a0,-20(s0)
800041d8:	420020ef          	jal	ra,800065f8 <getYpos>
800041dc:	00050593          	mv	a1,a0
800041e0:	fff48693          	addi	a3,s1,-1
800041e4:	800237b7          	lui	a5,0x80023
800041e8:	59878613          	addi	a2,a5,1432 # 80023598 <__stack_top+0xfffdc608>
800041ec:	00058713          	mv	a4,a1
800041f0:	00171793          	slli	a5,a4,0x1
800041f4:	00078713          	mv	a4,a5
800041f8:	00b70733          	add	a4,a4,a1
800041fc:	00271793          	slli	a5,a4,0x2
80004200:	00078713          	mv	a4,a5
80004204:	00090793          	mv	a5,s2
80004208:	00179793          	slli	a5,a5,0x1
8000420c:	012787b3          	add	a5,a5,s2
80004210:	00479793          	slli	a5,a5,0x4
80004214:	00f707b3          	add	a5,a4,a5
80004218:	00f607b3          	add	a5,a2,a5
8000421c:	00d7a423          	sw	a3,8(a5)
/casa/workspace/Chronos-RISCV6/FreeRTOS/Debug/../FreeRTOS/globalMaster.c:263
        return 1;
80004220:	00100793          	li	a5,1
80004224:	0140006f          	j	80004238 <API_GetTaskSlotFromTile+0x140>
/casa/workspace/Chronos-RISCV6/FreeRTOS/Debug/../FreeRTOS/globalMaster.c:265
    }else {
        prints("returning erro5\n");
80004228:	800097b7          	lui	a5,0x80009
8000422c:	b6478513          	addi	a0,a5,-1180 # 80008b64 <__stack_top+0xfffc1bd4>
80004230:	248020ef          	jal	ra,80006478 <prints>
/casa/workspace/Chronos-RISCV6/FreeRTOS/Debug/../FreeRTOS/globalMaster.c:266
        return ERRO;
80004234:	fff00793          	li	a5,-1
/casa/workspace/Chronos-RISCV6/FreeRTOS/Debug/../FreeRTOS/globalMaster.c:268
    }
}
80004238:	00078513          	mv	a0,a5
8000423c:	01c12083          	lw	ra,28(sp)
80004240:	01812403          	lw	s0,24(sp)
80004244:	01412483          	lw	s1,20(sp)
80004248:	01012903          	lw	s2,16(sp)
8000424c:	02010113          	addi	sp,sp,32
80004250:	00008067          	ret

80004254 <API_ClearTaskSlotFromTile>:
API_ClearTaskSlotFromTile():
/casa/workspace/Chronos-RISCV6/FreeRTOS/Debug/../FreeRTOS/globalMaster.c:271

// Clear a slot occupied by a given task
unsigned int API_ClearTaskSlotFromTile(unsigned int addr, unsigned int app, unsigned int task){
80004254:	fe010113          	addi	sp,sp,-32
80004258:	00112e23          	sw	ra,28(sp)
8000425c:	00812c23          	sw	s0,24(sp)
80004260:	00912a23          	sw	s1,20(sp)
80004264:	02010413          	addi	s0,sp,32
80004268:	fea42623          	sw	a0,-20(s0)
8000426c:	feb42423          	sw	a1,-24(s0)
80004270:	fec42223          	sw	a2,-28(s0)
/casa/workspace/Chronos-RISCV6/FreeRTOS/Debug/../FreeRTOS/globalMaster.c:272
    Tiles[getXpos(addr)][getYpos(addr)].taskSlots++;
80004274:	fec42503          	lw	a0,-20(s0)
80004278:	354020ef          	jal	ra,800065cc <getXpos>
8000427c:	00050493          	mv	s1,a0
80004280:	fec42503          	lw	a0,-20(s0)
80004284:	374020ef          	jal	ra,800065f8 <getYpos>
80004288:	00050693          	mv	a3,a0
8000428c:	800237b7          	lui	a5,0x80023
80004290:	59878613          	addi	a2,a5,1432 # 80023598 <__stack_top+0xfffdc608>
80004294:	00068713          	mv	a4,a3
80004298:	00171793          	slli	a5,a4,0x1
8000429c:	00078713          	mv	a4,a5
800042a0:	00d70733          	add	a4,a4,a3
800042a4:	00271793          	slli	a5,a4,0x2
800042a8:	00078713          	mv	a4,a5
800042ac:	00048793          	mv	a5,s1
800042b0:	00179793          	slli	a5,a5,0x1
800042b4:	009787b3          	add	a5,a5,s1
800042b8:	00479793          	slli	a5,a5,0x4
800042bc:	00f707b3          	add	a5,a4,a5
800042c0:	00f607b3          	add	a5,a2,a5
800042c4:	0087a783          	lw	a5,8(a5)
800042c8:	00178613          	addi	a2,a5,1
800042cc:	800237b7          	lui	a5,0x80023
800042d0:	59878593          	addi	a1,a5,1432 # 80023598 <__stack_top+0xfffdc608>
800042d4:	00068713          	mv	a4,a3
800042d8:	00171793          	slli	a5,a4,0x1
800042dc:	00078713          	mv	a4,a5
800042e0:	00d70733          	add	a4,a4,a3
800042e4:	00271793          	slli	a5,a4,0x2
800042e8:	00078713          	mv	a4,a5
800042ec:	00048793          	mv	a5,s1
800042f0:	00179793          	slli	a5,a5,0x1
800042f4:	009787b3          	add	a5,a5,s1
800042f8:	00479793          	slli	a5,a5,0x4
800042fc:	00f707b3          	add	a5,a4,a5
80004300:	00f587b3          	add	a5,a1,a5
80004304:	00c7a423          	sw	a2,8(a5)
/casa/workspace/Chronos-RISCV6/FreeRTOS/Debug/../FreeRTOS/globalMaster.c:273
    if(Tiles[getXpos(addr)][getYpos(addr)].taskSlots > NUM_MAX_TASKS){
80004308:	fec42503          	lw	a0,-20(s0)
8000430c:	2c0020ef          	jal	ra,800065cc <getXpos>
80004310:	00050493          	mv	s1,a0
80004314:	fec42503          	lw	a0,-20(s0)
80004318:	2e0020ef          	jal	ra,800065f8 <getYpos>
8000431c:	00050613          	mv	a2,a0
80004320:	800237b7          	lui	a5,0x80023
80004324:	59878693          	addi	a3,a5,1432 # 80023598 <__stack_top+0xfffdc608>
80004328:	00060713          	mv	a4,a2
8000432c:	00171793          	slli	a5,a4,0x1
80004330:	00078713          	mv	a4,a5
80004334:	00c70733          	add	a4,a4,a2
80004338:	00271793          	slli	a5,a4,0x2
8000433c:	00078713          	mv	a4,a5
80004340:	00048793          	mv	a5,s1
80004344:	00179793          	slli	a5,a5,0x1
80004348:	009787b3          	add	a5,a5,s1
8000434c:	00479793          	slli	a5,a5,0x4
80004350:	00f707b3          	add	a5,a4,a5
80004354:	00f687b3          	add	a5,a3,a5
80004358:	0087a703          	lw	a4,8(a5)
8000435c:	00600793          	li	a5,6
80004360:	00e7fc63          	bleu	a4,a5,80004378 <API_ClearTaskSlotFromTile+0x124>
/casa/workspace/Chronos-RISCV6/FreeRTOS/Debug/../FreeRTOS/globalMaster.c:274
        prints("returning erro6\n");
80004364:	800097b7          	lui	a5,0x80009
80004368:	b7878513          	addi	a0,a5,-1160 # 80008b78 <__stack_top+0xfffc1be8>
8000436c:	10c020ef          	jal	ra,80006478 <prints>
/casa/workspace/Chronos-RISCV6/FreeRTOS/Debug/../FreeRTOS/globalMaster.c:275
        return ERRO;
80004370:	fff00793          	li	a5,-1
80004374:	0080006f          	j	8000437c <API_ClearTaskSlotFromTile+0x128>
/casa/workspace/Chronos-RISCV6/FreeRTOS/Debug/../FreeRTOS/globalMaster.c:278
    }
    else{
        return 1;
80004378:	00100793          	li	a5,1
/casa/workspace/Chronos-RISCV6/FreeRTOS/Debug/../FreeRTOS/globalMaster.c:282
    }
    prints("returning erro7\n");
    return ERRO;
}
8000437c:	00078513          	mv	a0,a5
80004380:	01c12083          	lw	ra,28(sp)
80004384:	01812403          	lw	s0,24(sp)
80004388:	01412483          	lw	s1,20(sp)
8000438c:	02010113          	addi	sp,sp,32
80004390:	00008067          	ret

80004394 <API_GetSystemTasksSlots>:
API_GetSystemTasksSlots():
/casa/workspace/Chronos-RISCV6/FreeRTOS/Debug/../FreeRTOS/globalMaster.c:285

// Iterates around the system tiles to sum the amount of tasks slots available
unsigned int API_GetSystemTasksSlots(){
80004394:	fe010113          	addi	sp,sp,-32
80004398:	00112e23          	sw	ra,28(sp)
8000439c:	00812c23          	sw	s0,24(sp)
800043a0:	00912a23          	sw	s1,20(sp)
800043a4:	02010413          	addi	s0,sp,32
/casa/workspace/Chronos-RISCV6/FreeRTOS/Debug/../FreeRTOS/globalMaster.c:287
    int m, n, i, sum;
    sum = 0;
800043a8:	fe042223          	sw	zero,-28(s0)
/casa/workspace/Chronos-RISCV6/FreeRTOS/Debug/../FreeRTOS/globalMaster.c:288
    for(m = 0; m < DIM_X; m++){
800043ac:	fe042623          	sw	zero,-20(s0)
800043b0:	0a80006f          	j	80004458 <API_GetSystemTasksSlots+0xc4>
/casa/workspace/Chronos-RISCV6/FreeRTOS/Debug/../FreeRTOS/globalMaster.c:289
        for(n = 0; n < DIM_Y; n++){
800043b4:	fe042423          	sw	zero,-24(s0)
800043b8:	0880006f          	j	80004440 <API_GetSystemTasksSlots+0xac>
/casa/workspace/Chronos-RISCV6/FreeRTOS/Debug/../FreeRTOS/globalMaster.c:290
            if(makeAddress(m,n) != makeAddress(0,0)){
800043bc:	fec42783          	lw	a5,-20(s0)
800043c0:	fe842703          	lw	a4,-24(s0)
800043c4:	00070593          	mv	a1,a4
800043c8:	00078513          	mv	a0,a5
800043cc:	6b4020ef          	jal	ra,80006a80 <makeAddress>
800043d0:	00050493          	mv	s1,a0
800043d4:	00000593          	li	a1,0
800043d8:	00000513          	li	a0,0
800043dc:	6a4020ef          	jal	ra,80006a80 <makeAddress>
800043e0:	00050793          	mv	a5,a0
800043e4:	04f48863          	beq	s1,a5,80004434 <API_GetSystemTasksSlots+0xa0>
/casa/workspace/Chronos-RISCV6/FreeRTOS/Debug/../FreeRTOS/globalMaster.c:291
                sum += Tiles[m][n].taskSlots;
800043e8:	80023737          	lui	a4,0x80023
800043ec:	fe842783          	lw	a5,-24(s0)
800043f0:	fec42683          	lw	a3,-20(s0)
800043f4:	59870613          	addi	a2,a4,1432 # 80023598 <__stack_top+0xfffdc608>
800043f8:	00078713          	mv	a4,a5
800043fc:	00171713          	slli	a4,a4,0x1
80004400:	00f70733          	add	a4,a4,a5
80004404:	00271793          	slli	a5,a4,0x2
80004408:	00078713          	mv	a4,a5
8000440c:	00068793          	mv	a5,a3
80004410:	00179793          	slli	a5,a5,0x1
80004414:	00d787b3          	add	a5,a5,a3
80004418:	00479793          	slli	a5,a5,0x4
8000441c:	00f707b3          	add	a5,a4,a5
80004420:	00f607b3          	add	a5,a2,a5
80004424:	0087a703          	lw	a4,8(a5)
80004428:	fe442783          	lw	a5,-28(s0)
8000442c:	00f707b3          	add	a5,a4,a5
80004430:	fef42223          	sw	a5,-28(s0)
/casa/workspace/Chronos-RISCV6/FreeRTOS/Debug/../FreeRTOS/globalMaster.c:289 (discriminator 2)
        for(n = 0; n < DIM_Y; n++){
80004434:	fe842783          	lw	a5,-24(s0)
80004438:	00178793          	addi	a5,a5,1
8000443c:	fef42423          	sw	a5,-24(s0)
/casa/workspace/Chronos-RISCV6/FreeRTOS/Debug/../FreeRTOS/globalMaster.c:289 (discriminator 1)
80004440:	fe842703          	lw	a4,-24(s0)
80004444:	00300793          	li	a5,3
80004448:	f6e7dae3          	ble	a4,a5,800043bc <API_GetSystemTasksSlots+0x28>
/casa/workspace/Chronos-RISCV6/FreeRTOS/Debug/../FreeRTOS/globalMaster.c:288 (discriminator 2)
    for(m = 0; m < DIM_X; m++){
8000444c:	fec42783          	lw	a5,-20(s0)
80004450:	00178793          	addi	a5,a5,1
80004454:	fef42623          	sw	a5,-20(s0)
/casa/workspace/Chronos-RISCV6/FreeRTOS/Debug/../FreeRTOS/globalMaster.c:288 (discriminator 1)
80004458:	fec42703          	lw	a4,-20(s0)
8000445c:	00300793          	li	a5,3
80004460:	f4e7dae3          	ble	a4,a5,800043b4 <API_GetSystemTasksSlots+0x20>
/casa/workspace/Chronos-RISCV6/FreeRTOS/Debug/../FreeRTOS/globalMaster.c:295
            }
        }
    }
    return sum;
80004464:	fe442783          	lw	a5,-28(s0)
/casa/workspace/Chronos-RISCV6/FreeRTOS/Debug/../FreeRTOS/globalMaster.c:296
}
80004468:	00078513          	mv	a0,a5
8000446c:	01c12083          	lw	ra,28(sp)
80004470:	01812403          	lw	s0,24(sp)
80004474:	01412483          	lw	s1,20(sp)
80004478:	02010113          	addi	sp,sp,32
8000447c:	00008067          	ret

80004480 <API_RepositoryAllocation>:
API_RepositoryAllocation():
/casa/workspace/Chronos-RISCV6/FreeRTOS/Debug/../FreeRTOS/globalMaster.c:298

void API_RepositoryAllocation(unsigned int app, unsigned int task, unsigned int dest_addr){
80004480:	fd010113          	addi	sp,sp,-48
80004484:	02112623          	sw	ra,44(sp)
80004488:	02812423          	sw	s0,40(sp)
8000448c:	03010413          	addi	s0,sp,48
80004490:	fca42e23          	sw	a0,-36(s0)
80004494:	fcb42c23          	sw	a1,-40(s0)
80004498:	fcc42a23          	sw	a2,-44(s0)
/casa/workspace/Chronos-RISCV6/FreeRTOS/Debug/../FreeRTOS/globalMaster.c:301
    unsigned int mySlot;
    do{
        mySlot = API_GetServiceSlot();
8000449c:	1f4010ef          	jal	ra,80005690 <API_GetServiceSlot>
800044a0:	fea42623          	sw	a0,-20(s0)
/casa/workspace/Chronos-RISCV6/FreeRTOS/Debug/../FreeRTOS/globalMaster.c:302
        if(mySlot == PIPE_FULL){
800044a4:	fec42703          	lw	a4,-20(s0)
800044a8:	fdfe07b7          	lui	a5,0xfdfe0
800044ac:	dfd78793          	addi	a5,a5,-515 # fdfdfdfd <__stack_top+0x7df98e6d>
800044b0:	00f71a63          	bne	a4,a5,800044c4 <API_RepositoryAllocation+0x44>
/casa/workspace/Chronos-RISCV6/FreeRTOS/Debug/../FreeRTOS/globalMaster.c:304
            // Runs the NI Handler to send/receive packets, opening space in the PIPE
            prints("Estou preso aqui6...\n");
800044b4:	800097b7          	lui	a5,0x80009
800044b8:	b8c78513          	addi	a0,a5,-1140 # 80008b8c <__stack_top+0xfffc1bfc>
800044bc:	7bd010ef          	jal	ra,80006478 <prints>
/casa/workspace/Chronos-RISCV6/FreeRTOS/Debug/../FreeRTOS/globalMaster.c:305
            API_NI_Handler();
800044c0:	70c030ef          	jal	ra,80007bcc <API_NI_Handler>
/casa/workspace/Chronos-RISCV6/FreeRTOS/Debug/../FreeRTOS/globalMaster.c:307
        }
    }while(mySlot == PIPE_FULL);
800044c4:	fec42703          	lw	a4,-20(s0)
800044c8:	fdfe07b7          	lui	a5,0xfdfe0
800044cc:	dfd78793          	addi	a5,a5,-515 # fdfdfdfd <__stack_top+0x7df98e6d>
800044d0:	fcf706e3          	beq	a4,a5,8000449c <API_RepositoryAllocation+0x1c>
/casa/workspace/Chronos-RISCV6/FreeRTOS/Debug/../FreeRTOS/globalMaster.c:308
    printsv("I got a free service slo-!! -> ", mySlot);
800044d4:	fec42783          	lw	a5,-20(s0)
800044d8:	00078593          	mv	a1,a5
800044dc:	800097b7          	lui	a5,0x80009
800044e0:	ba478513          	addi	a0,a5,-1116 # 80008ba4 <__stack_top+0xfffc1c14>
800044e4:	040020ef          	jal	ra,80006524 <printsv>
/casa/workspace/Chronos-RISCV6/FreeRTOS/Debug/../FreeRTOS/globalMaster.c:310

    ServicePipe[mySlot].holder = PIPE_SYS_HOLDER;
800044e8:	800227b7          	lui	a5,0x80022
800044ec:	fec42703          	lw	a4,-20(s0)
800044f0:	79c78693          	addi	a3,a5,1948 # 8002279c <__stack_top+0xfffdb80c>
800044f4:	00070793          	mv	a5,a4
800044f8:	00479793          	slli	a5,a5,0x4
800044fc:	40e787b3          	sub	a5,a5,a4
80004500:	00279793          	slli	a5,a5,0x2
80004504:	00f687b3          	add	a5,a3,a5
80004508:	feff0737          	lui	a4,0xfeff0
8000450c:	efe70713          	addi	a4,a4,-258 # fefefefe <__stack_top+0x7efa8f6e>
80004510:	00e7a223          	sw	a4,4(a5)
/casa/workspace/Chronos-RISCV6/FreeRTOS/Debug/../FreeRTOS/globalMaster.c:312

    ServicePipe[mySlot].header.header           = makeAddress(0, 0) | PERIPH_SOUTH;
80004514:	00000593          	li	a1,0
80004518:	00000513          	li	a0,0
8000451c:	564020ef          	jal	ra,80006a80 <makeAddress>
80004520:	00050713          	mv	a4,a0
80004524:	000407b7          	lui	a5,0x40
80004528:	00f766b3          	or	a3,a4,a5
8000452c:	800227b7          	lui	a5,0x80022
80004530:	fec42703          	lw	a4,-20(s0)
80004534:	79c78613          	addi	a2,a5,1948 # 8002279c <__stack_top+0xfffdb80c>
80004538:	00070793          	mv	a5,a4
8000453c:	00479793          	slli	a5,a5,0x4
80004540:	40e787b3          	sub	a5,a5,a4
80004544:	00279793          	slli	a5,a5,0x2
80004548:	00f607b3          	add	a5,a2,a5
8000454c:	00d7a423          	sw	a3,8(a5)
/casa/workspace/Chronos-RISCV6/FreeRTOS/Debug/../FreeRTOS/globalMaster.c:313
    ServicePipe[mySlot].header.payload_size     = PKT_SERVICE_SIZE;
80004550:	800227b7          	lui	a5,0x80022
80004554:	fec42703          	lw	a4,-20(s0)
80004558:	79c78693          	addi	a3,a5,1948 # 8002279c <__stack_top+0xfffdb80c>
8000455c:	00070793          	mv	a5,a4
80004560:	00479793          	slli	a5,a5,0x4
80004564:	40e787b3          	sub	a5,a5,a4
80004568:	00279793          	slli	a5,a5,0x2
8000456c:	00f687b3          	add	a5,a3,a5
80004570:	00b00713          	li	a4,11
80004574:	00e7a623          	sw	a4,12(a5)
/casa/workspace/Chronos-RISCV6/FreeRTOS/Debug/../FreeRTOS/globalMaster.c:314
    ServicePipe[mySlot].header.service          = TASK_ALLOCATION_SEND;
80004578:	800227b7          	lui	a5,0x80022
8000457c:	fec42703          	lw	a4,-20(s0)
80004580:	79c78693          	addi	a3,a5,1948 # 8002279c <__stack_top+0xfffdb80c>
80004584:	00070793          	mv	a5,a4
80004588:	00479793          	slli	a5,a5,0x4
8000458c:	40e787b3          	sub	a5,a5,a4
80004590:	00279793          	slli	a5,a5,0x2
80004594:	00f687b3          	add	a5,a3,a5
80004598:	03000713          	li	a4,48
8000459c:	00e7a823          	sw	a4,16(a5)
/casa/workspace/Chronos-RISCV6/FreeRTOS/Debug/../FreeRTOS/globalMaster.c:315
    ServicePipe[mySlot].header.task_id          = task;
800045a0:	800227b7          	lui	a5,0x80022
800045a4:	fec42703          	lw	a4,-20(s0)
800045a8:	79c78693          	addi	a3,a5,1948 # 8002279c <__stack_top+0xfffdb80c>
800045ac:	00070793          	mv	a5,a4
800045b0:	00479793          	slli	a5,a5,0x4
800045b4:	40e787b3          	sub	a5,a5,a4
800045b8:	00279793          	slli	a5,a5,0x2
800045bc:	00f687b3          	add	a5,a3,a5
800045c0:	fd842703          	lw	a4,-40(s0)
800045c4:	00e7aa23          	sw	a4,20(a5)
/casa/workspace/Chronos-RISCV6/FreeRTOS/Debug/../FreeRTOS/globalMaster.c:316
    ServicePipe[mySlot].header.task_app_id      = app;
800045c8:	800227b7          	lui	a5,0x80022
800045cc:	fec42703          	lw	a4,-20(s0)
800045d0:	79c78693          	addi	a3,a5,1948 # 8002279c <__stack_top+0xfffdb80c>
800045d4:	00070793          	mv	a5,a4
800045d8:	00479793          	slli	a5,a5,0x4
800045dc:	40e787b3          	sub	a5,a5,a4
800045e0:	00279793          	slli	a5,a5,0x2
800045e4:	00f687b3          	add	a5,a3,a5
800045e8:	fdc42703          	lw	a4,-36(s0)
800045ec:	02e7a223          	sw	a4,36(a5)
/casa/workspace/Chronos-RISCV6/FreeRTOS/Debug/../FreeRTOS/globalMaster.c:317
    ServicePipe[mySlot].header.task_dest_addr   = dest_addr;
800045f0:	800227b7          	lui	a5,0x80022
800045f4:	fec42703          	lw	a4,-20(s0)
800045f8:	79c78693          	addi	a3,a5,1948 # 8002279c <__stack_top+0xfffdb80c>
800045fc:	00070793          	mv	a5,a4
80004600:	00479793          	slli	a5,a5,0x4
80004604:	40e787b3          	sub	a5,a5,a4
80004608:	00279793          	slli	a5,a5,0x2
8000460c:	00f687b3          	add	a5,a3,a5
80004610:	fd442703          	lw	a4,-44(s0)
80004614:	02e7ac23          	sw	a4,56(a5)
/casa/workspace/Chronos-RISCV6/FreeRTOS/Debug/../FreeRTOS/globalMaster.c:319

    API_PushSendQueue(SERVICE, mySlot);
80004618:	fec42583          	lw	a1,-20(s0)
8000461c:	10100537          	lui	a0,0x10100
80004620:	4a0020ef          	jal	ra,80006ac0 <API_PushSendQueue>
/casa/workspace/Chronos-RISCV6/FreeRTOS/Debug/../FreeRTOS/globalMaster.c:320
    return;    
80004624:	00000013          	nop
/casa/workspace/Chronos-RISCV6/FreeRTOS/Debug/../FreeRTOS/globalMaster.c:321
}
80004628:	02c12083          	lw	ra,44(sp)
8000462c:	02812403          	lw	s0,40(sp)
80004630:	03010113          	addi	sp,sp,48
80004634:	00008067          	ret

80004638 <API_TaskAllocated>:
API_TaskAllocated():
/casa/workspace/Chronos-RISCV6/FreeRTOS/Debug/../FreeRTOS/globalMaster.c:323

void API_TaskAllocated(unsigned int task_id, unsigned int app_id){
80004638:	fe010113          	addi	sp,sp,-32
8000463c:	00812e23          	sw	s0,28(sp)
80004640:	02010413          	addi	s0,sp,32
80004644:	fea42623          	sw	a0,-20(s0)
80004648:	feb42423          	sw	a1,-24(s0)
/casa/workspace/Chronos-RISCV6/FreeRTOS/Debug/../FreeRTOS/globalMaster.c:325
    unsigned int i;
    applications[app_id].tasks[task_id].status = TASK_ALLOCATED;
8000464c:	80023737          	lui	a4,0x80023
80004650:	fec42783          	lw	a5,-20(s0)
80004654:	fe842683          	lw	a3,-24(s0)
80004658:	dd070613          	addi	a2,a4,-560 # 80022dd0 <__stack_top+0xfffdbe40>
8000465c:	00078713          	mv	a4,a5
80004660:	00171713          	slli	a4,a4,0x1
80004664:	00f70733          	add	a4,a4,a5
80004668:	00271793          	slli	a5,a4,0x2
8000466c:	00078713          	mv	a4,a5
80004670:	00068793          	mv	a5,a3
80004674:	00279793          	slli	a5,a5,0x2
80004678:	00d787b3          	add	a5,a5,a3
8000467c:	00579793          	slli	a5,a5,0x5
80004680:	00f707b3          	add	a5,a4,a5
80004684:	00f607b3          	add	a5,a2,a5
80004688:	00400713          	li	a4,4
8000468c:	00e7aa23          	sw	a4,20(a5)
/casa/workspace/Chronos-RISCV6/FreeRTOS/Debug/../FreeRTOS/globalMaster.c:326
    return;
80004690:	00000013          	nop
/casa/workspace/Chronos-RISCV6/FreeRTOS/Debug/../FreeRTOS/globalMaster.c:327
}
80004694:	01c12403          	lw	s0,28(sp)
80004698:	02010113          	addi	sp,sp,32
8000469c:	00008067          	ret

800046a0 <API_ApplicationStart>:
API_ApplicationStart():
/casa/workspace/Chronos-RISCV6/FreeRTOS/Debug/../FreeRTOS/globalMaster.c:329

void API_ApplicationStart(unsigned int app_id){
800046a0:	fd010113          	addi	sp,sp,-48
800046a4:	02112623          	sw	ra,44(sp)
800046a8:	02812423          	sw	s0,40(sp)
800046ac:	03010413          	addi	s0,sp,48
800046b0:	fca42e23          	sw	a0,-36(s0)
/casa/workspace/Chronos-RISCV6/FreeRTOS/Debug/../FreeRTOS/globalMaster.c:331
    unsigned int i, j;
    printsv("Starting Application: ", app_id);
800046b4:	fdc42783          	lw	a5,-36(s0)
800046b8:	00078593          	mv	a1,a5
800046bc:	800097b7          	lui	a5,0x80009
800046c0:	bc478513          	addi	a0,a5,-1084 # 80008bc4 <__stack_top+0xfffc1c34>
800046c4:	661010ef          	jal	ra,80006524 <printsv>
/casa/workspace/Chronos-RISCV6/FreeRTOS/Debug/../FreeRTOS/globalMaster.c:332
    for(i = 0; i < applications[app_id].numTasks; i++){
800046c8:	fe042623          	sw	zero,-20(s0)
800046cc:	1d80006f          	j	800048a4 <API_ApplicationStart+0x204>
/casa/workspace/Chronos-RISCV6/FreeRTOS/Debug/../FreeRTOS/globalMaster.c:335
        while(ServiceMessage.status == PIPE_OCCUPIED){
            // Runs the NI Handler to send/receive packets, opening space in the PIPE
            prints("Estou preso aqui7...\n");
800046d0:	800097b7          	lui	a5,0x80009
800046d4:	bdc78513          	addi	a0,a5,-1060 # 80008bdc <__stack_top+0xfffc1c4c>
800046d8:	5a1010ef          	jal	ra,80006478 <prints>
/casa/workspace/Chronos-RISCV6/FreeRTOS/Debug/../FreeRTOS/globalMaster.c:336
            API_NI_Handler();
800046dc:	4f0030ef          	jal	ra,80007bcc <API_NI_Handler>
/casa/workspace/Chronos-RISCV6/FreeRTOS/Debug/../FreeRTOS/globalMaster.c:333
        while(ServiceMessage.status == PIPE_OCCUPIED){
800046e0:	800237b7          	lui	a5,0x80023
800046e4:	8947a703          	lw	a4,-1900(a5) # 80022894 <__stack_top+0xfffdb904>
800046e8:	00100793          	li	a5,1
800046ec:	fef702e3          	beq	a4,a5,800046d0 <API_ApplicationStart+0x30>
/casa/workspace/Chronos-RISCV6/FreeRTOS/Debug/../FreeRTOS/globalMaster.c:345
        //     if(mySlot == PIPE_FULL){
        //         // Runs the NI Handler to send/receive packets, opening space in the PIPE
        //         API_NI_Handler();
        //     }
        // }while(mySlot == PIPE_FULL);
        printsv("Sending TASK_START to task ", i);
800046f0:	fec42783          	lw	a5,-20(s0)
800046f4:	00078593          	mv	a1,a5
800046f8:	800097b7          	lui	a5,0x80009
800046fc:	bf478513          	addi	a0,a5,-1036 # 80008bf4 <__stack_top+0xfffc1c64>
80004700:	625010ef          	jal	ra,80006524 <printsv>
/casa/workspace/Chronos-RISCV6/FreeRTOS/Debug/../FreeRTOS/globalMaster.c:346
        ServiceMessage.status = PIPE_OCCUPIED;
80004704:	800237b7          	lui	a5,0x80023
80004708:	00100713          	li	a4,1
8000470c:	88e7aa23          	sw	a4,-1900(a5) # 80022894 <__stack_top+0xfffdb904>
/casa/workspace/Chronos-RISCV6/FreeRTOS/Debug/../FreeRTOS/globalMaster.c:348

        ServiceMessage.header.header           = applications[app_id].tasks[i].addr;
80004710:	80023737          	lui	a4,0x80023
80004714:	fec42783          	lw	a5,-20(s0)
80004718:	fdc42683          	lw	a3,-36(s0)
8000471c:	dd070613          	addi	a2,a4,-560 # 80022dd0 <__stack_top+0xfffdbe40>
80004720:	00078713          	mv	a4,a5
80004724:	00171713          	slli	a4,a4,0x1
80004728:	00f70733          	add	a4,a4,a5
8000472c:	00271793          	slli	a5,a4,0x2
80004730:	00078713          	mv	a4,a5
80004734:	00068793          	mv	a5,a3
80004738:	00279793          	slli	a5,a5,0x2
8000473c:	00d787b3          	add	a5,a5,a3
80004740:	00579793          	slli	a5,a5,0x5
80004744:	00f707b3          	add	a5,a4,a5
80004748:	00f607b3          	add	a5,a2,a5
8000474c:	0187a703          	lw	a4,24(a5)
80004750:	800237b7          	lui	a5,0x80023
80004754:	89478793          	addi	a5,a5,-1900 # 80022894 <__stack_top+0xfffdb904>
80004758:	00e7a423          	sw	a4,8(a5)
/casa/workspace/Chronos-RISCV6/FreeRTOS/Debug/../FreeRTOS/globalMaster.c:349
        ServiceMessage.header.payload_size     = PKT_SERVICE_SIZE + applications[app_id].numTasks + 1;
8000475c:	800236b7          	lui	a3,0x80023
80004760:	fdc42703          	lw	a4,-36(s0)
80004764:	00070793          	mv	a5,a4
80004768:	00279793          	slli	a5,a5,0x2
8000476c:	00e787b3          	add	a5,a5,a4
80004770:	00579793          	slli	a5,a5,0x5
80004774:	dd068713          	addi	a4,a3,-560 # 80022dd0 <__stack_top+0xfffdbe40>
80004778:	00e787b3          	add	a5,a5,a4
8000477c:	0107a783          	lw	a5,16(a5)
80004780:	00c78713          	addi	a4,a5,12
80004784:	800237b7          	lui	a5,0x80023
80004788:	89478793          	addi	a5,a5,-1900 # 80022894 <__stack_top+0xfffdb904>
8000478c:	00e7a623          	sw	a4,12(a5)
/casa/workspace/Chronos-RISCV6/FreeRTOS/Debug/../FreeRTOS/globalMaster.c:350
        ServiceMessage.header.service          = TASK_START;
80004790:	800237b7          	lui	a5,0x80023
80004794:	89478793          	addi	a5,a5,-1900 # 80022894 <__stack_top+0xfffdb904>
80004798:	40000713          	li	a4,1024
8000479c:	00e7a823          	sw	a4,16(a5)
/casa/workspace/Chronos-RISCV6/FreeRTOS/Debug/../FreeRTOS/globalMaster.c:351
        ServiceMessage.header.task_id          = i;
800047a0:	800237b7          	lui	a5,0x80023
800047a4:	89478793          	addi	a5,a5,-1900 # 80022894 <__stack_top+0xfffdb904>
800047a8:	fec42703          	lw	a4,-20(s0)
800047ac:	00e7aa23          	sw	a4,20(a5)
/casa/workspace/Chronos-RISCV6/FreeRTOS/Debug/../FreeRTOS/globalMaster.c:352
        ServiceMessage.header.task_app_id      = app_id;
800047b0:	800237b7          	lui	a5,0x80023
800047b4:	89478793          	addi	a5,a5,-1900 # 80022894 <__stack_top+0xfffdb904>
800047b8:	fdc42703          	lw	a4,-36(s0)
800047bc:	02e7a223          	sw	a4,36(a5)
/casa/workspace/Chronos-RISCV6/FreeRTOS/Debug/../FreeRTOS/globalMaster.c:353
        ServiceMessage.msg.length              = applications[app_id].numTasks;
800047c0:	800236b7          	lui	a3,0x80023
800047c4:	fdc42703          	lw	a4,-36(s0)
800047c8:	00070793          	mv	a5,a4
800047cc:	00279793          	slli	a5,a5,0x2
800047d0:	00e787b3          	add	a5,a5,a4
800047d4:	00579793          	slli	a5,a5,0x5
800047d8:	dd068713          	addi	a4,a3,-560 # 80022dd0 <__stack_top+0xfffdbe40>
800047dc:	00e787b3          	add	a5,a5,a4
800047e0:	0107a703          	lw	a4,16(a5)
800047e4:	800237b7          	lui	a5,0x80023
800047e8:	89478793          	addi	a5,a5,-1900 # 80022894 <__stack_top+0xfffdb904>
800047ec:	02e7ae23          	sw	a4,60(a5)
/casa/workspace/Chronos-RISCV6/FreeRTOS/Debug/../FreeRTOS/globalMaster.c:354
        for(j = 0; j < applications[app_id].numTasks; j++){
800047f0:	fe042423          	sw	zero,-24(s0)
800047f4:	06c0006f          	j	80004860 <API_ApplicationStart+0x1c0>
/casa/workspace/Chronos-RISCV6/FreeRTOS/Debug/../FreeRTOS/globalMaster.c:355 (discriminator 3)
            ServiceMessage.msg.msg[j]          = applications[app_id].tasks[j].addr;
800047f8:	80023737          	lui	a4,0x80023
800047fc:	fe842783          	lw	a5,-24(s0)
80004800:	fdc42683          	lw	a3,-36(s0)
80004804:	dd070613          	addi	a2,a4,-560 # 80022dd0 <__stack_top+0xfffdbe40>
80004808:	00078713          	mv	a4,a5
8000480c:	00171713          	slli	a4,a4,0x1
80004810:	00f70733          	add	a4,a4,a5
80004814:	00271793          	slli	a5,a4,0x2
80004818:	00078713          	mv	a4,a5
8000481c:	00068793          	mv	a5,a3
80004820:	00279793          	slli	a5,a5,0x2
80004824:	00d787b3          	add	a5,a5,a3
80004828:	00579793          	slli	a5,a5,0x5
8000482c:	00f707b3          	add	a5,a4,a5
80004830:	00f607b3          	add	a5,a2,a5
80004834:	0187a703          	lw	a4,24(a5)
80004838:	800236b7          	lui	a3,0x80023
8000483c:	fe842783          	lw	a5,-24(s0)
80004840:	00c78793          	addi	a5,a5,12
80004844:	89468693          	addi	a3,a3,-1900 # 80022894 <__stack_top+0xfffdb904>
80004848:	00279793          	slli	a5,a5,0x2
8000484c:	00f687b3          	add	a5,a3,a5
80004850:	00e7a823          	sw	a4,16(a5)
/casa/workspace/Chronos-RISCV6/FreeRTOS/Debug/../FreeRTOS/globalMaster.c:354 (discriminator 3)
        for(j = 0; j < applications[app_id].numTasks; j++){
80004854:	fe842783          	lw	a5,-24(s0)
80004858:	00178793          	addi	a5,a5,1
8000485c:	fef42423          	sw	a5,-24(s0)
/casa/workspace/Chronos-RISCV6/FreeRTOS/Debug/../FreeRTOS/globalMaster.c:354 (discriminator 1)
80004860:	800236b7          	lui	a3,0x80023
80004864:	fdc42703          	lw	a4,-36(s0)
80004868:	00070793          	mv	a5,a4
8000486c:	00279793          	slli	a5,a5,0x2
80004870:	00e787b3          	add	a5,a5,a4
80004874:	00579793          	slli	a5,a5,0x5
80004878:	dd068713          	addi	a4,a3,-560 # 80022dd0 <__stack_top+0xfffdbe40>
8000487c:	00e787b3          	add	a5,a5,a4
80004880:	0107a783          	lw	a5,16(a5)
80004884:	fe842703          	lw	a4,-24(s0)
80004888:	f6f768e3          	bltu	a4,a5,800047f8 <API_ApplicationStart+0x158>
/casa/workspace/Chronos-RISCV6/FreeRTOS/Debug/../FreeRTOS/globalMaster.c:357 (discriminator 2)
        }
        API_PushSendQueue(SYS_MESSAGE, 0);
8000488c:	00000593          	li	a1,0
80004890:	50500537          	lui	a0,0x50500
80004894:	22c020ef          	jal	ra,80006ac0 <API_PushSendQueue>
/casa/workspace/Chronos-RISCV6/FreeRTOS/Debug/../FreeRTOS/globalMaster.c:332 (discriminator 2)
    for(i = 0; i < applications[app_id].numTasks; i++){
80004898:	fec42783          	lw	a5,-20(s0)
8000489c:	00178793          	addi	a5,a5,1
800048a0:	fef42623          	sw	a5,-20(s0)
/casa/workspace/Chronos-RISCV6/FreeRTOS/Debug/../FreeRTOS/globalMaster.c:332 (discriminator 1)
800048a4:	800236b7          	lui	a3,0x80023
800048a8:	fdc42703          	lw	a4,-36(s0)
800048ac:	00070793          	mv	a5,a4
800048b0:	00279793          	slli	a5,a5,0x2
800048b4:	00e787b3          	add	a5,a5,a4
800048b8:	00579793          	slli	a5,a5,0x5
800048bc:	dd068713          	addi	a4,a3,-560 # 80022dd0 <__stack_top+0xfffdbe40>
800048c0:	00e787b3          	add	a5,a5,a4
800048c4:	0107a783          	lw	a5,16(a5)
800048c8:	fec42703          	lw	a4,-20(s0)
800048cc:	e0f76ae3          	bltu	a4,a5,800046e0 <API_ApplicationStart+0x40>
/casa/workspace/Chronos-RISCV6/FreeRTOS/Debug/../FreeRTOS/globalMaster.c:359
    }
    return;
800048d0:	00000013          	nop
/casa/workspace/Chronos-RISCV6/FreeRTOS/Debug/../FreeRTOS/globalMaster.c:360
}
800048d4:	02c12083          	lw	ra,44(sp)
800048d8:	02812403          	lw	s0,40(sp)
800048dc:	03010113          	addi	sp,sp,48
800048e0:	00008067          	ret

800048e4 <API_StartTasks>:
API_StartTasks():
/casa/workspace/Chronos-RISCV6/FreeRTOS/Debug/../FreeRTOS/globalMaster.c:363


void API_StartTasks(){
800048e4:	fe010113          	addi	sp,sp,-32
800048e8:	00112e23          	sw	ra,28(sp)
800048ec:	00812c23          	sw	s0,24(sp)
800048f0:	02010413          	addi	s0,sp,32
/casa/workspace/Chronos-RISCV6/FreeRTOS/Debug/../FreeRTOS/globalMaster.c:365
    unsigned int j, i, start;
    for(j = 0; j < NUM_MAX_APPS; j++){
800048f4:	fe042623          	sw	zero,-20(s0)
800048f8:	18c0006f          	j	80004a84 <API_StartTasks+0x1a0>
/casa/workspace/Chronos-RISCV6/FreeRTOS/Debug/../FreeRTOS/globalMaster.c:366
        if(applications[j].occupied == TRUE){
800048fc:	800236b7          	lui	a3,0x80023
80004900:	fec42703          	lw	a4,-20(s0)
80004904:	00070793          	mv	a5,a4
80004908:	00279793          	slli	a5,a5,0x2
8000490c:	00e787b3          	add	a5,a5,a4
80004910:	00579793          	slli	a5,a5,0x5
80004914:	dd068713          	addi	a4,a3,-560 # 80022dd0 <__stack_top+0xfffdbe40>
80004918:	00e787b3          	add	a5,a5,a4
8000491c:	0007a703          	lw	a4,0(a5)
80004920:	00100793          	li	a5,1
80004924:	14f71a63          	bne	a4,a5,80004a78 <API_StartTasks+0x194>
/casa/workspace/Chronos-RISCV6/FreeRTOS/Debug/../FreeRTOS/globalMaster.c:367
            start = TRUE;
80004928:	00100793          	li	a5,1
8000492c:	fef42223          	sw	a5,-28(s0)
/casa/workspace/Chronos-RISCV6/FreeRTOS/Debug/../FreeRTOS/globalMaster.c:368
            for(i = 0; i < applications[j].numTasks; i++){
80004930:	fe042423          	sw	zero,-24(s0)
80004934:	0600006f          	j	80004994 <API_StartTasks+0xb0>
/casa/workspace/Chronos-RISCV6/FreeRTOS/Debug/../FreeRTOS/globalMaster.c:369
                if(applications[j].tasks[i].status != TASK_ALLOCATED){
80004938:	80023737          	lui	a4,0x80023
8000493c:	fe842783          	lw	a5,-24(s0)
80004940:	fec42683          	lw	a3,-20(s0)
80004944:	dd070613          	addi	a2,a4,-560 # 80022dd0 <__stack_top+0xfffdbe40>
80004948:	00078713          	mv	a4,a5
8000494c:	00171713          	slli	a4,a4,0x1
80004950:	00f70733          	add	a4,a4,a5
80004954:	00271793          	slli	a5,a4,0x2
80004958:	00078713          	mv	a4,a5
8000495c:	00068793          	mv	a5,a3
80004960:	00279793          	slli	a5,a5,0x2
80004964:	00d787b3          	add	a5,a5,a3
80004968:	00579793          	slli	a5,a5,0x5
8000496c:	00f707b3          	add	a5,a4,a5
80004970:	00f607b3          	add	a5,a2,a5
80004974:	0147a703          	lw	a4,20(a5)
80004978:	00400793          	li	a5,4
8000497c:	00f70663          	beq	a4,a5,80004988 <API_StartTasks+0xa4>
/casa/workspace/Chronos-RISCV6/FreeRTOS/Debug/../FreeRTOS/globalMaster.c:370
                    start = FALSE;
80004980:	fe042223          	sw	zero,-28(s0)
/casa/workspace/Chronos-RISCV6/FreeRTOS/Debug/../FreeRTOS/globalMaster.c:371
                    break;
80004984:	03c0006f          	j	800049c0 <API_StartTasks+0xdc>
/casa/workspace/Chronos-RISCV6/FreeRTOS/Debug/../FreeRTOS/globalMaster.c:368 (discriminator 2)
            for(i = 0; i < applications[j].numTasks; i++){
80004988:	fe842783          	lw	a5,-24(s0)
8000498c:	00178793          	addi	a5,a5,1
80004990:	fef42423          	sw	a5,-24(s0)
/casa/workspace/Chronos-RISCV6/FreeRTOS/Debug/../FreeRTOS/globalMaster.c:368 (discriminator 1)
80004994:	800236b7          	lui	a3,0x80023
80004998:	fec42703          	lw	a4,-20(s0)
8000499c:	00070793          	mv	a5,a4
800049a0:	00279793          	slli	a5,a5,0x2
800049a4:	00e787b3          	add	a5,a5,a4
800049a8:	00579793          	slli	a5,a5,0x5
800049ac:	dd068713          	addi	a4,a3,-560 # 80022dd0 <__stack_top+0xfffdbe40>
800049b0:	00e787b3          	add	a5,a5,a4
800049b4:	0107a783          	lw	a5,16(a5)
800049b8:	fe842703          	lw	a4,-24(s0)
800049bc:	f6f76ee3          	bltu	a4,a5,80004938 <API_StartTasks+0x54>
/casa/workspace/Chronos-RISCV6/FreeRTOS/Debug/../FreeRTOS/globalMaster.c:374
                }
            }
            if(start == TRUE){
800049c0:	fe442703          	lw	a4,-28(s0)
800049c4:	00100793          	li	a5,1
800049c8:	0af71863          	bne	a4,a5,80004a78 <API_StartTasks+0x194>
/casa/workspace/Chronos-RISCV6/FreeRTOS/Debug/../FreeRTOS/globalMaster.c:375
                printsv("Application is allocated: ", j);
800049cc:	fec42783          	lw	a5,-20(s0)
800049d0:	00078593          	mv	a1,a5
800049d4:	800097b7          	lui	a5,0x80009
800049d8:	c1078513          	addi	a0,a5,-1008 # 80008c10 <__stack_top+0xfffc1c80>
800049dc:	349010ef          	jal	ra,80006524 <printsv>
/casa/workspace/Chronos-RISCV6/FreeRTOS/Debug/../FreeRTOS/globalMaster.c:376
                API_ApplicationStart(j);
800049e0:	fec42503          	lw	a0,-20(s0)
800049e4:	cbdff0ef          	jal	ra,800046a0 <API_ApplicationStart>
/casa/workspace/Chronos-RISCV6/FreeRTOS/Debug/../FreeRTOS/globalMaster.c:377
                prints("Start command sent to every task...\n");
800049e8:	800097b7          	lui	a5,0x80009
800049ec:	c2c78513          	addi	a0,a5,-980 # 80008c2c <__stack_top+0xfffc1c9c>
800049f0:	289010ef          	jal	ra,80006478 <prints>
/casa/workspace/Chronos-RISCV6/FreeRTOS/Debug/../FreeRTOS/globalMaster.c:378
                for(i = 0; i < applications[j].numTasks; i++){
800049f4:	fe042423          	sw	zero,-24(s0)
800049f8:	0540006f          	j	80004a4c <API_StartTasks+0x168>
/casa/workspace/Chronos-RISCV6/FreeRTOS/Debug/../FreeRTOS/globalMaster.c:379 (discriminator 3)
                    applications[j].tasks[i].status = TASK_STARTED;
800049fc:	80023737          	lui	a4,0x80023
80004a00:	fe842783          	lw	a5,-24(s0)
80004a04:	fec42683          	lw	a3,-20(s0)
80004a08:	dd070613          	addi	a2,a4,-560 # 80022dd0 <__stack_top+0xfffdbe40>
80004a0c:	00078713          	mv	a4,a5
80004a10:	00171713          	slli	a4,a4,0x1
80004a14:	00f70733          	add	a4,a4,a5
80004a18:	00271793          	slli	a5,a4,0x2
80004a1c:	00078713          	mv	a4,a5
80004a20:	00068793          	mv	a5,a3
80004a24:	00279793          	slli	a5,a5,0x2
80004a28:	00d787b3          	add	a5,a5,a3
80004a2c:	00579793          	slli	a5,a5,0x5
80004a30:	00f707b3          	add	a5,a4,a5
80004a34:	00f607b3          	add	a5,a2,a5
80004a38:	00500713          	li	a4,5
80004a3c:	00e7aa23          	sw	a4,20(a5)
/casa/workspace/Chronos-RISCV6/FreeRTOS/Debug/../FreeRTOS/globalMaster.c:378 (discriminator 3)
                for(i = 0; i < applications[j].numTasks; i++){
80004a40:	fe842783          	lw	a5,-24(s0)
80004a44:	00178793          	addi	a5,a5,1
80004a48:	fef42423          	sw	a5,-24(s0)
/casa/workspace/Chronos-RISCV6/FreeRTOS/Debug/../FreeRTOS/globalMaster.c:378 (discriminator 1)
80004a4c:	800236b7          	lui	a3,0x80023
80004a50:	fec42703          	lw	a4,-20(s0)
80004a54:	00070793          	mv	a5,a4
80004a58:	00279793          	slli	a5,a5,0x2
80004a5c:	00e787b3          	add	a5,a5,a4
80004a60:	00579793          	slli	a5,a5,0x5
80004a64:	dd068713          	addi	a4,a3,-560 # 80022dd0 <__stack_top+0xfffdbe40>
80004a68:	00e787b3          	add	a5,a5,a4
80004a6c:	0107a783          	lw	a5,16(a5)
80004a70:	fe842703          	lw	a4,-24(s0)
80004a74:	f8f764e3          	bltu	a4,a5,800049fc <API_StartTasks+0x118>
/casa/workspace/Chronos-RISCV6/FreeRTOS/Debug/../FreeRTOS/globalMaster.c:365 (discriminator 2)
    for(j = 0; j < NUM_MAX_APPS; j++){
80004a78:	fec42783          	lw	a5,-20(s0)
80004a7c:	00178793          	addi	a5,a5,1
80004a80:	fef42623          	sw	a5,-20(s0)
/casa/workspace/Chronos-RISCV6/FreeRTOS/Debug/../FreeRTOS/globalMaster.c:365 (discriminator 1)
80004a84:	fec42703          	lw	a4,-20(s0)
80004a88:	00b00793          	li	a5,11
80004a8c:	e6e7f8e3          	bleu	a4,a5,800048fc <API_StartTasks+0x18>
/casa/workspace/Chronos-RISCV6/FreeRTOS/Debug/../FreeRTOS/globalMaster.c:384
                }
            }
        }
    }
    return;
80004a90:	00000013          	nop
/casa/workspace/Chronos-RISCV6/FreeRTOS/Debug/../FreeRTOS/globalMaster.c:385
}    
80004a94:	01c12083          	lw	ra,28(sp)
80004a98:	01812403          	lw	s0,24(sp)
80004a9c:	02010113          	addi	sp,sp,32
80004aa0:	00008067          	ret

80004aa4 <API_TaskListInit>:
API_TaskListInit():
/casa/workspace/Chronos-RISCV6/FreeRTOS/Debug/../FreeRTOS/applications.c:13
#include "chronos.h"

// Stores information about each running task
//extern volatile Task TaskList[ NUM_MAX_TASKS ];

void API_TaskListInit(){
80004aa4:	fe010113          	addi	sp,sp,-32
80004aa8:	00812e23          	sw	s0,28(sp)
80004aac:	02010413          	addi	s0,sp,32
/casa/workspace/Chronos-RISCV6/FreeRTOS/Debug/../FreeRTOS/applications.c:15
    unsigned int i, j;
    for (i = 0; i < NUM_MAX_TASKS; i++){
80004ab0:	fe042623          	sw	zero,-20(s0)
80004ab4:	07c0006f          	j	80004b30 <API_TaskListInit+0x8c>
/casa/workspace/Chronos-RISCV6/FreeRTOS/Debug/../FreeRTOS/applications.c:16
        TaskList[i].status = TASK_SLOT_EMPTY;
80004ab8:	800237b7          	lui	a5,0x80023
80004abc:	fec42683          	lw	a3,-20(s0)
80004ac0:	00001737          	lui	a4,0x1
80004ac4:	98470713          	addi	a4,a4,-1660 # 984 <HEAP_SIZE-0xf67c>
80004ac8:	02e68733          	mul	a4,a3,a4
80004acc:	65878793          	addi	a5,a5,1624 # 80023658 <__stack_top+0xfffdc6c8>
80004ad0:	00f707b3          	add	a5,a4,a5
80004ad4:	0007a023          	sw	zero,0(a5)
/casa/workspace/Chronos-RISCV6/FreeRTOS/Debug/../FreeRTOS/applications.c:17
        for (j = 0; j < NUM_MAX_APP_TASKS; j++){
80004ad8:	fe042423          	sw	zero,-24(s0)
80004adc:	03c0006f          	j	80004b18 <API_TaskListInit+0x74>
/casa/workspace/Chronos-RISCV6/FreeRTOS/Debug/../FreeRTOS/applications.c:18 (discriminator 3)
            TaskList[i].PendingReq[j] = FALSE;
80004ae0:	800237b7          	lui	a5,0x80023
80004ae4:	fec42683          	lw	a3,-20(s0)
80004ae8:	26100713          	li	a4,609
80004aec:	02e686b3          	mul	a3,a3,a4
80004af0:	fe842703          	lw	a4,-24(s0)
80004af4:	00e68733          	add	a4,a3,a4
80004af8:	24c70713          	addi	a4,a4,588
80004afc:	00271713          	slli	a4,a4,0x2
80004b00:	65878793          	addi	a5,a5,1624 # 80023658 <__stack_top+0xfffdc6c8>
80004b04:	00f707b3          	add	a5,a4,a5
80004b08:	0007a023          	sw	zero,0(a5)
/casa/workspace/Chronos-RISCV6/FreeRTOS/Debug/../FreeRTOS/applications.c:17 (discriminator 3)
        for (j = 0; j < NUM_MAX_APP_TASKS; j++){
80004b0c:	fe842783          	lw	a5,-24(s0)
80004b10:	00178793          	addi	a5,a5,1
80004b14:	fef42423          	sw	a5,-24(s0)
/casa/workspace/Chronos-RISCV6/FreeRTOS/Debug/../FreeRTOS/applications.c:17 (discriminator 1)
80004b18:	fe842703          	lw	a4,-24(s0)
80004b1c:	00900793          	li	a5,9
80004b20:	fce7f0e3          	bleu	a4,a5,80004ae0 <API_TaskListInit+0x3c>
/casa/workspace/Chronos-RISCV6/FreeRTOS/Debug/../FreeRTOS/applications.c:15 (discriminator 2)
    for (i = 0; i < NUM_MAX_TASKS; i++){
80004b24:	fec42783          	lw	a5,-20(s0)
80004b28:	00178793          	addi	a5,a5,1
80004b2c:	fef42623          	sw	a5,-20(s0)
/casa/workspace/Chronos-RISCV6/FreeRTOS/Debug/../FreeRTOS/applications.c:15 (discriminator 1)
80004b30:	fec42703          	lw	a4,-20(s0)
80004b34:	00500793          	li	a5,5
80004b38:	f8e7f0e3          	bleu	a4,a5,80004ab8 <API_TaskListInit+0x14>
/casa/workspace/Chronos-RISCV6/FreeRTOS/Debug/../FreeRTOS/applications.c:21
        }
    }
    return;
80004b3c:	00000013          	nop
/casa/workspace/Chronos-RISCV6/FreeRTOS/Debug/../FreeRTOS/applications.c:22
}
80004b40:	01c12403          	lw	s0,28(sp)
80004b44:	02010113          	addi	sp,sp,32
80004b48:	00008067          	ret

80004b4c <API_GetCurrentTaskSlot>:
API_GetCurrentTaskSlot():
/casa/workspace/Chronos-RISCV6/FreeRTOS/Debug/../FreeRTOS/applications.c:24

unsigned int API_GetCurrentTaskSlot(){
80004b4c:	fe010113          	addi	sp,sp,-32
80004b50:	00112e23          	sw	ra,28(sp)
80004b54:	00812c23          	sw	s0,24(sp)
80004b58:	02010413          	addi	s0,sp,32
/casa/workspace/Chronos-RISCV6/FreeRTOS/Debug/../FreeRTOS/applications.c:26
    // The handle of the currently running ( calling ) task on the kernel.
    TaskHandle_t xHandle = xTaskGetCurrentTaskHandle();
80004b5c:	cb4fe0ef          	jal	ra,80003010 <xTaskGetCurrentTaskHandle>
80004b60:	fea42423          	sw	a0,-24(s0)
/casa/workspace/Chronos-RISCV6/FreeRTOS/Debug/../FreeRTOS/applications.c:27
    unsigned int i = 0;
80004b64:	fe042623          	sw	zero,-20(s0)
/casa/workspace/Chronos-RISCV6/FreeRTOS/Debug/../FreeRTOS/applications.c:28
    for ( i = 0 ; i < NUM_MAX_TASKS ; i++ ) {
80004b68:	fe042623          	sw	zero,-20(s0)
80004b6c:	0640006f          	j	80004bd0 <API_GetCurrentTaskSlot+0x84>
/casa/workspace/Chronos-RISCV6/FreeRTOS/Debug/../FreeRTOS/applications.c:29
        if ( TaskList[ i ].TaskHandler == xHandle && TaskList[i].status != TASK_SLOT_EMPTY ) {
80004b70:	800237b7          	lui	a5,0x80023
80004b74:	fec42683          	lw	a3,-20(s0)
80004b78:	65878713          	addi	a4,a5,1624 # 80023658 <__stack_top+0xfffdc6c8>
80004b7c:	000017b7          	lui	a5,0x1
80004b80:	98478793          	addi	a5,a5,-1660 # 984 <HEAP_SIZE-0xf67c>
80004b84:	02f687b3          	mul	a5,a3,a5
80004b88:	00f707b3          	add	a5,a4,a5
80004b8c:	0187a783          	lw	a5,24(a5)
80004b90:	fe842703          	lw	a4,-24(s0)
80004b94:	02f71863          	bne	a4,a5,80004bc4 <API_GetCurrentTaskSlot+0x78>
/casa/workspace/Chronos-RISCV6/FreeRTOS/Debug/../FreeRTOS/applications.c:29 (discriminator 1)
80004b98:	800237b7          	lui	a5,0x80023
80004b9c:	fec42683          	lw	a3,-20(s0)
80004ba0:	00001737          	lui	a4,0x1
80004ba4:	98470713          	addi	a4,a4,-1660 # 984 <HEAP_SIZE-0xf67c>
80004ba8:	02e68733          	mul	a4,a3,a4
80004bac:	65878793          	addi	a5,a5,1624 # 80023658 <__stack_top+0xfffdc6c8>
80004bb0:	00f707b3          	add	a5,a4,a5
80004bb4:	0007a783          	lw	a5,0(a5)
80004bb8:	00078663          	beqz	a5,80004bc4 <API_GetCurrentTaskSlot+0x78>
/casa/workspace/Chronos-RISCV6/FreeRTOS/Debug/../FreeRTOS/applications.c:30
            return( i );
80004bbc:	fec42783          	lw	a5,-20(s0)
80004bc0:	02c0006f          	j	80004bec <API_GetCurrentTaskSlot+0xa0>
/casa/workspace/Chronos-RISCV6/FreeRTOS/Debug/../FreeRTOS/applications.c:28 (discriminator 2)
    for ( i = 0 ; i < NUM_MAX_TASKS ; i++ ) {
80004bc4:	fec42783          	lw	a5,-20(s0)
80004bc8:	00178793          	addi	a5,a5,1
80004bcc:	fef42623          	sw	a5,-20(s0)
/casa/workspace/Chronos-RISCV6/FreeRTOS/Debug/../FreeRTOS/applications.c:28 (discriminator 1)
80004bd0:	fec42703          	lw	a4,-20(s0)
80004bd4:	00500793          	li	a5,5
80004bd8:	f8e7fce3          	bleu	a4,a5,80004b70 <API_GetCurrentTaskSlot+0x24>
/casa/workspace/Chronos-RISCV6/FreeRTOS/Debug/../FreeRTOS/applications.c:33
        }
    }
    prints("returning erro0\n");
80004bdc:	800097b7          	lui	a5,0x80009
80004be0:	c5478513          	addi	a0,a5,-940 # 80008c54 <__stack_top+0xfffc1cc4>
80004be4:	095010ef          	jal	ra,80006478 <prints>
/casa/workspace/Chronos-RISCV6/FreeRTOS/Debug/../FreeRTOS/applications.c:34
    return ERRO;
80004be8:	fff00793          	li	a5,-1
/casa/workspace/Chronos-RISCV6/FreeRTOS/Debug/../FreeRTOS/applications.c:35
}
80004bec:	00078513          	mv	a0,a5
80004bf0:	01c12083          	lw	ra,28(sp)
80004bf4:	01812403          	lw	s0,24(sp)
80004bf8:	02010113          	addi	sp,sp,32
80004bfc:	00008067          	ret

80004c00 <API_GetFreeTaskSlot>:
API_GetFreeTaskSlot():
/casa/workspace/Chronos-RISCV6/FreeRTOS/Debug/../FreeRTOS/applications.c:37

unsigned int API_GetFreeTaskSlot(){
80004c00:	fe010113          	addi	sp,sp,-32
80004c04:	00112e23          	sw	ra,28(sp)
80004c08:	00812c23          	sw	s0,24(sp)
80004c0c:	02010413          	addi	s0,sp,32
/casa/workspace/Chronos-RISCV6/FreeRTOS/Debug/../FreeRTOS/applications.c:39
    unsigned int i;
    for (i = 0; i < NUM_MAX_TASKS; i++){
80004c10:	fe042623          	sw	zero,-20(s0)
80004c14:	03c0006f          	j	80004c50 <API_GetFreeTaskSlot+0x50>
/casa/workspace/Chronos-RISCV6/FreeRTOS/Debug/../FreeRTOS/applications.c:40
        if (TaskList[i].status == TASK_SLOT_EMPTY){
80004c18:	800237b7          	lui	a5,0x80023
80004c1c:	fec42683          	lw	a3,-20(s0)
80004c20:	00001737          	lui	a4,0x1
80004c24:	98470713          	addi	a4,a4,-1660 # 984 <HEAP_SIZE-0xf67c>
80004c28:	02e68733          	mul	a4,a3,a4
80004c2c:	65878793          	addi	a5,a5,1624 # 80023658 <__stack_top+0xfffdc6c8>
80004c30:	00f707b3          	add	a5,a4,a5
80004c34:	0007a783          	lw	a5,0(a5)
80004c38:	00079663          	bnez	a5,80004c44 <API_GetFreeTaskSlot+0x44>
/casa/workspace/Chronos-RISCV6/FreeRTOS/Debug/../FreeRTOS/applications.c:41
            return i;
80004c3c:	fec42783          	lw	a5,-20(s0)
80004c40:	02c0006f          	j	80004c6c <API_GetFreeTaskSlot+0x6c>
/casa/workspace/Chronos-RISCV6/FreeRTOS/Debug/../FreeRTOS/applications.c:39 (discriminator 2)
    for (i = 0; i < NUM_MAX_TASKS; i++){
80004c44:	fec42783          	lw	a5,-20(s0)
80004c48:	00178793          	addi	a5,a5,1
80004c4c:	fef42623          	sw	a5,-20(s0)
/casa/workspace/Chronos-RISCV6/FreeRTOS/Debug/../FreeRTOS/applications.c:39 (discriminator 1)
80004c50:	fec42703          	lw	a4,-20(s0)
80004c54:	00500793          	li	a5,5
80004c58:	fce7f0e3          	bleu	a4,a5,80004c18 <API_GetFreeTaskSlot+0x18>
/casa/workspace/Chronos-RISCV6/FreeRTOS/Debug/../FreeRTOS/applications.c:44
        }
    }
    prints("returning erro1\n");
80004c5c:	800097b7          	lui	a5,0x80009
80004c60:	c6878513          	addi	a0,a5,-920 # 80008c68 <__stack_top+0xfffc1cd8>
80004c64:	015010ef          	jal	ra,80006478 <prints>
/casa/workspace/Chronos-RISCV6/FreeRTOS/Debug/../FreeRTOS/applications.c:45
    return ERRO;
80004c68:	fff00793          	li	a5,-1
/casa/workspace/Chronos-RISCV6/FreeRTOS/Debug/../FreeRTOS/applications.c:46
}
80004c6c:	00078513          	mv	a0,a5
80004c70:	01c12083          	lw	ra,28(sp)
80004c74:	01812403          	lw	s0,24(sp)
80004c78:	02010113          	addi	sp,sp,32
80004c7c:	00008067          	ret

80004c80 <API_TaskAllocation>:
API_TaskAllocation():
/casa/workspace/Chronos-RISCV6/FreeRTOS/Debug/../FreeRTOS/applications.c:48

unsigned int API_TaskAllocation(unsigned int task_id, unsigned int txt_size, unsigned int bss_size, unsigned int start_point, unsigned int task_app_id){
80004c80:	fc010113          	addi	sp,sp,-64
80004c84:	02112e23          	sw	ra,60(sp)
80004c88:	02812c23          	sw	s0,56(sp)
80004c8c:	04010413          	addi	s0,sp,64
80004c90:	fca42e23          	sw	a0,-36(s0)
80004c94:	fcb42c23          	sw	a1,-40(s0)
80004c98:	fcc42a23          	sw	a2,-44(s0)
80004c9c:	fcd42823          	sw	a3,-48(s0)
80004ca0:	fce42623          	sw	a4,-52(s0)
/casa/workspace/Chronos-RISCV6/FreeRTOS/Debug/../FreeRTOS/applications.c:49
    unsigned int tslot = API_GetFreeTaskSlot();
80004ca4:	f5dff0ef          	jal	ra,80004c00 <API_GetFreeTaskSlot>
80004ca8:	fea42423          	sw	a0,-24(s0)
/casa/workspace/Chronos-RISCV6/FreeRTOS/Debug/../FreeRTOS/applications.c:51
    int i;
    if(tslot == ERRO){
80004cac:	fe842703          	lw	a4,-24(s0)
80004cb0:	fff00793          	li	a5,-1
80004cb4:	00f71863          	bne	a4,a5,80004cc4 <API_TaskAllocation+0x44>
/casa/workspace/Chronos-RISCV6/FreeRTOS/Debug/../FreeRTOS/applications.c:52
        prints("DEU RUIM NO API_GetFreeTaskSlot()\n");
80004cb8:	800097b7          	lui	a5,0x80009
80004cbc:	c7c78513          	addi	a0,a5,-900 # 80008c7c <__stack_top+0xfffc1cec>
80004cc0:	7b8010ef          	jal	ra,80006478 <prints>
/casa/workspace/Chronos-RISCV6/FreeRTOS/Debug/../FreeRTOS/applications.c:54
    }
    printsv("Got slot: ", tslot);
80004cc4:	fe842783          	lw	a5,-24(s0)
80004cc8:	00078593          	mv	a1,a5
80004ccc:	800097b7          	lui	a5,0x80009
80004cd0:	ca078513          	addi	a0,a5,-864 # 80008ca0 <__stack_top+0xfffc1d10>
80004cd4:	051010ef          	jal	ra,80006524 <printsv>
/casa/workspace/Chronos-RISCV6/FreeRTOS/Debug/../FreeRTOS/applications.c:55
    TaskList[tslot].status = TASK_SLOT_WAITING_START;
80004cd8:	800237b7          	lui	a5,0x80023
80004cdc:	fe842683          	lw	a3,-24(s0)
80004ce0:	00001737          	lui	a4,0x1
80004ce4:	98470713          	addi	a4,a4,-1660 # 984 <HEAP_SIZE-0xf67c>
80004ce8:	02e68733          	mul	a4,a3,a4
80004cec:	65878793          	addi	a5,a5,1624 # 80023658 <__stack_top+0xfffdc6c8>
80004cf0:	00f707b3          	add	a5,a4,a5
80004cf4:	00200713          	li	a4,2
80004cf8:	00e7a023          	sw	a4,0(a5)
/casa/workspace/Chronos-RISCV6/FreeRTOS/Debug/../FreeRTOS/applications.c:56
    TaskList[tslot].waitingMsg = FALSE;
80004cfc:	800237b7          	lui	a5,0x80023
80004d00:	fe842683          	lw	a3,-24(s0)
80004d04:	65878713          	addi	a4,a5,1624 # 80023658 <__stack_top+0xfffdc6c8>
80004d08:	000017b7          	lui	a5,0x1
80004d0c:	98478793          	addi	a5,a5,-1660 # 984 <HEAP_SIZE-0xf67c>
80004d10:	02f687b3          	mul	a5,a3,a5
80004d14:	00f707b3          	add	a5,a4,a5
80004d18:	0007ae23          	sw	zero,28(a5)
/casa/workspace/Chronos-RISCV6/FreeRTOS/Debug/../FreeRTOS/applications.c:57
    TaskList[tslot].TaskID = task_id;
80004d1c:	800237b7          	lui	a5,0x80023
80004d20:	fe842683          	lw	a3,-24(s0)
80004d24:	00001737          	lui	a4,0x1
80004d28:	98470713          	addi	a4,a4,-1660 # 984 <HEAP_SIZE-0xf67c>
80004d2c:	02e68733          	mul	a4,a3,a4
80004d30:	65878793          	addi	a5,a5,1624 # 80023658 <__stack_top+0xfffdc6c8>
80004d34:	00f707b3          	add	a5,a4,a5
80004d38:	fdc42703          	lw	a4,-36(s0)
80004d3c:	00e7a823          	sw	a4,16(a5)
/casa/workspace/Chronos-RISCV6/FreeRTOS/Debug/../FreeRTOS/applications.c:58
    TaskList[tslot].AppID = task_app_id;
80004d40:	800237b7          	lui	a5,0x80023
80004d44:	fe842683          	lw	a3,-24(s0)
80004d48:	65878713          	addi	a4,a5,1624 # 80023658 <__stack_top+0xfffdc6c8>
80004d4c:	000017b7          	lui	a5,0x1
80004d50:	98478793          	addi	a5,a5,-1660 # 984 <HEAP_SIZE-0xf67c>
80004d54:	02f687b3          	mul	a5,a3,a5
80004d58:	00f707b3          	add	a5,a4,a5
80004d5c:	fcc42703          	lw	a4,-52(s0)
80004d60:	00e7aa23          	sw	a4,20(a5)
/casa/workspace/Chronos-RISCV6/FreeRTOS/Debug/../FreeRTOS/applications.c:59
    TaskList[tslot].taskSize = 4 * (txt_size + bss_size); // it multiply by four because each word has 32 bits and the memory is addressed by byte - so each word is composed by 4 addresses
80004d64:	fd842703          	lw	a4,-40(s0)
80004d68:	fd442783          	lw	a5,-44(s0)
80004d6c:	00f707b3          	add	a5,a4,a5
80004d70:	00279713          	slli	a4,a5,0x2
80004d74:	800237b7          	lui	a5,0x80023
80004d78:	fe842603          	lw	a2,-24(s0)
80004d7c:	65878693          	addi	a3,a5,1624 # 80023658 <__stack_top+0xfffdc6c8>
80004d80:	000017b7          	lui	a5,0x1
80004d84:	98478793          	addi	a5,a5,-1660 # 984 <HEAP_SIZE-0xf67c>
80004d88:	02f607b3          	mul	a5,a2,a5
80004d8c:	00f687b3          	add	a5,a3,a5
80004d90:	02e7a223          	sw	a4,36(a5)
/casa/workspace/Chronos-RISCV6/FreeRTOS/Debug/../FreeRTOS/applications.c:60
    printsv("Task total size (txt+bss): ", TaskList[tslot].taskSize);
80004d94:	800237b7          	lui	a5,0x80023
80004d98:	fe842683          	lw	a3,-24(s0)
80004d9c:	65878713          	addi	a4,a5,1624 # 80023658 <__stack_top+0xfffdc6c8>
80004da0:	000017b7          	lui	a5,0x1
80004da4:	98478793          	addi	a5,a5,-1660 # 984 <HEAP_SIZE-0xf67c>
80004da8:	02f687b3          	mul	a5,a3,a5
80004dac:	00f707b3          	add	a5,a4,a5
80004db0:	0247a783          	lw	a5,36(a5)
80004db4:	00078593          	mv	a1,a5
80004db8:	800097b7          	lui	a5,0x80009
80004dbc:	cac78513          	addi	a0,a5,-852 # 80008cac <__stack_top+0xfffc1d1c>
80004dc0:	764010ef          	jal	ra,80006524 <printsv>
/casa/workspace/Chronos-RISCV6/FreeRTOS/Debug/../FreeRTOS/applications.c:61
    TaskList[tslot].taskAddr = (unsigned int)pvPortMalloc(TaskList[tslot].taskSize+64);
80004dc4:	800237b7          	lui	a5,0x80023
80004dc8:	fe842683          	lw	a3,-24(s0)
80004dcc:	65878713          	addi	a4,a5,1624 # 80023658 <__stack_top+0xfffdc6c8>
80004dd0:	000017b7          	lui	a5,0x1
80004dd4:	98478793          	addi	a5,a5,-1660 # 984 <HEAP_SIZE-0xf67c>
80004dd8:	02f687b3          	mul	a5,a3,a5
80004ddc:	00f707b3          	add	a5,a4,a5
80004de0:	0247a783          	lw	a5,36(a5)
80004de4:	04078793          	addi	a5,a5,64
80004de8:	00078513          	mv	a0,a5
80004dec:	cbcfc0ef          	jal	ra,800012a8 <pvPortMalloc>
80004df0:	00050793          	mv	a5,a0
80004df4:	00078613          	mv	a2,a5
80004df8:	800237b7          	lui	a5,0x80023
80004dfc:	fe842683          	lw	a3,-24(s0)
80004e00:	65878713          	addi	a4,a5,1624 # 80023658 <__stack_top+0xfffdc6c8>
80004e04:	000017b7          	lui	a5,0x1
80004e08:	98478793          	addi	a5,a5,-1660 # 984 <HEAP_SIZE-0xf67c>
80004e0c:	02f687b3          	mul	a5,a3,a5
80004e10:	00f707b3          	add	a5,a4,a5
80004e14:	02c7a423          	sw	a2,40(a5)
/casa/workspace/Chronos-RISCV6/FreeRTOS/Debug/../FreeRTOS/applications.c:62
    printsv("Task addr: ", TaskList[tslot].taskAddr);
80004e18:	800237b7          	lui	a5,0x80023
80004e1c:	fe842683          	lw	a3,-24(s0)
80004e20:	65878713          	addi	a4,a5,1624 # 80023658 <__stack_top+0xfffdc6c8>
80004e24:	000017b7          	lui	a5,0x1
80004e28:	98478793          	addi	a5,a5,-1660 # 984 <HEAP_SIZE-0xf67c>
80004e2c:	02f687b3          	mul	a5,a3,a5
80004e30:	00f707b3          	add	a5,a4,a5
80004e34:	0287a783          	lw	a5,40(a5)
80004e38:	00078593          	mv	a1,a5
80004e3c:	800097b7          	lui	a5,0x80009
80004e40:	cc878513          	addi	a0,a5,-824 # 80008cc8 <__stack_top+0xfffc1d38>
80004e44:	6e0010ef          	jal	ra,80006524 <printsv>
/casa/workspace/Chronos-RISCV6/FreeRTOS/Debug/../FreeRTOS/applications.c:63
    TaskList[tslot].mainAddr =  TaskList[tslot].taskAddr + (4 * start_point);
80004e48:	800237b7          	lui	a5,0x80023
80004e4c:	fe842683          	lw	a3,-24(s0)
80004e50:	65878713          	addi	a4,a5,1624 # 80023658 <__stack_top+0xfffdc6c8>
80004e54:	000017b7          	lui	a5,0x1
80004e58:	98478793          	addi	a5,a5,-1660 # 984 <HEAP_SIZE-0xf67c>
80004e5c:	02f687b3          	mul	a5,a3,a5
80004e60:	00f707b3          	add	a5,a4,a5
80004e64:	0287a703          	lw	a4,40(a5)
80004e68:	fd042783          	lw	a5,-48(s0)
80004e6c:	00279793          	slli	a5,a5,0x2
80004e70:	00f70733          	add	a4,a4,a5
80004e74:	800237b7          	lui	a5,0x80023
80004e78:	fe842603          	lw	a2,-24(s0)
80004e7c:	65878693          	addi	a3,a5,1624 # 80023658 <__stack_top+0xfffdc6c8>
80004e80:	000017b7          	lui	a5,0x1
80004e84:	98478793          	addi	a5,a5,-1660 # 984 <HEAP_SIZE-0xf67c>
80004e88:	02f607b3          	mul	a5,a2,a5
80004e8c:	00f687b3          	add	a5,a3,a5
80004e90:	02e7a623          	sw	a4,44(a5)
/casa/workspace/Chronos-RISCV6/FreeRTOS/Debug/../FreeRTOS/applications.c:69

    // filling the MemoryRegion_t struct
    //TaskList[tslot].memRegion.ulLengthInBytes = 0;// TaskList[tslot].taskSize;
    //TaskList[tslot].memRegion.pvBaseAddress = 0;//TaskList[tslot].taskAddr;

    for(i=0;i<NUM_MAX_APP_TASKS;i++){
80004e94:	fe042623          	sw	zero,-20(s0)
80004e98:	0680006f          	j	80004f00 <API_TaskAllocation+0x280>
/casa/workspace/Chronos-RISCV6/FreeRTOS/Debug/../FreeRTOS/applications.c:70 (discriminator 3)
        TaskList[tslot].PendingReq[i] = FALSE;
80004e9c:	800237b7          	lui	a5,0x80023
80004ea0:	fe842683          	lw	a3,-24(s0)
80004ea4:	26100713          	li	a4,609
80004ea8:	02e686b3          	mul	a3,a3,a4
80004eac:	fec42703          	lw	a4,-20(s0)
80004eb0:	00e68733          	add	a4,a3,a4
80004eb4:	24c70713          	addi	a4,a4,588
80004eb8:	00271713          	slli	a4,a4,0x2
80004ebc:	65878793          	addi	a5,a5,1624 # 80023658 <__stack_top+0xfffdc6c8>
80004ec0:	00f707b3          	add	a5,a4,a5
80004ec4:	0007a023          	sw	zero,0(a5)
/casa/workspace/Chronos-RISCV6/FreeRTOS/Debug/../FreeRTOS/applications.c:71 (discriminator 3)
        TaskList[tslot].TasksMap[i] = 0;
80004ec8:	80023737          	lui	a4,0x80023
80004ecc:	fe842683          	lw	a3,-24(s0)
80004ed0:	26100793          	li	a5,609
80004ed4:	02f686b3          	mul	a3,a3,a5
80004ed8:	fec42783          	lw	a5,-20(s0)
80004edc:	00f687b3          	add	a5,a3,a5
80004ee0:	25478793          	addi	a5,a5,596
80004ee4:	65870713          	addi	a4,a4,1624 # 80023658 <__stack_top+0xfffdc6c8>
80004ee8:	00279793          	slli	a5,a5,0x2
80004eec:	00f707b3          	add	a5,a4,a5
80004ef0:	0007a623          	sw	zero,12(a5)
/casa/workspace/Chronos-RISCV6/FreeRTOS/Debug/../FreeRTOS/applications.c:69 (discriminator 3)
    for(i=0;i<NUM_MAX_APP_TASKS;i++){
80004ef4:	fec42783          	lw	a5,-20(s0)
80004ef8:	00178793          	addi	a5,a5,1
80004efc:	fef42623          	sw	a5,-20(s0)
/casa/workspace/Chronos-RISCV6/FreeRTOS/Debug/../FreeRTOS/applications.c:69 (discriminator 1)
80004f00:	fec42703          	lw	a4,-20(s0)
80004f04:	00900793          	li	a5,9
80004f08:	f8e7dae3          	ble	a4,a5,80004e9c <API_TaskAllocation+0x21c>
/casa/workspace/Chronos-RISCV6/FreeRTOS/Debug/../FreeRTOS/applications.c:74
    }

    return tslot;
80004f0c:	fe842783          	lw	a5,-24(s0)
/casa/workspace/Chronos-RISCV6/FreeRTOS/Debug/../FreeRTOS/applications.c:75
}
80004f10:	00078513          	mv	a0,a5
80004f14:	03c12083          	lw	ra,60(sp)
80004f18:	03812403          	lw	s0,56(sp)
80004f1c:	04010113          	addi	sp,sp,64
80004f20:	00008067          	ret

80004f24 <API_GetTaskSlot>:
API_GetTaskSlot():
/casa/workspace/Chronos-RISCV6/FreeRTOS/Debug/../FreeRTOS/applications.c:77

unsigned int API_GetTaskSlot(unsigned int task_id, unsigned int app_id){
80004f24:	fd010113          	addi	sp,sp,-48
80004f28:	02112623          	sw	ra,44(sp)
80004f2c:	02812423          	sw	s0,40(sp)
80004f30:	03010413          	addi	s0,sp,48
80004f34:	fca42e23          	sw	a0,-36(s0)
80004f38:	fcb42c23          	sw	a1,-40(s0)
/casa/workspace/Chronos-RISCV6/FreeRTOS/Debug/../FreeRTOS/applications.c:79
    unsigned int i;
    for( i = 0; i < NUM_MAX_APP_TASKS; i++){
80004f3c:	fe042623          	sw	zero,-20(s0)
80004f40:	08c0006f          	j	80004fcc <API_GetTaskSlot+0xa8>
/casa/workspace/Chronos-RISCV6/FreeRTOS/Debug/../FreeRTOS/applications.c:80
        if(task_id == TaskList[i].TaskID && app_id == TaskList[i].AppID && TaskList[i].status != TASK_SLOT_EMPTY)
80004f44:	800237b7          	lui	a5,0x80023
80004f48:	fec42683          	lw	a3,-20(s0)
80004f4c:	00001737          	lui	a4,0x1
80004f50:	98470713          	addi	a4,a4,-1660 # 984 <HEAP_SIZE-0xf67c>
80004f54:	02e68733          	mul	a4,a3,a4
80004f58:	65878793          	addi	a5,a5,1624 # 80023658 <__stack_top+0xfffdc6c8>
80004f5c:	00f707b3          	add	a5,a4,a5
80004f60:	0107a783          	lw	a5,16(a5)
80004f64:	fdc42703          	lw	a4,-36(s0)
80004f68:	04f71c63          	bne	a4,a5,80004fc0 <API_GetTaskSlot+0x9c>
/casa/workspace/Chronos-RISCV6/FreeRTOS/Debug/../FreeRTOS/applications.c:80 (discriminator 1)
80004f6c:	800237b7          	lui	a5,0x80023
80004f70:	fec42683          	lw	a3,-20(s0)
80004f74:	65878713          	addi	a4,a5,1624 # 80023658 <__stack_top+0xfffdc6c8>
80004f78:	000017b7          	lui	a5,0x1
80004f7c:	98478793          	addi	a5,a5,-1660 # 984 <HEAP_SIZE-0xf67c>
80004f80:	02f687b3          	mul	a5,a3,a5
80004f84:	00f707b3          	add	a5,a4,a5
80004f88:	0147a783          	lw	a5,20(a5)
80004f8c:	fd842703          	lw	a4,-40(s0)
80004f90:	02f71863          	bne	a4,a5,80004fc0 <API_GetTaskSlot+0x9c>
/casa/workspace/Chronos-RISCV6/FreeRTOS/Debug/../FreeRTOS/applications.c:80 (discriminator 2)
80004f94:	800237b7          	lui	a5,0x80023
80004f98:	fec42683          	lw	a3,-20(s0)
80004f9c:	00001737          	lui	a4,0x1
80004fa0:	98470713          	addi	a4,a4,-1660 # 984 <HEAP_SIZE-0xf67c>
80004fa4:	02e68733          	mul	a4,a3,a4
80004fa8:	65878793          	addi	a5,a5,1624 # 80023658 <__stack_top+0xfffdc6c8>
80004fac:	00f707b3          	add	a5,a4,a5
80004fb0:	0007a783          	lw	a5,0(a5)
80004fb4:	00078663          	beqz	a5,80004fc0 <API_GetTaskSlot+0x9c>
/casa/workspace/Chronos-RISCV6/FreeRTOS/Debug/../FreeRTOS/applications.c:81
            return i;
80004fb8:	fec42783          	lw	a5,-20(s0)
80004fbc:	02c0006f          	j	80004fe8 <API_GetTaskSlot+0xc4>
/casa/workspace/Chronos-RISCV6/FreeRTOS/Debug/../FreeRTOS/applications.c:79 (discriminator 2)
    for( i = 0; i < NUM_MAX_APP_TASKS; i++){
80004fc0:	fec42783          	lw	a5,-20(s0)
80004fc4:	00178793          	addi	a5,a5,1
80004fc8:	fef42623          	sw	a5,-20(s0)
/casa/workspace/Chronos-RISCV6/FreeRTOS/Debug/../FreeRTOS/applications.c:79 (discriminator 1)
80004fcc:	fec42703          	lw	a4,-20(s0)
80004fd0:	00900793          	li	a5,9
80004fd4:	f6e7f8e3          	bleu	a4,a5,80004f44 <API_GetTaskSlot+0x20>
/casa/workspace/Chronos-RISCV6/FreeRTOS/Debug/../FreeRTOS/applications.c:83
    }
    prints("returning erro2\n");
80004fd8:	800097b7          	lui	a5,0x80009
80004fdc:	cd478513          	addi	a0,a5,-812 # 80008cd4 <__stack_top+0xfffc1d44>
80004fe0:	498010ef          	jal	ra,80006478 <prints>
/casa/workspace/Chronos-RISCV6/FreeRTOS/Debug/../FreeRTOS/applications.c:84
    return ERRO;
80004fe4:	fff00793          	li	a5,-1
/casa/workspace/Chronos-RISCV6/FreeRTOS/Debug/../FreeRTOS/applications.c:85
}
80004fe8:	00078513          	mv	a0,a5
80004fec:	02c12083          	lw	ra,44(sp)
80004ff0:	02812403          	lw	s0,40(sp)
80004ff4:	03010113          	addi	sp,sp,48
80004ff8:	00008067          	ret

80004ffc <API_TaskStart>:
API_TaskStart():
/casa/workspace/Chronos-RISCV6/FreeRTOS/Debug/../FreeRTOS/applications.c:87

void API_TaskStart(unsigned int slot){
80004ffc:	fd010113          	addi	sp,sp,-48
80005000:	02112623          	sw	ra,44(sp)
80005004:	02812423          	sw	s0,40(sp)
80005008:	03010413          	addi	s0,sp,48
8000500c:	fca42e23          	sw	a0,-36(s0)
/casa/workspace/Chronos-RISCV6/FreeRTOS/Debug/../FreeRTOS/applications.c:89
    BaseType_t xReturned;
    TaskList[slot].status = TASK_SLOT_RUNNING;
80005010:	800237b7          	lui	a5,0x80023
80005014:	fdc42683          	lw	a3,-36(s0)
80005018:	00001737          	lui	a4,0x1
8000501c:	98470713          	addi	a4,a4,-1660 # 984 <HEAP_SIZE-0xf67c>
80005020:	02e68733          	mul	a4,a3,a4
80005024:	65878793          	addi	a5,a5,1624 # 80023658 <__stack_top+0xfffdc6c8>
80005028:	00f707b3          	add	a5,a4,a5
8000502c:	00100713          	li	a4,1
80005030:	00e7a023          	sw	a4,0(a5)
/casa/workspace/Chronos-RISCV6/FreeRTOS/Debug/../FreeRTOS/applications.c:100
                                    tskIDLE_PRIORITY+1,         //uxPriority
                                    &TaskList[slot].TaskHandler,// pxCreatedTask
                                    NULL,                       // puxStackBuffer
                                    &TaskList[slot].memRegion );//xRegions*/
    
    xReturned = xTaskCreate(TaskList[slot].mainAddr,
80005034:	800237b7          	lui	a5,0x80023
80005038:	fdc42683          	lw	a3,-36(s0)
8000503c:	65878713          	addi	a4,a5,1624 # 80023658 <__stack_top+0xfffdc6c8>
80005040:	000017b7          	lui	a5,0x1
80005044:	98478793          	addi	a5,a5,-1660 # 984 <HEAP_SIZE-0xf67c>
80005048:	02f687b3          	mul	a5,a3,a5
8000504c:	00f707b3          	add	a5,a4,a5
80005050:	02c7a783          	lw	a5,44(a5)
80005054:	00078513          	mv	a0,a5
80005058:	fdc42703          	lw	a4,-36(s0)
8000505c:	000017b7          	lui	a5,0x1
80005060:	98478793          	addi	a5,a5,-1660 # 984 <HEAP_SIZE-0xf67c>
80005064:	02f707b3          	mul	a5,a4,a5
80005068:	01078713          	addi	a4,a5,16
8000506c:	800237b7          	lui	a5,0x80023
80005070:	65878793          	addi	a5,a5,1624 # 80023658 <__stack_top+0xfffdc6c8>
80005074:	00f707b3          	add	a5,a4,a5
80005078:	00878793          	addi	a5,a5,8
8000507c:	00000893          	li	a7,0
80005080:	00000813          	li	a6,0
80005084:	00100713          	li	a4,1
80005088:	00000693          	li	a3,0
8000508c:	00001637          	lui	a2,0x1
80005090:	800095b7          	lui	a1,0x80009
80005094:	ce858593          	addi	a1,a1,-792 # 80008ce8 <__stack_top+0xfffc1d58>
80005098:	e95fc0ef          	jal	ra,80001f2c <xTaskGenericCreate>
8000509c:	fea42623          	sw	a0,-20(s0)
/casa/workspace/Chronos-RISCV6/FreeRTOS/Debug/../FreeRTOS/applications.c:106
                            "LaTask",
                            4096,//8192,//4096,//16384,
                            NULL,
                            tskIDLE_PRIORITY+1,
                            &TaskList[slot].TaskHandler);
    if( xReturned != pdPASS ){
800050a0:	fec42703          	lw	a4,-20(s0)
800050a4:	00100793          	li	a5,1
800050a8:	00f70a63          	beq	a4,a5,800050bc <API_TaskStart+0xc0>
/casa/workspace/Chronos-RISCV6/FreeRTOS/Debug/../FreeRTOS/applications.c:107
        prints("ERROR - API_TaskStart!!!\n");
800050ac:	800097b7          	lui	a5,0x80009
800050b0:	cf078513          	addi	a0,a5,-784 # 80008cf0 <__stack_top+0xfffc1d60>
800050b4:	3c4010ef          	jal	ra,80006478 <prints>
/casa/workspace/Chronos-RISCV6/FreeRTOS/Debug/../FreeRTOS/applications.c:109
    }
    return;
800050b8:	00000013          	nop
800050bc:	00000013          	nop
/casa/workspace/Chronos-RISCV6/FreeRTOS/Debug/../FreeRTOS/applications.c:110
}
800050c0:	02c12083          	lw	ra,44(sp)
800050c4:	02812403          	lw	s0,40(sp)
800050c8:	03010113          	addi	sp,sp,48
800050cc:	00008067          	ret

800050d0 <API_FinishRunningTask>:
API_FinishRunningTask():
/casa/workspace/Chronos-RISCV6/FreeRTOS/Debug/../FreeRTOS/applications.c:113


void API_FinishRunningTask(){
800050d0:	fe010113          	addi	sp,sp,-32
800050d4:	00112e23          	sw	ra,28(sp)
800050d8:	00812c23          	sw	s0,24(sp)
800050dc:	02010413          	addi	s0,sp,32
/casa/workspace/Chronos-RISCV6/FreeRTOS/Debug/../FreeRTOS/applications.c:115
    int i;
    unsigned int slot = API_GetCurrentTaskSlot();
800050e0:	a6dff0ef          	jal	ra,80004b4c <API_GetCurrentTaskSlot>
800050e4:	fea42423          	sw	a0,-24(s0)
/casa/workspace/Chronos-RISCV6/FreeRTOS/Debug/../FreeRTOS/applications.c:116
    printsvsv("Finishing task:", TaskList[slot].TaskID, "app: ", TaskList[slot].AppID);
800050e8:	800237b7          	lui	a5,0x80023
800050ec:	fe842683          	lw	a3,-24(s0)
800050f0:	00001737          	lui	a4,0x1
800050f4:	98470713          	addi	a4,a4,-1660 # 984 <HEAP_SIZE-0xf67c>
800050f8:	02e68733          	mul	a4,a3,a4
800050fc:	65878793          	addi	a5,a5,1624 # 80023658 <__stack_top+0xfffdc6c8>
80005100:	00f707b3          	add	a5,a4,a5
80005104:	0107a783          	lw	a5,16(a5)
80005108:	00078593          	mv	a1,a5
8000510c:	800237b7          	lui	a5,0x80023
80005110:	fe842683          	lw	a3,-24(s0)
80005114:	65878713          	addi	a4,a5,1624 # 80023658 <__stack_top+0xfffdc6c8>
80005118:	000017b7          	lui	a5,0x1
8000511c:	98478793          	addi	a5,a5,-1660 # 984 <HEAP_SIZE-0xf67c>
80005120:	02f687b3          	mul	a5,a3,a5
80005124:	00f707b3          	add	a5,a4,a5
80005128:	0147a783          	lw	a5,20(a5)
8000512c:	00078693          	mv	a3,a5
80005130:	800097b7          	lui	a5,0x80009
80005134:	d0c78613          	addi	a2,a5,-756 # 80008d0c <__stack_top+0xfffc1d7c>
80005138:	800097b7          	lui	a5,0x80009
8000513c:	d1478513          	addi	a0,a5,-748 # 80008d14 <__stack_top+0xfffc1d84>
80005140:	42c010ef          	jal	ra,8000656c <printsvsv>
/casa/workspace/Chronos-RISCV6/FreeRTOS/Debug/../FreeRTOS/applications.c:117
    printsv("From slot: ", slot);
80005144:	fe842783          	lw	a5,-24(s0)
80005148:	00078593          	mv	a1,a5
8000514c:	800097b7          	lui	a5,0x80009
80005150:	d2478513          	addi	a0,a5,-732 # 80008d24 <__stack_top+0xfffc1d94>
80005154:	3d0010ef          	jal	ra,80006524 <printsv>
/casa/workspace/Chronos-RISCV6/FreeRTOS/Debug/../FreeRTOS/applications.c:118
    while(API_checkPipe(slot) == 1){
80005158:	00c0006f          	j	80005164 <API_FinishRunningTask+0x94>
/casa/workspace/Chronos-RISCV6/FreeRTOS/Debug/../FreeRTOS/applications.c:119
        vTaskDelay(1);
8000515c:	00100513          	li	a0,1
80005160:	8c4fd0ef          	jal	ra,80002224 <vTaskDelay>
/casa/workspace/Chronos-RISCV6/FreeRTOS/Debug/../FreeRTOS/applications.c:118
    while(API_checkPipe(slot) == 1){
80005164:	fe842503          	lw	a0,-24(s0)
80005168:	6f4000ef          	jal	ra,8000585c <API_checkPipe>
8000516c:	00050713          	mv	a4,a0
80005170:	00100793          	li	a5,1
80005174:	fef704e3          	beq	a4,a5,8000515c <API_FinishRunningTask+0x8c>
/casa/workspace/Chronos-RISCV6/FreeRTOS/Debug/../FreeRTOS/applications.c:121
    }
    vTaskEnterCritical();
80005178:	ec1fd0ef          	jal	ra,80003038 <vTaskEnterCritical>
/casa/workspace/Chronos-RISCV6/FreeRTOS/Debug/../FreeRTOS/applications.c:122
    printsvsv("Task ", TaskList[slot].TaskID, "deleted with sucsess! From application ", TaskList[slot].AppID);
8000517c:	800237b7          	lui	a5,0x80023
80005180:	fe842683          	lw	a3,-24(s0)
80005184:	00001737          	lui	a4,0x1
80005188:	98470713          	addi	a4,a4,-1660 # 984 <HEAP_SIZE-0xf67c>
8000518c:	02e68733          	mul	a4,a3,a4
80005190:	65878793          	addi	a5,a5,1624 # 80023658 <__stack_top+0xfffdc6c8>
80005194:	00f707b3          	add	a5,a4,a5
80005198:	0107a783          	lw	a5,16(a5)
8000519c:	00078593          	mv	a1,a5
800051a0:	800237b7          	lui	a5,0x80023
800051a4:	fe842683          	lw	a3,-24(s0)
800051a8:	65878713          	addi	a4,a5,1624 # 80023658 <__stack_top+0xfffdc6c8>
800051ac:	000017b7          	lui	a5,0x1
800051b0:	98478793          	addi	a5,a5,-1660 # 984 <HEAP_SIZE-0xf67c>
800051b4:	02f687b3          	mul	a5,a3,a5
800051b8:	00f707b3          	add	a5,a4,a5
800051bc:	0147a783          	lw	a5,20(a5)
800051c0:	00078693          	mv	a3,a5
800051c4:	800097b7          	lui	a5,0x80009
800051c8:	d3078613          	addi	a2,a5,-720 # 80008d30 <__stack_top+0xfffc1da0>
800051cc:	800097b7          	lui	a5,0x80009
800051d0:	d5878513          	addi	a0,a5,-680 # 80008d58 <__stack_top+0xfffc1dc8>
800051d4:	398010ef          	jal	ra,8000656c <printsvsv>
/casa/workspace/Chronos-RISCV6/FreeRTOS/Debug/../FreeRTOS/applications.c:123
    TaskList[slot].status = TASK_SLOT_EMPTY;
800051d8:	800237b7          	lui	a5,0x80023
800051dc:	fe842683          	lw	a3,-24(s0)
800051e0:	00001737          	lui	a4,0x1
800051e4:	98470713          	addi	a4,a4,-1660 # 984 <HEAP_SIZE-0xf67c>
800051e8:	02e68733          	mul	a4,a3,a4
800051ec:	65878793          	addi	a5,a5,1624 # 80023658 <__stack_top+0xfffdc6c8>
800051f0:	00f707b3          	add	a5,a4,a5
800051f4:	0007a023          	sw	zero,0(a5)
/casa/workspace/Chronos-RISCV6/FreeRTOS/Debug/../FreeRTOS/applications.c:125
    
    for(i = 0; i < NUM_MAX_TASKS; i++){
800051f8:	fe042623          	sw	zero,-20(s0)
800051fc:	0b80006f          	j	800052b4 <API_FinishRunningTask+0x1e4>
/casa/workspace/Chronos-RISCV6/FreeRTOS/Debug/../FreeRTOS/applications.c:126
        printsvsv("TaskList[", i, "]status: ", TaskList[i].status );
80005200:	800237b7          	lui	a5,0x80023
80005204:	fec42683          	lw	a3,-20(s0)
80005208:	00001737          	lui	a4,0x1
8000520c:	98470713          	addi	a4,a4,-1660 # 984 <HEAP_SIZE-0xf67c>
80005210:	02e68733          	mul	a4,a3,a4
80005214:	65878793          	addi	a5,a5,1624 # 80023658 <__stack_top+0xfffdc6c8>
80005218:	00f707b3          	add	a5,a4,a5
8000521c:	0007a783          	lw	a5,0(a5)
80005220:	00078693          	mv	a3,a5
80005224:	800097b7          	lui	a5,0x80009
80005228:	d6078613          	addi	a2,a5,-672 # 80008d60 <__stack_top+0xfffc1dd0>
8000522c:	fec42583          	lw	a1,-20(s0)
80005230:	800097b7          	lui	a5,0x80009
80005234:	d6c78513          	addi	a0,a5,-660 # 80008d6c <__stack_top+0xfffc1ddc>
80005238:	334010ef          	jal	ra,8000656c <printsvsv>
/casa/workspace/Chronos-RISCV6/FreeRTOS/Debug/../FreeRTOS/applications.c:127
        if(TaskList[i].status != TASK_SLOT_EMPTY){
8000523c:	800237b7          	lui	a5,0x80023
80005240:	fec42683          	lw	a3,-20(s0)
80005244:	00001737          	lui	a4,0x1
80005248:	98470713          	addi	a4,a4,-1660 # 984 <HEAP_SIZE-0xf67c>
8000524c:	02e68733          	mul	a4,a3,a4
80005250:	65878793          	addi	a5,a5,1624 # 80023658 <__stack_top+0xfffdc6c8>
80005254:	00f707b3          	add	a5,a4,a5
80005258:	0007a783          	lw	a5,0(a5)
8000525c:	04078663          	beqz	a5,800052a8 <API_FinishRunningTask+0x1d8>
/casa/workspace/Chronos-RISCV6/FreeRTOS/Debug/../FreeRTOS/applications.c:128
            printsvsv("Returning because of: ", i, "TaskList[i].status ", TaskList[i].status);
80005260:	800237b7          	lui	a5,0x80023
80005264:	fec42683          	lw	a3,-20(s0)
80005268:	00001737          	lui	a4,0x1
8000526c:	98470713          	addi	a4,a4,-1660 # 984 <HEAP_SIZE-0xf67c>
80005270:	02e68733          	mul	a4,a3,a4
80005274:	65878793          	addi	a5,a5,1624 # 80023658 <__stack_top+0xfffdc6c8>
80005278:	00f707b3          	add	a5,a4,a5
8000527c:	0007a783          	lw	a5,0(a5)
80005280:	00078693          	mv	a3,a5
80005284:	800097b7          	lui	a5,0x80009
80005288:	d7878613          	addi	a2,a5,-648 # 80008d78 <__stack_top+0xfffc1de8>
8000528c:	fec42583          	lw	a1,-20(s0)
80005290:	800097b7          	lui	a5,0x80009
80005294:	d8c78513          	addi	a0,a5,-628 # 80008d8c <__stack_top+0xfffc1dfc>
80005298:	2d4010ef          	jal	ra,8000656c <printsvsv>
/casa/workspace/Chronos-RISCV6/FreeRTOS/Debug/../FreeRTOS/applications.c:129
            i = 0xffffffff;
8000529c:	fff00793          	li	a5,-1
800052a0:	fef42623          	sw	a5,-20(s0)
/casa/workspace/Chronos-RISCV6/FreeRTOS/Debug/../FreeRTOS/applications.c:130
            break;
800052a4:	01c0006f          	j	800052c0 <API_FinishRunningTask+0x1f0>
/casa/workspace/Chronos-RISCV6/FreeRTOS/Debug/../FreeRTOS/applications.c:125 (discriminator 2)
    for(i = 0; i < NUM_MAX_TASKS; i++){
800052a8:	fec42783          	lw	a5,-20(s0)
800052ac:	00178793          	addi	a5,a5,1
800052b0:	fef42623          	sw	a5,-20(s0)
/casa/workspace/Chronos-RISCV6/FreeRTOS/Debug/../FreeRTOS/applications.c:125 (discriminator 1)
800052b4:	fec42703          	lw	a4,-20(s0)
800052b8:	00500793          	li	a5,5
800052bc:	f4e7d2e3          	ble	a4,a5,80005200 <API_FinishRunningTask+0x130>
/casa/workspace/Chronos-RISCV6/FreeRTOS/Debug/../FreeRTOS/applications.c:133
        }
    }
    if(i != 0xffffffff){
800052c0:	fec42703          	lw	a4,-20(s0)
800052c4:	fff00793          	li	a5,-1
800052c8:	00f70463          	beq	a4,a5,800052d0 <API_FinishRunningTask+0x200>
/casa/workspace/Chronos-RISCV6/FreeRTOS/Debug/../FreeRTOS/applications.c:134
        API_setFreqIdle();
800052cc:	6a0000ef          	jal	ra,8000596c <API_setFreqIdle>
/casa/workspace/Chronos-RISCV6/FreeRTOS/Debug/../FreeRTOS/applications.c:136
    }
    API_SendFinishTask(TaskList[slot].TaskID, TaskList[slot].AppID);
800052d0:	800237b7          	lui	a5,0x80023
800052d4:	fe842683          	lw	a3,-24(s0)
800052d8:	00001737          	lui	a4,0x1
800052dc:	98470713          	addi	a4,a4,-1660 # 984 <HEAP_SIZE-0xf67c>
800052e0:	02e68733          	mul	a4,a3,a4
800052e4:	65878793          	addi	a5,a5,1624 # 80023658 <__stack_top+0xfffdc6c8>
800052e8:	00f707b3          	add	a5,a4,a5
800052ec:	0107a603          	lw	a2,16(a5)
800052f0:	800237b7          	lui	a5,0x80023
800052f4:	fe842683          	lw	a3,-24(s0)
800052f8:	65878713          	addi	a4,a5,1624 # 80023658 <__stack_top+0xfffdc6c8>
800052fc:	000017b7          	lui	a5,0x1
80005300:	98478793          	addi	a5,a5,-1660 # 984 <HEAP_SIZE-0xf67c>
80005304:	02f687b3          	mul	a5,a3,a5
80005308:	00f707b3          	add	a5,a4,a5
8000530c:	0147a783          	lw	a5,20(a5)
80005310:	00078593          	mv	a1,a5
80005314:	00060513          	mv	a0,a2
80005318:	1e8020ef          	jal	ra,80007500 <API_SendFinishTask>
/casa/workspace/Chronos-RISCV6/FreeRTOS/Debug/../FreeRTOS/applications.c:137
    vPortFree(TaskList[slot].taskAddr);
8000531c:	800237b7          	lui	a5,0x80023
80005320:	fe842683          	lw	a3,-24(s0)
80005324:	65878713          	addi	a4,a5,1624 # 80023658 <__stack_top+0xfffdc6c8>
80005328:	000017b7          	lui	a5,0x1
8000532c:	98478793          	addi	a5,a5,-1660 # 984 <HEAP_SIZE-0xf67c>
80005330:	02f687b3          	mul	a5,a3,a5
80005334:	00f707b3          	add	a5,a4,a5
80005338:	0287a783          	lw	a5,40(a5)
8000533c:	00078513          	mv	a0,a5
80005340:	944fc0ef          	jal	ra,80001484 <vPortFree>
/casa/workspace/Chronos-RISCV6/FreeRTOS/Debug/../FreeRTOS/applications.c:138
    vTaskExitCritical();
80005344:	d31fd0ef          	jal	ra,80003074 <vTaskExitCritical>
/casa/workspace/Chronos-RISCV6/FreeRTOS/Debug/../FreeRTOS/applications.c:139
    vTaskDelete(TaskList[slot].TaskHandler);
80005348:	800237b7          	lui	a5,0x80023
8000534c:	fe842683          	lw	a3,-24(s0)
80005350:	65878713          	addi	a4,a5,1624 # 80023658 <__stack_top+0xfffdc6c8>
80005354:	000017b7          	lui	a5,0x1
80005358:	98478793          	addi	a5,a5,-1660 # 984 <HEAP_SIZE-0xf67c>
8000535c:	02f687b3          	mul	a5,a3,a5
80005360:	00f707b3          	add	a5,a4,a5
80005364:	0187a783          	lw	a5,24(a5)
80005368:	00078513          	mv	a0,a5
8000536c:	dddfc0ef          	jal	ra,80002148 <vTaskDelete>
/casa/workspace/Chronos-RISCV6/FreeRTOS/Debug/../FreeRTOS/applications.c:140
    return;
80005370:	00000013          	nop
/casa/workspace/Chronos-RISCV6/FreeRTOS/Debug/../FreeRTOS/applications.c:141
}
80005374:	01c12083          	lw	ra,28(sp)
80005378:	01812403          	lw	s0,24(sp)
8000537c:	02010113          	addi	sp,sp,32
80005380:	00008067          	ret

80005384 <API_PipeInitialization>:
API_PipeInitialization():
/casa/workspace/Chronos-RISCV6/FreeRTOS/Debug/../FreeRTOS/packet.c:14

extern unsigned int thermalPacket_pending; // from thermal.h

////////////////////////////////////////////////////////////
// Initialize the PIPE, setting the status of each slot to FREE
void API_PipeInitialization(){
80005384:	fe010113          	addi	sp,sp,-32
80005388:	00812e23          	sw	s0,28(sp)
8000538c:	02010413          	addi	s0,sp,32
/casa/workspace/Chronos-RISCV6/FreeRTOS/Debug/../FreeRTOS/packet.c:16
    int i, j;
    messageID = 0;
80005390:	800237b7          	lui	a5,0x80023
80005394:	8807a823          	sw	zero,-1904(a5) # 80022890 <__stack_top+0xfffdb900>
/casa/workspace/Chronos-RISCV6/FreeRTOS/Debug/../FreeRTOS/packet.c:17
    ServiceMessage.status = PIPE_FREE;
80005398:	800237b7          	lui	a5,0x80023
8000539c:	fff00713          	li	a4,-1
800053a0:	88e7aa23          	sw	a4,-1900(a5) # 80022894 <__stack_top+0xfffdb904>
/casa/workspace/Chronos-RISCV6/FreeRTOS/Debug/../FreeRTOS/packet.c:18
    for( i = 0; i < PIPE_SIZE; i++ ){
800053a4:	fe042623          	sw	zero,-20(s0)
800053a8:	0cc0006f          	j	80005474 <API_PipeInitialization+0xf0>
/casa/workspace/Chronos-RISCV6/FreeRTOS/Debug/../FreeRTOS/packet.c:19
        for(j = 0; j < NUM_MAX_TASKS; j++){
800053ac:	fe042423          	sw	zero,-24(s0)
800053b0:	0840006f          	j	80005434 <API_PipeInitialization+0xb0>
/casa/workspace/Chronos-RISCV6/FreeRTOS/Debug/../FreeRTOS/packet.c:20 (discriminator 3)
            TaskList[j].MessagePipe[i].status = PIPE_FREE;
800053b4:	800236b7          	lui	a3,0x80023
800053b8:	fec42703          	lw	a4,-20(s0)
800053bc:	fe842603          	lw	a2,-24(s0)
800053c0:	00070793          	mv	a5,a4
800053c4:	00379793          	slli	a5,a5,0x3
800053c8:	00e787b3          	add	a5,a5,a4
800053cc:	00679793          	slli	a5,a5,0x6
800053d0:	00001737          	lui	a4,0x1
800053d4:	98470713          	addi	a4,a4,-1660 # 984 <HEAP_SIZE-0xf67c>
800053d8:	02e60733          	mul	a4,a2,a4
800053dc:	00e78733          	add	a4,a5,a4
800053e0:	65868793          	addi	a5,a3,1624 # 80023658 <__stack_top+0xfffdc6c8>
800053e4:	00f707b3          	add	a5,a4,a5
800053e8:	fff00713          	li	a4,-1
800053ec:	02e7a823          	sw	a4,48(a5)
/casa/workspace/Chronos-RISCV6/FreeRTOS/Debug/../FreeRTOS/packet.c:21 (discriminator 3)
            TaskList[j].MessagePipe[i].msgID  = 0;
800053f0:	800237b7          	lui	a5,0x80023
800053f4:	fec42703          	lw	a4,-20(s0)
800053f8:	fe842603          	lw	a2,-24(s0)
800053fc:	65878693          	addi	a3,a5,1624 # 80023658 <__stack_top+0xfffdc6c8>
80005400:	00070793          	mv	a5,a4
80005404:	00379793          	slli	a5,a5,0x3
80005408:	00e787b3          	add	a5,a5,a4
8000540c:	00679793          	slli	a5,a5,0x6
80005410:	00001737          	lui	a4,0x1
80005414:	98470713          	addi	a4,a4,-1660 # 984 <HEAP_SIZE-0xf67c>
80005418:	02e60733          	mul	a4,a2,a4
8000541c:	00e787b3          	add	a5,a5,a4
80005420:	00f687b3          	add	a5,a3,a5
80005424:	0207aa23          	sw	zero,52(a5)
/casa/workspace/Chronos-RISCV6/FreeRTOS/Debug/../FreeRTOS/packet.c:19 (discriminator 3)
        for(j = 0; j < NUM_MAX_TASKS; j++){
80005428:	fe842783          	lw	a5,-24(s0)
8000542c:	00178793          	addi	a5,a5,1
80005430:	fef42423          	sw	a5,-24(s0)
/casa/workspace/Chronos-RISCV6/FreeRTOS/Debug/../FreeRTOS/packet.c:19 (discriminator 1)
80005434:	fe842703          	lw	a4,-24(s0)
80005438:	00500793          	li	a5,5
8000543c:	f6e7dce3          	ble	a4,a5,800053b4 <API_PipeInitialization+0x30>
/casa/workspace/Chronos-RISCV6/FreeRTOS/Debug/../FreeRTOS/packet.c:23 (discriminator 2)
        }        
        ServicePipe[i].status = PIPE_FREE;
80005440:	800226b7          	lui	a3,0x80022
80005444:	fec42703          	lw	a4,-20(s0)
80005448:	00070793          	mv	a5,a4
8000544c:	00479793          	slli	a5,a5,0x4
80005450:	40e787b3          	sub	a5,a5,a4
80005454:	00279793          	slli	a5,a5,0x2
80005458:	79c68713          	addi	a4,a3,1948 # 8002279c <__stack_top+0xfffdb80c>
8000545c:	00e787b3          	add	a5,a5,a4
80005460:	fff00713          	li	a4,-1
80005464:	00e7a023          	sw	a4,0(a5)
/casa/workspace/Chronos-RISCV6/FreeRTOS/Debug/../FreeRTOS/packet.c:18 (discriminator 2)
    for( i = 0; i < PIPE_SIZE; i++ ){
80005468:	fec42783          	lw	a5,-20(s0)
8000546c:	00178793          	addi	a5,a5,1
80005470:	fef42623          	sw	a5,-20(s0)
/casa/workspace/Chronos-RISCV6/FreeRTOS/Debug/../FreeRTOS/packet.c:18 (discriminator 1)
80005474:	fec42703          	lw	a4,-20(s0)
80005478:	00300793          	li	a5,3
8000547c:	f2e7d8e3          	ble	a4,a5,800053ac <API_PipeInitialization+0x28>
/casa/workspace/Chronos-RISCV6/FreeRTOS/Debug/../FreeRTOS/packet.c:25
    }
    return;
80005480:	00000013          	nop
/casa/workspace/Chronos-RISCV6/FreeRTOS/Debug/../FreeRTOS/packet.c:26
}
80005484:	01c12403          	lw	s0,28(sp)
80005488:	02010113          	addi	sp,sp,32
8000548c:	00008067          	ret

80005490 <API_GetMessageSlot>:
API_GetMessageSlot():
/casa/workspace/Chronos-RISCV6/FreeRTOS/Debug/../FreeRTOS/packet.c:30

////////////////////////////////////////////////////////////
// Returns a free Message slot 
unsigned int API_GetMessageSlot(){
80005490:	fe010113          	addi	sp,sp,-32
80005494:	00112e23          	sw	ra,28(sp)
80005498:	00812c23          	sw	s0,24(sp)
8000549c:	02010413          	addi	s0,sp,32
/casa/workspace/Chronos-RISCV6/FreeRTOS/Debug/../FreeRTOS/packet.c:32
    int i;
    unsigned int sel = PIPE_FULL;
800054a0:	fdfe07b7          	lui	a5,0xfdfe0
800054a4:	dfd78793          	addi	a5,a5,-515 # fdfdfdfd <__stack_top+0x7df98e6d>
800054a8:	fef42423          	sw	a5,-24(s0)
/casa/workspace/Chronos-RISCV6/FreeRTOS/Debug/../FreeRTOS/packet.c:33
    unsigned int currTask = API_GetCurrentTaskSlot();
800054ac:	ea0ff0ef          	jal	ra,80004b4c <API_GetCurrentTaskSlot>
800054b0:	fea42223          	sw	a0,-28(s0)
/casa/workspace/Chronos-RISCV6/FreeRTOS/Debug/../FreeRTOS/packet.c:34
    vTaskEnterCritical();
800054b4:	b85fd0ef          	jal	ra,80003038 <vTaskEnterCritical>
/casa/workspace/Chronos-RISCV6/FreeRTOS/Debug/../FreeRTOS/packet.c:35
    for( i = 0; i < PIPE_SIZE; i++ ){
800054b8:	fe042623          	sw	zero,-20(s0)
800054bc:	0f80006f          	j	800055b4 <API_GetMessageSlot+0x124>
/casa/workspace/Chronos-RISCV6/FreeRTOS/Debug/../FreeRTOS/packet.c:36
        if (TaskList[currTask].MessagePipe[i].status == PIPE_FREE){
800054c0:	800236b7          	lui	a3,0x80023
800054c4:	fec42703          	lw	a4,-20(s0)
800054c8:	fe442603          	lw	a2,-28(s0)
800054cc:	00070793          	mv	a5,a4
800054d0:	00379793          	slli	a5,a5,0x3
800054d4:	00e787b3          	add	a5,a5,a4
800054d8:	00679793          	slli	a5,a5,0x6
800054dc:	00001737          	lui	a4,0x1
800054e0:	98470713          	addi	a4,a4,-1660 # 984 <HEAP_SIZE-0xf67c>
800054e4:	02e60733          	mul	a4,a2,a4
800054e8:	00e78733          	add	a4,a5,a4
800054ec:	65868793          	addi	a5,a3,1624 # 80023658 <__stack_top+0xfffdc6c8>
800054f0:	00f707b3          	add	a5,a4,a5
800054f4:	0307a703          	lw	a4,48(a5)
800054f8:	fff00793          	li	a5,-1
800054fc:	0af71663          	bne	a4,a5,800055a8 <API_GetMessageSlot+0x118>
/casa/workspace/Chronos-RISCV6/FreeRTOS/Debug/../FreeRTOS/packet.c:37
            TaskList[currTask].MessagePipe[i].status = PIPE_OCCUPIED;
80005500:	800236b7          	lui	a3,0x80023
80005504:	fec42703          	lw	a4,-20(s0)
80005508:	fe442603          	lw	a2,-28(s0)
8000550c:	00070793          	mv	a5,a4
80005510:	00379793          	slli	a5,a5,0x3
80005514:	00e787b3          	add	a5,a5,a4
80005518:	00679793          	slli	a5,a5,0x6
8000551c:	00001737          	lui	a4,0x1
80005520:	98470713          	addi	a4,a4,-1660 # 984 <HEAP_SIZE-0xf67c>
80005524:	02e60733          	mul	a4,a2,a4
80005528:	00e78733          	add	a4,a5,a4
8000552c:	65868793          	addi	a5,a3,1624 # 80023658 <__stack_top+0xfffdc6c8>
80005530:	00f707b3          	add	a5,a4,a5
80005534:	00100713          	li	a4,1
80005538:	02e7a823          	sw	a4,48(a5)
/casa/workspace/Chronos-RISCV6/FreeRTOS/Debug/../FreeRTOS/packet.c:38
            TaskList[currTask].MessagePipe[i].msgID = messageID;
8000553c:	800237b7          	lui	a5,0x80023
80005540:	8907a683          	lw	a3,-1904(a5) # 80022890 <__stack_top+0xfffdb900>
80005544:	800237b7          	lui	a5,0x80023
80005548:	fec42703          	lw	a4,-20(s0)
8000554c:	fe442583          	lw	a1,-28(s0)
80005550:	65878613          	addi	a2,a5,1624 # 80023658 <__stack_top+0xfffdc6c8>
80005554:	00070793          	mv	a5,a4
80005558:	00379793          	slli	a5,a5,0x3
8000555c:	00e787b3          	add	a5,a5,a4
80005560:	00679793          	slli	a5,a5,0x6
80005564:	00001737          	lui	a4,0x1
80005568:	98470713          	addi	a4,a4,-1660 # 984 <HEAP_SIZE-0xf67c>
8000556c:	02e58733          	mul	a4,a1,a4
80005570:	00e787b3          	add	a5,a5,a4
80005574:	00f607b3          	add	a5,a2,a5
80005578:	02d7aa23          	sw	a3,52(a5)
/casa/workspace/Chronos-RISCV6/FreeRTOS/Debug/../FreeRTOS/packet.c:39
            messageID++;
8000557c:	800237b7          	lui	a5,0x80023
80005580:	8907a783          	lw	a5,-1904(a5) # 80022890 <__stack_top+0xfffdb900>
80005584:	00178713          	addi	a4,a5,1
80005588:	800237b7          	lui	a5,0x80023
8000558c:	88e7a823          	sw	a4,-1904(a5) # 80022890 <__stack_top+0xfffdb900>
/casa/workspace/Chronos-RISCV6/FreeRTOS/Debug/../FreeRTOS/packet.c:40
            sel = (currTask << 8) | i;
80005590:	fe442783          	lw	a5,-28(s0)
80005594:	00879713          	slli	a4,a5,0x8
80005598:	fec42783          	lw	a5,-20(s0)
8000559c:	00f767b3          	or	a5,a4,a5
800055a0:	fef42423          	sw	a5,-24(s0)
/casa/workspace/Chronos-RISCV6/FreeRTOS/Debug/../FreeRTOS/packet.c:41
            break;
800055a4:	01c0006f          	j	800055c0 <API_GetMessageSlot+0x130>
/casa/workspace/Chronos-RISCV6/FreeRTOS/Debug/../FreeRTOS/packet.c:35 (discriminator 2)
    for( i = 0; i < PIPE_SIZE; i++ ){
800055a8:	fec42783          	lw	a5,-20(s0)
800055ac:	00178793          	addi	a5,a5,1
800055b0:	fef42623          	sw	a5,-20(s0)
/casa/workspace/Chronos-RISCV6/FreeRTOS/Debug/../FreeRTOS/packet.c:35 (discriminator 1)
800055b4:	fec42703          	lw	a4,-20(s0)
800055b8:	00300793          	li	a5,3
800055bc:	f0e7d2e3          	ble	a4,a5,800054c0 <API_GetMessageSlot+0x30>
/casa/workspace/Chronos-RISCV6/FreeRTOS/Debug/../FreeRTOS/packet.c:44
        }
    }
    if(messageID > 0X0FFFFFF0){
800055c0:	800237b7          	lui	a5,0x80023
800055c4:	8907a703          	lw	a4,-1904(a5) # 80022890 <__stack_top+0xfffdb900>
800055c8:	100007b7          	lui	a5,0x10000
800055cc:	ff078793          	addi	a5,a5,-16 # ffffff0 <RAM_SIZE+0xff7fff0>
800055d0:	0ae7f263          	bleu	a4,a5,80005674 <API_GetMessageSlot+0x1e4>
/casa/workspace/Chronos-RISCV6/FreeRTOS/Debug/../FreeRTOS/packet.c:45
        messageID = 256;
800055d4:	800237b7          	lui	a5,0x80023
800055d8:	10000713          	li	a4,256
800055dc:	88e7a823          	sw	a4,-1904(a5) # 80022890 <__stack_top+0xfffdb900>
/casa/workspace/Chronos-RISCV6/FreeRTOS/Debug/../FreeRTOS/packet.c:46
        for( i = 0; i < PIPE_SIZE; i++ ){
800055e0:	fe042623          	sw	zero,-20(s0)
800055e4:	0840006f          	j	80005668 <API_GetMessageSlot+0x1d8>
/casa/workspace/Chronos-RISCV6/FreeRTOS/Debug/../FreeRTOS/packet.c:47 (discriminator 3)
            TaskList[currTask].MessagePipe[i].msgID = (TaskList[currTask].MessagePipe[i].msgID & 0x000000FF);
800055e8:	800237b7          	lui	a5,0x80023
800055ec:	fec42703          	lw	a4,-20(s0)
800055f0:	fe442603          	lw	a2,-28(s0)
800055f4:	65878693          	addi	a3,a5,1624 # 80023658 <__stack_top+0xfffdc6c8>
800055f8:	00070793          	mv	a5,a4
800055fc:	00379793          	slli	a5,a5,0x3
80005600:	00e787b3          	add	a5,a5,a4
80005604:	00679793          	slli	a5,a5,0x6
80005608:	00001737          	lui	a4,0x1
8000560c:	98470713          	addi	a4,a4,-1660 # 984 <HEAP_SIZE-0xf67c>
80005610:	02e60733          	mul	a4,a2,a4
80005614:	00e787b3          	add	a5,a5,a4
80005618:	00f687b3          	add	a5,a3,a5
8000561c:	0347a783          	lw	a5,52(a5)
80005620:	0ff7f693          	andi	a3,a5,255
80005624:	800237b7          	lui	a5,0x80023
80005628:	fec42703          	lw	a4,-20(s0)
8000562c:	fe442583          	lw	a1,-28(s0)
80005630:	65878613          	addi	a2,a5,1624 # 80023658 <__stack_top+0xfffdc6c8>
80005634:	00070793          	mv	a5,a4
80005638:	00379793          	slli	a5,a5,0x3
8000563c:	00e787b3          	add	a5,a5,a4
80005640:	00679793          	slli	a5,a5,0x6
80005644:	00001737          	lui	a4,0x1
80005648:	98470713          	addi	a4,a4,-1660 # 984 <HEAP_SIZE-0xf67c>
8000564c:	02e58733          	mul	a4,a1,a4
80005650:	00e787b3          	add	a5,a5,a4
80005654:	00f607b3          	add	a5,a2,a5
80005658:	02d7aa23          	sw	a3,52(a5)
/casa/workspace/Chronos-RISCV6/FreeRTOS/Debug/../FreeRTOS/packet.c:46 (discriminator 3)
        for( i = 0; i < PIPE_SIZE; i++ ){
8000565c:	fec42783          	lw	a5,-20(s0)
80005660:	00178793          	addi	a5,a5,1
80005664:	fef42623          	sw	a5,-20(s0)
/casa/workspace/Chronos-RISCV6/FreeRTOS/Debug/../FreeRTOS/packet.c:46 (discriminator 1)
80005668:	fec42703          	lw	a4,-20(s0)
8000566c:	00300793          	li	a5,3
80005670:	f6e7dce3          	ble	a4,a5,800055e8 <API_GetMessageSlot+0x158>
/casa/workspace/Chronos-RISCV6/FreeRTOS/Debug/../FreeRTOS/packet.c:50
        }
    }
    vTaskExitCritical();
80005674:	a01fd0ef          	jal	ra,80003074 <vTaskExitCritical>
/casa/workspace/Chronos-RISCV6/FreeRTOS/Debug/../FreeRTOS/packet.c:51
    return sel;
80005678:	fe842783          	lw	a5,-24(s0)
/casa/workspace/Chronos-RISCV6/FreeRTOS/Debug/../FreeRTOS/packet.c:52
}
8000567c:	00078513          	mv	a0,a5
80005680:	01c12083          	lw	ra,28(sp)
80005684:	01812403          	lw	s0,24(sp)
80005688:	02010113          	addi	sp,sp,32
8000568c:	00008067          	ret

80005690 <API_GetServiceSlot>:
API_GetServiceSlot():
/casa/workspace/Chronos-RISCV6/FreeRTOS/Debug/../FreeRTOS/packet.c:56

////////////////////////////////////////////////////////////
// Returns a free Service slot
unsigned int API_GetServiceSlot(){
80005690:	fe010113          	addi	sp,sp,-32
80005694:	00112e23          	sw	ra,28(sp)
80005698:	00812c23          	sw	s0,24(sp)
8000569c:	02010413          	addi	s0,sp,32
/casa/workspace/Chronos-RISCV6/FreeRTOS/Debug/../FreeRTOS/packet.c:58
    int i;
    vTaskEnterCritical();
800056a0:	999fd0ef          	jal	ra,80003038 <vTaskEnterCritical>
/casa/workspace/Chronos-RISCV6/FreeRTOS/Debug/../FreeRTOS/packet.c:59
    for( i = 0; i < PIPE_SIZE; i++ ){
800056a4:	fe042623          	sw	zero,-20(s0)
800056a8:	0700006f          	j	80005718 <API_GetServiceSlot+0x88>
/casa/workspace/Chronos-RISCV6/FreeRTOS/Debug/../FreeRTOS/packet.c:60
        if (ServicePipe[i].status == PIPE_FREE){
800056ac:	800226b7          	lui	a3,0x80022
800056b0:	fec42703          	lw	a4,-20(s0)
800056b4:	00070793          	mv	a5,a4
800056b8:	00479793          	slli	a5,a5,0x4
800056bc:	40e787b3          	sub	a5,a5,a4
800056c0:	00279793          	slli	a5,a5,0x2
800056c4:	79c68713          	addi	a4,a3,1948 # 8002279c <__stack_top+0xfffdb80c>
800056c8:	00e787b3          	add	a5,a5,a4
800056cc:	0007a703          	lw	a4,0(a5)
800056d0:	fff00793          	li	a5,-1
800056d4:	02f71c63          	bne	a4,a5,8000570c <API_GetServiceSlot+0x7c>
/casa/workspace/Chronos-RISCV6/FreeRTOS/Debug/../FreeRTOS/packet.c:61
            ServicePipe[i].status = PIPE_OCCUPIED;
800056d8:	800226b7          	lui	a3,0x80022
800056dc:	fec42703          	lw	a4,-20(s0)
800056e0:	00070793          	mv	a5,a4
800056e4:	00479793          	slli	a5,a5,0x4
800056e8:	40e787b3          	sub	a5,a5,a4
800056ec:	00279793          	slli	a5,a5,0x2
800056f0:	79c68713          	addi	a4,a3,1948 # 8002279c <__stack_top+0xfffdb80c>
800056f4:	00e787b3          	add	a5,a5,a4
800056f8:	00100713          	li	a4,1
800056fc:	00e7a023          	sw	a4,0(a5)
/casa/workspace/Chronos-RISCV6/FreeRTOS/Debug/../FreeRTOS/packet.c:62
            vTaskExitCritical();
80005700:	975fd0ef          	jal	ra,80003074 <vTaskExitCritical>
/casa/workspace/Chronos-RISCV6/FreeRTOS/Debug/../FreeRTOS/packet.c:63
            return i;
80005704:	fec42783          	lw	a5,-20(s0)
80005708:	0280006f          	j	80005730 <API_GetServiceSlot+0xa0>
/casa/workspace/Chronos-RISCV6/FreeRTOS/Debug/../FreeRTOS/packet.c:59 (discriminator 2)
    for( i = 0; i < PIPE_SIZE; i++ ){
8000570c:	fec42783          	lw	a5,-20(s0)
80005710:	00178793          	addi	a5,a5,1
80005714:	fef42623          	sw	a5,-20(s0)
/casa/workspace/Chronos-RISCV6/FreeRTOS/Debug/../FreeRTOS/packet.c:59 (discriminator 1)
80005718:	fec42703          	lw	a4,-20(s0)
8000571c:	00300793          	li	a5,3
80005720:	f8e7d6e3          	ble	a4,a5,800056ac <API_GetServiceSlot+0x1c>
/casa/workspace/Chronos-RISCV6/FreeRTOS/Debug/../FreeRTOS/packet.c:66
        }
    }
    vTaskExitCritical();
80005724:	951fd0ef          	jal	ra,80003074 <vTaskExitCritical>
/casa/workspace/Chronos-RISCV6/FreeRTOS/Debug/../FreeRTOS/packet.c:67
    return PIPE_FULL;
80005728:	fdfe07b7          	lui	a5,0xfdfe0
8000572c:	dfd78793          	addi	a5,a5,-515 # fdfdfdfd <__stack_top+0x7df98e6d>
/casa/workspace/Chronos-RISCV6/FreeRTOS/Debug/../FreeRTOS/packet.c:68
}
80005730:	00078513          	mv	a0,a5
80005734:	01c12083          	lw	ra,28(sp)
80005738:	01812403          	lw	s0,24(sp)
8000573c:	02010113          	addi	sp,sp,32
80005740:	00008067          	ret

80005744 <API_ClearPipeSlot>:
API_ClearPipeSlot():
/casa/workspace/Chronos-RISCV6/FreeRTOS/Debug/../FreeRTOS/packet.c:72

////////////////////////////////////////////////////////////
// Clear one PipeSlot after send it
void API_ClearPipeSlot(unsigned int typeSlot){
80005744:	fd010113          	addi	sp,sp,-48
80005748:	02812623          	sw	s0,44(sp)
8000574c:	03010413          	addi	s0,sp,48
80005750:	fca42e23          	sw	a0,-36(s0)
/casa/workspace/Chronos-RISCV6/FreeRTOS/Debug/../FreeRTOS/packet.c:73
    unsigned int type =   typeSlot & 0xFFFF0000;
80005754:	fdc42703          	lw	a4,-36(s0)
80005758:	ffff07b7          	lui	a5,0xffff0
8000575c:	00f777b3          	and	a5,a4,a5
80005760:	fef42623          	sw	a5,-20(s0)
/casa/workspace/Chronos-RISCV6/FreeRTOS/Debug/../FreeRTOS/packet.c:74
    unsigned int taskID = (typeSlot & 0x0000FF00) >> 8;
80005764:	fdc42783          	lw	a5,-36(s0)
80005768:	0087d793          	srli	a5,a5,0x8
8000576c:	0ff7f793          	andi	a5,a5,255
80005770:	fef42423          	sw	a5,-24(s0)
/casa/workspace/Chronos-RISCV6/FreeRTOS/Debug/../FreeRTOS/packet.c:75
    unsigned int slot =   typeSlot & 0x000000FF;
80005774:	fdc42783          	lw	a5,-36(s0)
80005778:	0ff7f793          	andi	a5,a5,255
8000577c:	fef42223          	sw	a5,-28(s0)
/casa/workspace/Chronos-RISCV6/FreeRTOS/Debug/../FreeRTOS/packet.c:77
    
    if (type == SERVICE){
80005780:	fec42703          	lw	a4,-20(s0)
80005784:	101007b7          	lui	a5,0x10100
80005788:	04f71c63          	bne	a4,a5,800057e0 <API_ClearPipeSlot+0x9c>
/casa/workspace/Chronos-RISCV6/FreeRTOS/Debug/../FreeRTOS/packet.c:78
        ServicePipe[slot].status = PIPE_FREE;
8000578c:	800226b7          	lui	a3,0x80022
80005790:	fe442703          	lw	a4,-28(s0)
80005794:	00070793          	mv	a5,a4
80005798:	00479793          	slli	a5,a5,0x4
8000579c:	40e787b3          	sub	a5,a5,a4
800057a0:	00279793          	slli	a5,a5,0x2
800057a4:	79c68713          	addi	a4,a3,1948 # 8002279c <__stack_top+0xfffdb80c>
800057a8:	00e787b3          	add	a5,a5,a4
800057ac:	fff00713          	li	a4,-1
800057b0:	00e7a023          	sw	a4,0(a5) # 10100000 <RAM_SIZE+0x10080000>
/casa/workspace/Chronos-RISCV6/FreeRTOS/Debug/../FreeRTOS/packet.c:79
        ServicePipe[slot].holder = PIPE_FREE;
800057b4:	800227b7          	lui	a5,0x80022
800057b8:	fe442703          	lw	a4,-28(s0)
800057bc:	79c78693          	addi	a3,a5,1948 # 8002279c <__stack_top+0xfffdb80c>
800057c0:	00070793          	mv	a5,a4
800057c4:	00479793          	slli	a5,a5,0x4
800057c8:	40e787b3          	sub	a5,a5,a4
800057cc:	00279793          	slli	a5,a5,0x2
800057d0:	00f687b3          	add	a5,a3,a5
800057d4:	fff00713          	li	a4,-1
800057d8:	00e7a223          	sw	a4,4(a5)
/casa/workspace/Chronos-RISCV6/FreeRTOS/Debug/../FreeRTOS/packet.c:89
    } else { // type == MESSAGE
        //printsv("cleaning message pipe slot: ", slot);
        TaskList[taskID].MessagePipe[slot].status = PIPE_FREE;
        //TaskList[taskID].MessagePipe[slot].holder = PIPE_FREE;
    }
    return;
800057dc:	0740006f          	j	80005850 <API_ClearPipeSlot+0x10c>
/casa/workspace/Chronos-RISCV6/FreeRTOS/Debug/../FreeRTOS/packet.c:80
    } else if (type == THERMAL){
800057e0:	fec42703          	lw	a4,-20(s0)
800057e4:	404007b7          	lui	a5,0x40400
800057e8:	00f71663          	bne	a4,a5,800057f4 <API_ClearPipeSlot+0xb0>
/casa/workspace/Chronos-RISCV6/FreeRTOS/Debug/../FreeRTOS/packet.c:81
        thermalPacket_pending = FALSE;
800057ec:	9601a223          	sw	zero,-1692(gp) # 80009694 <thermalPacket_pending>
/casa/workspace/Chronos-RISCV6/FreeRTOS/Debug/../FreeRTOS/packet.c:89
    return;
800057f0:	0600006f          	j	80005850 <API_ClearPipeSlot+0x10c>
/casa/workspace/Chronos-RISCV6/FreeRTOS/Debug/../FreeRTOS/packet.c:82
    } else if (type == SYS_MESSAGE){
800057f4:	fec42703          	lw	a4,-20(s0)
800057f8:	505007b7          	lui	a5,0x50500
800057fc:	00f71a63          	bne	a4,a5,80005810 <API_ClearPipeSlot+0xcc>
/casa/workspace/Chronos-RISCV6/FreeRTOS/Debug/../FreeRTOS/packet.c:83
        ServiceMessage.status = PIPE_FREE;
80005800:	800237b7          	lui	a5,0x80023
80005804:	fff00713          	li	a4,-1
80005808:	88e7aa23          	sw	a4,-1900(a5) # 80022894 <__stack_top+0xfffdb904>
/casa/workspace/Chronos-RISCV6/FreeRTOS/Debug/../FreeRTOS/packet.c:89
    return;
8000580c:	0440006f          	j	80005850 <API_ClearPipeSlot+0x10c>
/casa/workspace/Chronos-RISCV6/FreeRTOS/Debug/../FreeRTOS/packet.c:86
        TaskList[taskID].MessagePipe[slot].status = PIPE_FREE;
80005810:	800236b7          	lui	a3,0x80023
80005814:	fe442703          	lw	a4,-28(s0)
80005818:	fe842603          	lw	a2,-24(s0)
8000581c:	00070793          	mv	a5,a4
80005820:	00379793          	slli	a5,a5,0x3
80005824:	00e787b3          	add	a5,a5,a4
80005828:	00679793          	slli	a5,a5,0x6
8000582c:	00001737          	lui	a4,0x1
80005830:	98470713          	addi	a4,a4,-1660 # 984 <HEAP_SIZE-0xf67c>
80005834:	02e60733          	mul	a4,a2,a4
80005838:	00e78733          	add	a4,a5,a4
8000583c:	65868793          	addi	a5,a3,1624 # 80023658 <__stack_top+0xfffdc6c8>
80005840:	00f707b3          	add	a5,a4,a5
80005844:	fff00713          	li	a4,-1
80005848:	02e7a823          	sw	a4,48(a5)
/casa/workspace/Chronos-RISCV6/FreeRTOS/Debug/../FreeRTOS/packet.c:89
    return;
8000584c:	00000013          	nop
/casa/workspace/Chronos-RISCV6/FreeRTOS/Debug/../FreeRTOS/packet.c:90
}
80005850:	02c12403          	lw	s0,44(sp)
80005854:	03010113          	addi	sp,sp,48
80005858:	00008067          	ret

8000585c <API_checkPipe>:
API_checkPipe():
/casa/workspace/Chronos-RISCV6/FreeRTOS/Debug/../FreeRTOS/packet.c:92

unsigned int API_checkPipe(unsigned int taskSlot){
8000585c:	fd010113          	addi	sp,sp,-48
80005860:	02112623          	sw	ra,44(sp)
80005864:	02812423          	sw	s0,40(sp)
80005868:	03010413          	addi	s0,sp,48
8000586c:	fca42e23          	sw	a0,-36(s0)
/casa/workspace/Chronos-RISCV6/FreeRTOS/Debug/../FreeRTOS/packet.c:94
    unsigned int i;
    printsv("Checking the PIPE of taskSlot: ", taskSlot);
80005870:	fdc42783          	lw	a5,-36(s0)
80005874:	00078593          	mv	a1,a5
80005878:	800097b7          	lui	a5,0x80009
8000587c:	da478513          	addi	a0,a5,-604 # 80008da4 <__stack_top+0xfffc1e14>
80005880:	4a5000ef          	jal	ra,80006524 <printsv>
/casa/workspace/Chronos-RISCV6/FreeRTOS/Debug/../FreeRTOS/packet.c:95
    for(i = 0; i < PIPE_SIZE; i++){
80005884:	fe042623          	sw	zero,-20(s0)
80005888:	0c00006f          	j	80005948 <API_checkPipe+0xec>
/casa/workspace/Chronos-RISCV6/FreeRTOS/Debug/../FreeRTOS/packet.c:96
        printsv("i: ", i);
8000588c:	fec42783          	lw	a5,-20(s0)
80005890:	00078593          	mv	a1,a5
80005894:	800097b7          	lui	a5,0x80009
80005898:	dc478513          	addi	a0,a5,-572 # 80008dc4 <__stack_top+0xfffc1e34>
8000589c:	489000ef          	jal	ra,80006524 <printsv>
/casa/workspace/Chronos-RISCV6/FreeRTOS/Debug/../FreeRTOS/packet.c:97
        printsv("status: ", TaskList[taskSlot].MessagePipe[i].status);
800058a0:	800236b7          	lui	a3,0x80023
800058a4:	fec42703          	lw	a4,-20(s0)
800058a8:	fdc42603          	lw	a2,-36(s0)
800058ac:	00070793          	mv	a5,a4
800058b0:	00379793          	slli	a5,a5,0x3
800058b4:	00e787b3          	add	a5,a5,a4
800058b8:	00679793          	slli	a5,a5,0x6
800058bc:	00001737          	lui	a4,0x1
800058c0:	98470713          	addi	a4,a4,-1660 # 984 <HEAP_SIZE-0xf67c>
800058c4:	02e60733          	mul	a4,a2,a4
800058c8:	00e78733          	add	a4,a5,a4
800058cc:	65868793          	addi	a5,a3,1624 # 80023658 <__stack_top+0xfffdc6c8>
800058d0:	00f707b3          	add	a5,a4,a5
800058d4:	0307a783          	lw	a5,48(a5)
800058d8:	00078593          	mv	a1,a5
800058dc:	800097b7          	lui	a5,0x80009
800058e0:	dc878513          	addi	a0,a5,-568 # 80008dc8 <__stack_top+0xfffc1e38>
800058e4:	441000ef          	jal	ra,80006524 <printsv>
/casa/workspace/Chronos-RISCV6/FreeRTOS/Debug/../FreeRTOS/packet.c:99
        //printsv("holder: ", TaskList[taskSlot].MessagePipe[i].holder);
        prints("---\n");
800058e8:	800097b7          	lui	a5,0x80009
800058ec:	dd478513          	addi	a0,a5,-556 # 80008dd4 <__stack_top+0xfffc1e44>
800058f0:	389000ef          	jal	ra,80006478 <prints>
/casa/workspace/Chronos-RISCV6/FreeRTOS/Debug/../FreeRTOS/packet.c:100
        if(TaskList[taskSlot].MessagePipe[i].status == PIPE_OCCUPIED){
800058f4:	800236b7          	lui	a3,0x80023
800058f8:	fec42703          	lw	a4,-20(s0)
800058fc:	fdc42603          	lw	a2,-36(s0)
80005900:	00070793          	mv	a5,a4
80005904:	00379793          	slli	a5,a5,0x3
80005908:	00e787b3          	add	a5,a5,a4
8000590c:	00679793          	slli	a5,a5,0x6
80005910:	00001737          	lui	a4,0x1
80005914:	98470713          	addi	a4,a4,-1660 # 984 <HEAP_SIZE-0xf67c>
80005918:	02e60733          	mul	a4,a2,a4
8000591c:	00e78733          	add	a4,a5,a4
80005920:	65868793          	addi	a5,a3,1624 # 80023658 <__stack_top+0xfffdc6c8>
80005924:	00f707b3          	add	a5,a4,a5
80005928:	0307a703          	lw	a4,48(a5)
8000592c:	00100793          	li	a5,1
80005930:	00f71663          	bne	a4,a5,8000593c <API_checkPipe+0xe0>
/casa/workspace/Chronos-RISCV6/FreeRTOS/Debug/../FreeRTOS/packet.c:102
            //if(MessagePipe[i].holder == taskSlot){
                return 1;
80005934:	00100793          	li	a5,1
80005938:	0200006f          	j	80005958 <API_checkPipe+0xfc>
/casa/workspace/Chronos-RISCV6/FreeRTOS/Debug/../FreeRTOS/packet.c:95 (discriminator 2)
    for(i = 0; i < PIPE_SIZE; i++){
8000593c:	fec42783          	lw	a5,-20(s0)
80005940:	00178793          	addi	a5,a5,1
80005944:	fef42623          	sw	a5,-20(s0)
/casa/workspace/Chronos-RISCV6/FreeRTOS/Debug/../FreeRTOS/packet.c:95 (discriminator 1)
80005948:	fec42703          	lw	a4,-20(s0)
8000594c:	00300793          	li	a5,3
80005950:	f2e7fee3          	bleu	a4,a5,8000588c <API_checkPipe+0x30>
/casa/workspace/Chronos-RISCV6/FreeRTOS/Debug/../FreeRTOS/packet.c:106
            //}
        }
    }
    return 0;
80005954:	00000793          	li	a5,0
/casa/workspace/Chronos-RISCV6/FreeRTOS/Debug/../FreeRTOS/packet.c:107
}
80005958:	00078513          	mv	a0,a5
8000595c:	02c12083          	lw	ra,44(sp)
80005960:	02812403          	lw	s0,40(sp)
80005964:	03010113          	addi	sp,sp,48
80005968:	00008067          	ret

8000596c <API_setFreqIdle>:
API_setFreqIdle():
/casa/workspace/Chronos-RISCV6/FreeRTOS/Debug/../FreeRTOS/dvfs.c:3
#include "dvfs.h"

void API_setFreqIdle(){
8000596c:	ff010113          	addi	sp,sp,-16
80005970:	00812623          	sw	s0,12(sp)
80005974:	01010413          	addi	s0,sp,16
/casa/workspace/Chronos-RISCV6/FreeRTOS/Debug/../FreeRTOS/dvfs.c:4
    selectedFrequencyScale = FREQ_IDLE;
80005978:	800277b7          	lui	a5,0x80027
8000597c:	06400713          	li	a4,100
80005980:	f6e7a823          	sw	a4,-144(a5) # 80026f70 <__stack_top+0xfffdffe0>
/casa/workspace/Chronos-RISCV6/FreeRTOS/Debug/../FreeRTOS/dvfs.c:5
    return;
80005984:	00000013          	nop
/casa/workspace/Chronos-RISCV6/FreeRTOS/Debug/../FreeRTOS/dvfs.c:6
}
80005988:	00c12403          	lw	s0,12(sp)
8000598c:	01010113          	addi	sp,sp,16
80005990:	00008067          	ret

80005994 <API_setFreqScale>:
API_setFreqScale():
/casa/workspace/Chronos-RISCV6/FreeRTOS/Debug/../FreeRTOS/dvfs.c:8

void API_setFreqScale(unsigned int scale){
80005994:	fe010113          	addi	sp,sp,-32
80005998:	00812e23          	sw	s0,28(sp)
8000599c:	02010413          	addi	s0,sp,32
800059a0:	fea42623          	sw	a0,-20(s0)
/casa/workspace/Chronos-RISCV6/FreeRTOS/Debug/../FreeRTOS/dvfs.c:9
    selectedFrequencyScale = scale;
800059a4:	800277b7          	lui	a5,0x80027
800059a8:	fec42703          	lw	a4,-20(s0)
800059ac:	f6e7a823          	sw	a4,-144(a5) # 80026f70 <__stack_top+0xfffdffe0>
/casa/workspace/Chronos-RISCV6/FreeRTOS/Debug/../FreeRTOS/dvfs.c:10
    return;
800059b0:	00000013          	nop
/casa/workspace/Chronos-RISCV6/FreeRTOS/Debug/../FreeRTOS/dvfs.c:11
}
800059b4:	01c12403          	lw	s0,28(sp)
800059b8:	02010113          	addi	sp,sp,32
800059bc:	00008067          	ret

800059c0 <API_getFreqScale>:
API_getFreqScale():
/casa/workspace/Chronos-RISCV6/FreeRTOS/Debug/../FreeRTOS/dvfs.c:13

unsigned int API_getFreqScale(){
800059c0:	ff010113          	addi	sp,sp,-16
800059c4:	00112623          	sw	ra,12(sp)
800059c8:	00812423          	sw	s0,8(sp)
800059cc:	01010413          	addi	s0,sp,16
/casa/workspace/Chronos-RISCV6/FreeRTOS/Debug/../FreeRTOS/dvfs.c:14
    return HW_get_32bit_reg(FREQUENCY_SCALE);
800059d0:	900007b7          	lui	a5,0x90000
800059d4:	ff878513          	addi	a0,a5,-8 # 8ffffff8 <__stack_top+0xffb9068>
800059d8:	d84fb0ef          	jal	ra,80000f5c <HW_get_32bit_reg>
800059dc:	00050793          	mv	a5,a0
/casa/workspace/Chronos-RISCV6/FreeRTOS/Debug/../FreeRTOS/dvfs.c:15
}
800059e0:	00078513          	mv	a0,a5
800059e4:	00c12083          	lw	ra,12(sp)
800059e8:	00812403          	lw	s0,8(sp)
800059ec:	01010113          	addi	sp,sp,16
800059f0:	00008067          	ret

800059f4 <API_applyFreqScale>:
API_applyFreqScale():
/casa/workspace/Chronos-RISCV6/FreeRTOS/Debug/../FreeRTOS/dvfs.c:17

void API_applyFreqScale(){
800059f4:	ff010113          	addi	sp,sp,-16
800059f8:	00112623          	sw	ra,12(sp)
800059fc:	00812423          	sw	s0,8(sp)
80005a00:	01010413          	addi	s0,sp,16
/casa/workspace/Chronos-RISCV6/FreeRTOS/Debug/../FreeRTOS/dvfs.c:18
    if(selectedFrequencyScale != API_getFreqScale()){
80005a04:	fbdff0ef          	jal	ra,800059c0 <API_getFreqScale>
80005a08:	00050713          	mv	a4,a0
80005a0c:	800277b7          	lui	a5,0x80027
80005a10:	f707a783          	lw	a5,-144(a5) # 80026f70 <__stack_top+0xfffdffe0>
80005a14:	02f70063          	beq	a4,a5,80005a34 <API_applyFreqScale+0x40>
/casa/workspace/Chronos-RISCV6/FreeRTOS/Debug/../FreeRTOS/dvfs.c:19
        HW_set_32bit_reg(FREQUENCY_SCALE, selectedFrequencyScale);
80005a18:	800277b7          	lui	a5,0x80027
80005a1c:	f707a783          	lw	a5,-144(a5) # 80026f70 <__stack_top+0xfffdffe0>
80005a20:	00078593          	mv	a1,a5
80005a24:	900007b7          	lui	a5,0x90000
80005a28:	ff878513          	addi	a0,a5,-8 # 8ffffff8 <__stack_top+0xffb9068>
80005a2c:	d28fb0ef          	jal	ra,80000f54 <HW_set_32bit_reg>
/casa/workspace/Chronos-RISCV6/FreeRTOS/Debug/../FreeRTOS/dvfs.c:21
    }
    return;
80005a30:	00000013          	nop
80005a34:	00000013          	nop
/casa/workspace/Chronos-RISCV6/FreeRTOS/Debug/../FreeRTOS/dvfs.c:22
}
80005a38:	00c12083          	lw	ra,12(sp)
80005a3c:	00812403          	lw	s0,8(sp)
80005a40:	01010113          	addi	sp,sp,16
80005a44:	00008067          	ret

80005a48 <API_freqStepUp>:
API_freqStepUp():
/casa/workspace/Chronos-RISCV6/FreeRTOS/Debug/../FreeRTOS/dvfs.c:24

void API_freqStepUp(){
80005a48:	ff010113          	addi	sp,sp,-16
80005a4c:	00812623          	sw	s0,12(sp)
80005a50:	01010413          	addi	s0,sp,16
/casa/workspace/Chronos-RISCV6/FreeRTOS/Debug/../FreeRTOS/dvfs.c:25
    if(selectedFrequencyScale == FREQ_IDLE){
80005a54:	800277b7          	lui	a5,0x80027
80005a58:	f707a703          	lw	a4,-144(a5) # 80026f70 <__stack_top+0xfffdffe0>
80005a5c:	06400793          	li	a5,100
80005a60:	00f71a63          	bne	a4,a5,80005a74 <API_freqStepUp+0x2c>
/casa/workspace/Chronos-RISCV6/FreeRTOS/Debug/../FreeRTOS/dvfs.c:26
        selectedFrequencyScale = FREQ_150MHz;
80005a64:	800277b7          	lui	a5,0x80027
80005a68:	09600713          	li	a4,150
80005a6c:	f6e7a823          	sw	a4,-144(a5) # 80026f70 <__stack_top+0xfffdffe0>
/casa/workspace/Chronos-RISCV6/FreeRTOS/Debug/../FreeRTOS/dvfs.c:60
        }
        else{
            selectedFrequencyScale = FREQ_IDLE;
        }
    }
    return;
80005a70:	1340006f          	j	80005ba4 <API_freqStepUp+0x15c>
/casa/workspace/Chronos-RISCV6/FreeRTOS/Debug/../FreeRTOS/dvfs.c:28
    else if(selectedFrequencyScale==FREQ_150MHz){
80005a74:	800277b7          	lui	a5,0x80027
80005a78:	f707a703          	lw	a4,-144(a5) # 80026f70 <__stack_top+0xfffdffe0>
80005a7c:	09600793          	li	a5,150
80005a80:	00f71a63          	bne	a4,a5,80005a94 <API_freqStepUp+0x4c>
/casa/workspace/Chronos-RISCV6/FreeRTOS/Debug/../FreeRTOS/dvfs.c:29
        selectedFrequencyScale = FREQ_250MHz;
80005a84:	800277b7          	lui	a5,0x80027
80005a88:	0fa00713          	li	a4,250
80005a8c:	f6e7a823          	sw	a4,-144(a5) # 80026f70 <__stack_top+0xfffdffe0>
/casa/workspace/Chronos-RISCV6/FreeRTOS/Debug/../FreeRTOS/dvfs.c:60
    return;
80005a90:	1140006f          	j	80005ba4 <API_freqStepUp+0x15c>
/casa/workspace/Chronos-RISCV6/FreeRTOS/Debug/../FreeRTOS/dvfs.c:31
    else if(selectedFrequencyScale==FREQ_250MHz){
80005a94:	800277b7          	lui	a5,0x80027
80005a98:	f707a703          	lw	a4,-144(a5) # 80026f70 <__stack_top+0xfffdffe0>
80005a9c:	0fa00793          	li	a5,250
80005aa0:	00f71a63          	bne	a4,a5,80005ab4 <API_freqStepUp+0x6c>
/casa/workspace/Chronos-RISCV6/FreeRTOS/Debug/../FreeRTOS/dvfs.c:32
        selectedFrequencyScale = FREQ_500MHz;
80005aa4:	800277b7          	lui	a5,0x80027
80005aa8:	1f400713          	li	a4,500
80005aac:	f6e7a823          	sw	a4,-144(a5) # 80026f70 <__stack_top+0xfffdffe0>
/casa/workspace/Chronos-RISCV6/FreeRTOS/Debug/../FreeRTOS/dvfs.c:60
    return;
80005ab0:	0f40006f          	j	80005ba4 <API_freqStepUp+0x15c>
/casa/workspace/Chronos-RISCV6/FreeRTOS/Debug/../FreeRTOS/dvfs.c:34
    else if(selectedFrequencyScale==FREQ_500MHz){
80005ab4:	800277b7          	lui	a5,0x80027
80005ab8:	f707a703          	lw	a4,-144(a5) # 80026f70 <__stack_top+0xfffdffe0>
80005abc:	1f400793          	li	a5,500
80005ac0:	00f71a63          	bne	a4,a5,80005ad4 <API_freqStepUp+0x8c>
/casa/workspace/Chronos-RISCV6/FreeRTOS/Debug/../FreeRTOS/dvfs.c:35
        selectedFrequencyScale = FREQ_1GHz;
80005ac4:	800277b7          	lui	a5,0x80027
80005ac8:	3e800713          	li	a4,1000
80005acc:	f6e7a823          	sw	a4,-144(a5) # 80026f70 <__stack_top+0xfffdffe0>
/casa/workspace/Chronos-RISCV6/FreeRTOS/Debug/../FreeRTOS/dvfs.c:60
    return;
80005ad0:	0d40006f          	j	80005ba4 <API_freqStepUp+0x15c>
/casa/workspace/Chronos-RISCV6/FreeRTOS/Debug/../FreeRTOS/dvfs.c:37
    else if(selectedFrequencyScale==FREQ_1GHz){
80005ad4:	800277b7          	lui	a5,0x80027
80005ad8:	f707a703          	lw	a4,-144(a5) # 80026f70 <__stack_top+0xfffdffe0>
80005adc:	3e800793          	li	a5,1000
80005ae0:	00f71a63          	bne	a4,a5,80005af4 <API_freqStepUp+0xac>
/casa/workspace/Chronos-RISCV6/FreeRTOS/Debug/../FreeRTOS/dvfs.c:38
        selectedFrequencyScale = FREQ_1GHz;
80005ae4:	800277b7          	lui	a5,0x80027
80005ae8:	3e800713          	li	a4,1000
80005aec:	f6e7a823          	sw	a4,-144(a5) # 80026f70 <__stack_top+0xfffdffe0>
/casa/workspace/Chronos-RISCV6/FreeRTOS/Debug/../FreeRTOS/dvfs.c:60
    return;
80005af0:	0b40006f          	j	80005ba4 <API_freqStepUp+0x15c>
/casa/workspace/Chronos-RISCV6/FreeRTOS/Debug/../FreeRTOS/dvfs.c:41
        if(selectedFrequencyScale > FREQ_1GHz){
80005af4:	800277b7          	lui	a5,0x80027
80005af8:	f707a703          	lw	a4,-144(a5) # 80026f70 <__stack_top+0xfffdffe0>
80005afc:	3e800793          	li	a5,1000
80005b00:	00e7fa63          	bleu	a4,a5,80005b14 <API_freqStepUp+0xcc>
/casa/workspace/Chronos-RISCV6/FreeRTOS/Debug/../FreeRTOS/dvfs.c:42
            selectedFrequencyScale = FREQ_1GHz;
80005b04:	800277b7          	lui	a5,0x80027
80005b08:	3e800713          	li	a4,1000
80005b0c:	f6e7a823          	sw	a4,-144(a5) # 80026f70 <__stack_top+0xfffdffe0>
/casa/workspace/Chronos-RISCV6/FreeRTOS/Debug/../FreeRTOS/dvfs.c:60
    return;
80005b10:	0940006f          	j	80005ba4 <API_freqStepUp+0x15c>
/casa/workspace/Chronos-RISCV6/FreeRTOS/Debug/../FreeRTOS/dvfs.c:44
        else if(selectedFrequencyScale > FREQ_500MHz){
80005b14:	800277b7          	lui	a5,0x80027
80005b18:	f707a703          	lw	a4,-144(a5) # 80026f70 <__stack_top+0xfffdffe0>
80005b1c:	1f400793          	li	a5,500
80005b20:	00e7fa63          	bleu	a4,a5,80005b34 <API_freqStepUp+0xec>
/casa/workspace/Chronos-RISCV6/FreeRTOS/Debug/../FreeRTOS/dvfs.c:45
            selectedFrequencyScale = FREQ_1GHz;
80005b24:	800277b7          	lui	a5,0x80027
80005b28:	3e800713          	li	a4,1000
80005b2c:	f6e7a823          	sw	a4,-144(a5) # 80026f70 <__stack_top+0xfffdffe0>
/casa/workspace/Chronos-RISCV6/FreeRTOS/Debug/../FreeRTOS/dvfs.c:60
    return;
80005b30:	0740006f          	j	80005ba4 <API_freqStepUp+0x15c>
/casa/workspace/Chronos-RISCV6/FreeRTOS/Debug/../FreeRTOS/dvfs.c:47
        else if(selectedFrequencyScale > FREQ_250MHz){
80005b34:	800277b7          	lui	a5,0x80027
80005b38:	f707a703          	lw	a4,-144(a5) # 80026f70 <__stack_top+0xfffdffe0>
80005b3c:	0fa00793          	li	a5,250
80005b40:	00e7fa63          	bleu	a4,a5,80005b54 <API_freqStepUp+0x10c>
/casa/workspace/Chronos-RISCV6/FreeRTOS/Debug/../FreeRTOS/dvfs.c:48
            selectedFrequencyScale = FREQ_500MHz;
80005b44:	800277b7          	lui	a5,0x80027
80005b48:	1f400713          	li	a4,500
80005b4c:	f6e7a823          	sw	a4,-144(a5) # 80026f70 <__stack_top+0xfffdffe0>
/casa/workspace/Chronos-RISCV6/FreeRTOS/Debug/../FreeRTOS/dvfs.c:60
    return;
80005b50:	0540006f          	j	80005ba4 <API_freqStepUp+0x15c>
/casa/workspace/Chronos-RISCV6/FreeRTOS/Debug/../FreeRTOS/dvfs.c:50
        else if(selectedFrequencyScale > FREQ_150MHz){
80005b54:	800277b7          	lui	a5,0x80027
80005b58:	f707a703          	lw	a4,-144(a5) # 80026f70 <__stack_top+0xfffdffe0>
80005b5c:	09600793          	li	a5,150
80005b60:	00e7fa63          	bleu	a4,a5,80005b74 <API_freqStepUp+0x12c>
/casa/workspace/Chronos-RISCV6/FreeRTOS/Debug/../FreeRTOS/dvfs.c:51
            selectedFrequencyScale = FREQ_250MHz;
80005b64:	800277b7          	lui	a5,0x80027
80005b68:	0fa00713          	li	a4,250
80005b6c:	f6e7a823          	sw	a4,-144(a5) # 80026f70 <__stack_top+0xfffdffe0>
/casa/workspace/Chronos-RISCV6/FreeRTOS/Debug/../FreeRTOS/dvfs.c:60
    return;
80005b70:	0340006f          	j	80005ba4 <API_freqStepUp+0x15c>
/casa/workspace/Chronos-RISCV6/FreeRTOS/Debug/../FreeRTOS/dvfs.c:53
        else if(selectedFrequencyScale > FREQ_IDLE){
80005b74:	800277b7          	lui	a5,0x80027
80005b78:	f707a703          	lw	a4,-144(a5) # 80026f70 <__stack_top+0xfffdffe0>
80005b7c:	06400793          	li	a5,100
80005b80:	00e7fa63          	bleu	a4,a5,80005b94 <API_freqStepUp+0x14c>
/casa/workspace/Chronos-RISCV6/FreeRTOS/Debug/../FreeRTOS/dvfs.c:54
            selectedFrequencyScale = FREQ_150MHz;
80005b84:	800277b7          	lui	a5,0x80027
80005b88:	09600713          	li	a4,150
80005b8c:	f6e7a823          	sw	a4,-144(a5) # 80026f70 <__stack_top+0xfffdffe0>
/casa/workspace/Chronos-RISCV6/FreeRTOS/Debug/../FreeRTOS/dvfs.c:60
    return;
80005b90:	0140006f          	j	80005ba4 <API_freqStepUp+0x15c>
/casa/workspace/Chronos-RISCV6/FreeRTOS/Debug/../FreeRTOS/dvfs.c:57
            selectedFrequencyScale = FREQ_IDLE;
80005b94:	800277b7          	lui	a5,0x80027
80005b98:	06400713          	li	a4,100
80005b9c:	f6e7a823          	sw	a4,-144(a5) # 80026f70 <__stack_top+0xfffdffe0>
/casa/workspace/Chronos-RISCV6/FreeRTOS/Debug/../FreeRTOS/dvfs.c:60
    return;
80005ba0:	00000013          	nop
/casa/workspace/Chronos-RISCV6/FreeRTOS/Debug/../FreeRTOS/dvfs.c:61
}
80005ba4:	00c12403          	lw	s0,12(sp)
80005ba8:	01010113          	addi	sp,sp,16
80005bac:	00008067          	ret

80005bb0 <resetExecutedInstructions>:
resetExecutedInstructions():
/casa/workspace/Chronos-RISCV6/FreeRTOS/Debug/../FreeRTOS/thermal.c:12
    printsv("Stores:\t\t",      HW_get_32bit_reg(STORES_COUNT));
    printsv("Others:\t\t",      HW_get_32bit_reg(OTHERS_COUNT));
    prints("--------------------------\n");
}

void resetExecutedInstructions(){
80005bb0:	ff010113          	addi	sp,sp,-16
80005bb4:	00112623          	sw	ra,12(sp)
80005bb8:	00812423          	sw	s0,8(sp)
80005bbc:	01010413          	addi	s0,sp,16
/casa/workspace/Chronos-RISCV6/FreeRTOS/Debug/../FreeRTOS/thermal.c:13
    HW_set_32bit_reg(LOADS_COUNT, 0);
80005bc0:	00000593          	li	a1,0
80005bc4:	900007b7          	lui	a5,0x90000
80005bc8:	ff478513          	addi	a0,a5,-12 # 8ffffff4 <__stack_top+0xffb9064>
80005bcc:	b88fb0ef          	jal	ra,80000f54 <HW_set_32bit_reg>
/casa/workspace/Chronos-RISCV6/FreeRTOS/Debug/../FreeRTOS/thermal.c:14
    HW_set_32bit_reg(STORES_COUNT, 0);
80005bd0:	00000593          	li	a1,0
80005bd4:	900007b7          	lui	a5,0x90000
80005bd8:	ff078513          	addi	a0,a5,-16 # 8ffffff0 <__stack_top+0xffb9060>
80005bdc:	b78fb0ef          	jal	ra,80000f54 <HW_set_32bit_reg>
/casa/workspace/Chronos-RISCV6/FreeRTOS/Debug/../FreeRTOS/thermal.c:15
    HW_set_32bit_reg(OTHERS_COUNT, 0);
80005be0:	00000593          	li	a1,0
80005be4:	900007b7          	lui	a5,0x90000
80005be8:	fec78513          	addi	a0,a5,-20 # 8fffffec <__stack_top+0xffb905c>
80005bec:	b68fb0ef          	jal	ra,80000f54 <HW_set_32bit_reg>
/casa/workspace/Chronos-RISCV6/FreeRTOS/Debug/../FreeRTOS/thermal.c:16
    return;
80005bf0:	00000013          	nop
/casa/workspace/Chronos-RISCV6/FreeRTOS/Debug/../FreeRTOS/thermal.c:17
}
80005bf4:	00c12083          	lw	ra,12(sp)
80005bf8:	00812403          	lw	s0,8(sp)
80005bfc:	01010113          	addi	sp,sp,16
80005c00:	00008067          	ret

80005c04 <getNumberOfPorts>:
getNumberOfPorts():
/casa/workspace/Chronos-RISCV6/FreeRTOS/Debug/../FreeRTOS/thermal.c:21

///////////////////////////////////////////////////////////////////
/* Get the number of ports in the router based in his address*/
unsigned int getNumberOfPorts(unsigned int address) {
80005c04:	fd010113          	addi	sp,sp,-48
80005c08:	02112623          	sw	ra,44(sp)
80005c0c:	02812423          	sw	s0,40(sp)
80005c10:	03010413          	addi	s0,sp,48
80005c14:	fca42e23          	sw	a0,-36(s0)
/casa/workspace/Chronos-RISCV6/FreeRTOS/Debug/../FreeRTOS/thermal.c:23
    unsigned int x, y;
    x = getXpos(address);
80005c18:	fdc42503          	lw	a0,-36(s0)
80005c1c:	1b1000ef          	jal	ra,800065cc <getXpos>
80005c20:	fea42623          	sw	a0,-20(s0)
/casa/workspace/Chronos-RISCV6/FreeRTOS/Debug/../FreeRTOS/thermal.c:24
    y = getYpos(address);
80005c24:	fdc42503          	lw	a0,-36(s0)
80005c28:	1d1000ef          	jal	ra,800065f8 <getYpos>
80005c2c:	fea42423          	sw	a0,-24(s0)
/casa/workspace/Chronos-RISCV6/FreeRTOS/Debug/../FreeRTOS/thermal.c:26

    if ((x == 0 || x == (DIM_X - 1)) && (y == 0 || y == (DIM_Y - 1))) {
80005c30:	fec42783          	lw	a5,-20(s0)
80005c34:	00078863          	beqz	a5,80005c44 <getNumberOfPorts+0x40>
/casa/workspace/Chronos-RISCV6/FreeRTOS/Debug/../FreeRTOS/thermal.c:26 (discriminator 2)
80005c38:	fec42703          	lw	a4,-20(s0)
80005c3c:	00300793          	li	a5,3
80005c40:	02f71063          	bne	a4,a5,80005c60 <getNumberOfPorts+0x5c>
/casa/workspace/Chronos-RISCV6/FreeRTOS/Debug/../FreeRTOS/thermal.c:26 (discriminator 3)
80005c44:	fe842783          	lw	a5,-24(s0)
80005c48:	00078863          	beqz	a5,80005c58 <getNumberOfPorts+0x54>
/casa/workspace/Chronos-RISCV6/FreeRTOS/Debug/../FreeRTOS/thermal.c:26 (discriminator 4)
80005c4c:	fe842703          	lw	a4,-24(s0)
80005c50:	00300793          	li	a5,3
80005c54:	00f71663          	bne	a4,a5,80005c60 <getNumberOfPorts+0x5c>
/casa/workspace/Chronos-RISCV6/FreeRTOS/Debug/../FreeRTOS/thermal.c:27
        return 3;
80005c58:	00300793          	li	a5,3
80005c5c:	0380006f          	j	80005c94 <getNumberOfPorts+0x90>
/casa/workspace/Chronos-RISCV6/FreeRTOS/Debug/../FreeRTOS/thermal.c:29
    } else {
        if (x == 0 || x == (DIM_X - 1) || y == 0 || y == (DIM_Y - 1)) {
80005c60:	fec42783          	lw	a5,-20(s0)
80005c64:	02078263          	beqz	a5,80005c88 <getNumberOfPorts+0x84>
/casa/workspace/Chronos-RISCV6/FreeRTOS/Debug/../FreeRTOS/thermal.c:29 (discriminator 1)
80005c68:	fec42703          	lw	a4,-20(s0)
80005c6c:	00300793          	li	a5,3
80005c70:	00f70c63          	beq	a4,a5,80005c88 <getNumberOfPorts+0x84>
/casa/workspace/Chronos-RISCV6/FreeRTOS/Debug/../FreeRTOS/thermal.c:29 (discriminator 2)
80005c74:	fe842783          	lw	a5,-24(s0)
80005c78:	00078863          	beqz	a5,80005c88 <getNumberOfPorts+0x84>
/casa/workspace/Chronos-RISCV6/FreeRTOS/Debug/../FreeRTOS/thermal.c:29 (discriminator 3)
80005c7c:	fe842703          	lw	a4,-24(s0)
80005c80:	00300793          	li	a5,3
80005c84:	00f71663          	bne	a4,a5,80005c90 <getNumberOfPorts+0x8c>
/casa/workspace/Chronos-RISCV6/FreeRTOS/Debug/../FreeRTOS/thermal.c:30
            return 4;
80005c88:	00400793          	li	a5,4
80005c8c:	0080006f          	j	80005c94 <getNumberOfPorts+0x90>
/casa/workspace/Chronos-RISCV6/FreeRTOS/Debug/../FreeRTOS/thermal.c:32
        } else {
            return 5;
80005c90:	00500793          	li	a5,5
/casa/workspace/Chronos-RISCV6/FreeRTOS/Debug/../FreeRTOS/thermal.c:35
        }
    }
}
80005c94:	00078513          	mv	a0,a5
80005c98:	02c12083          	lw	ra,44(sp)
80005c9c:	02812403          	lw	s0,40(sp)
80005ca0:	03010113          	addi	sp,sp,48
80005ca4:	00008067          	ret

80005ca8 <estimateNoCActivity>:
estimateNoCActivity():
/casa/workspace/Chronos-RISCV6/FreeRTOS/Debug/../FreeRTOS/thermal.c:39

///////////////////////////////////////////////////////////////////
/* Activity estimation based in the amount of flits and packets crossing the router */
unsigned int estimateNoCActivity() {
80005ca8:	fe010113          	addi	sp,sp,-32
80005cac:	00112e23          	sw	ra,28(sp)
80005cb0:	00812c23          	sw	s0,24(sp)
80005cb4:	02010413          	addi	s0,sp,32
/casa/workspace/Chronos-RISCV6/FreeRTOS/Debug/../FreeRTOS/thermal.c:42
    unsigned int totalPackets, totalFlits;
    // calculate the difference between the last interruption and the current one
    totalPackets =  HW_get_32bit_reg(EAST_PACKETS) - eastPackets_last;
80005cb8:	900007b7          	lui	a5,0x90000
80005cbc:	fc478513          	addi	a0,a5,-60 # 8fffffc4 <__stack_top+0xffb9034>
80005cc0:	a9cfb0ef          	jal	ra,80000f5c <HW_get_32bit_reg>
80005cc4:	00050713          	mv	a4,a0
80005cc8:	96c1a783          	lw	a5,-1684(gp) # 8000969c <eastPackets_last>
80005ccc:	40f707b3          	sub	a5,a4,a5
80005cd0:	fef42623          	sw	a5,-20(s0)
/casa/workspace/Chronos-RISCV6/FreeRTOS/Debug/../FreeRTOS/thermal.c:43
    totalPackets += HW_get_32bit_reg(WEST_PACKETS) - westPackets_last;
80005cd4:	900007b7          	lui	a5,0x90000
80005cd8:	fbc78513          	addi	a0,a5,-68 # 8fffffbc <__stack_top+0xffb902c>
80005cdc:	a80fb0ef          	jal	ra,80000f5c <HW_get_32bit_reg>
80005ce0:	00050713          	mv	a4,a0
80005ce4:	9741a783          	lw	a5,-1676(gp) # 800096a4 <westPackets_last>
80005ce8:	40f707b3          	sub	a5,a4,a5
80005cec:	fec42703          	lw	a4,-20(s0)
80005cf0:	00f707b3          	add	a5,a4,a5
80005cf4:	fef42623          	sw	a5,-20(s0)
/casa/workspace/Chronos-RISCV6/FreeRTOS/Debug/../FreeRTOS/thermal.c:44
    totalPackets += HW_get_32bit_reg(SOUTH_PACKETS) - southPackets_last;
80005cf8:	900007b7          	lui	a5,0x90000
80005cfc:	fac78513          	addi	a0,a5,-84 # 8fffffac <__stack_top+0xffb901c>
80005d00:	a5cfb0ef          	jal	ra,80000f5c <HW_get_32bit_reg>
80005d04:	00050713          	mv	a4,a0
80005d08:	9841a783          	lw	a5,-1660(gp) # 800096b4 <southPackets_last>
80005d0c:	40f707b3          	sub	a5,a4,a5
80005d10:	fec42703          	lw	a4,-20(s0)
80005d14:	00f707b3          	add	a5,a4,a5
80005d18:	fef42623          	sw	a5,-20(s0)
/casa/workspace/Chronos-RISCV6/FreeRTOS/Debug/../FreeRTOS/thermal.c:45
    totalPackets += HW_get_32bit_reg(LOCAL_PACKETS) - localPackets_last;
80005d1c:	900007b7          	lui	a5,0x90000
80005d20:	fa478513          	addi	a0,a5,-92 # 8fffffa4 <__stack_top+0xffb9014>
80005d24:	a38fb0ef          	jal	ra,80000f5c <HW_get_32bit_reg>
80005d28:	00050713          	mv	a4,a0
80005d2c:	98c1a783          	lw	a5,-1652(gp) # 800096bc <localPackets_last>
80005d30:	40f707b3          	sub	a5,a4,a5
80005d34:	fec42703          	lw	a4,-20(s0)
80005d38:	00f707b3          	add	a5,a4,a5
80005d3c:	fef42623          	sw	a5,-20(s0)
/casa/workspace/Chronos-RISCV6/FreeRTOS/Debug/../FreeRTOS/thermal.c:46
    totalPackets += HW_get_32bit_reg(NORTH_PACKETS) - northPackets_last;
80005d40:	900007b7          	lui	a5,0x90000
80005d44:	fb478513          	addi	a0,a5,-76 # 8fffffb4 <__stack_top+0xffb9024>
80005d48:	a14fb0ef          	jal	ra,80000f5c <HW_get_32bit_reg>
80005d4c:	00050713          	mv	a4,a0
80005d50:	97c1a783          	lw	a5,-1668(gp) # 800096ac <northPackets_last>
80005d54:	40f707b3          	sub	a5,a4,a5
80005d58:	fec42703          	lw	a4,-20(s0)
80005d5c:	00f707b3          	add	a5,a4,a5
80005d60:	fef42623          	sw	a5,-20(s0)
/casa/workspace/Chronos-RISCV6/FreeRTOS/Debug/../FreeRTOS/thermal.c:49
    //totalPackets = eastPackets_dif + westPackets_dif + southPackets_dif + localPackets_dif + northPackets_dif;

    eastPackets_last  = HW_get_32bit_reg(EAST_PACKETS);
80005d64:	900007b7          	lui	a5,0x90000
80005d68:	fc478513          	addi	a0,a5,-60 # 8fffffc4 <__stack_top+0xffb9034>
80005d6c:	9f0fb0ef          	jal	ra,80000f5c <HW_get_32bit_reg>
80005d70:	00050713          	mv	a4,a0
80005d74:	96e1a623          	sw	a4,-1684(gp) # 8000969c <eastPackets_last>
/casa/workspace/Chronos-RISCV6/FreeRTOS/Debug/../FreeRTOS/thermal.c:50
    westPackets_last  = HW_get_32bit_reg(WEST_PACKETS);
80005d78:	900007b7          	lui	a5,0x90000
80005d7c:	fbc78513          	addi	a0,a5,-68 # 8fffffbc <__stack_top+0xffb902c>
80005d80:	9dcfb0ef          	jal	ra,80000f5c <HW_get_32bit_reg>
80005d84:	00050713          	mv	a4,a0
80005d88:	96e1aa23          	sw	a4,-1676(gp) # 800096a4 <westPackets_last>
/casa/workspace/Chronos-RISCV6/FreeRTOS/Debug/../FreeRTOS/thermal.c:51
    southPackets_last = HW_get_32bit_reg(SOUTH_PACKETS);
80005d8c:	900007b7          	lui	a5,0x90000
80005d90:	fac78513          	addi	a0,a5,-84 # 8fffffac <__stack_top+0xffb901c>
80005d94:	9c8fb0ef          	jal	ra,80000f5c <HW_get_32bit_reg>
80005d98:	00050713          	mv	a4,a0
80005d9c:	98e1a223          	sw	a4,-1660(gp) # 800096b4 <southPackets_last>
/casa/workspace/Chronos-RISCV6/FreeRTOS/Debug/../FreeRTOS/thermal.c:52
    localPackets_last = HW_get_32bit_reg(LOCAL_PACKETS);
80005da0:	900007b7          	lui	a5,0x90000
80005da4:	fa478513          	addi	a0,a5,-92 # 8fffffa4 <__stack_top+0xffb9014>
80005da8:	9b4fb0ef          	jal	ra,80000f5c <HW_get_32bit_reg>
80005dac:	00050713          	mv	a4,a0
80005db0:	98e1a623          	sw	a4,-1652(gp) # 800096bc <localPackets_last>
/casa/workspace/Chronos-RISCV6/FreeRTOS/Debug/../FreeRTOS/thermal.c:53
    northPackets_last = HW_get_32bit_reg(NORTH_PACKETS);
80005db4:	900007b7          	lui	a5,0x90000
80005db8:	fb478513          	addi	a0,a5,-76 # 8fffffb4 <__stack_top+0xffb9024>
80005dbc:	9a0fb0ef          	jal	ra,80000f5c <HW_get_32bit_reg>
80005dc0:	00050713          	mv	a4,a0
80005dc4:	96e1ae23          	sw	a4,-1668(gp) # 800096ac <northPackets_last>
/casa/workspace/Chronos-RISCV6/FreeRTOS/Debug/../FreeRTOS/thermal.c:56

    // alculate the difference between the last interruption and the current one
    totalFlits =  HW_get_32bit_reg(EAST_FLITS) - eastFlits_last;
80005dc8:	900007b7          	lui	a5,0x90000
80005dcc:	fc878513          	addi	a0,a5,-56 # 8fffffc8 <__stack_top+0xffb9038>
80005dd0:	98cfb0ef          	jal	ra,80000f5c <HW_get_32bit_reg>
80005dd4:	00050713          	mv	a4,a0
80005dd8:	9681a783          	lw	a5,-1688(gp) # 80009698 <eastFlits_last>
80005ddc:	40f707b3          	sub	a5,a4,a5
80005de0:	fef42423          	sw	a5,-24(s0)
/casa/workspace/Chronos-RISCV6/FreeRTOS/Debug/../FreeRTOS/thermal.c:57
    totalFlits += HW_get_32bit_reg(WEST_FLITS) - westFlits_last;
80005de4:	900007b7          	lui	a5,0x90000
80005de8:	fc078513          	addi	a0,a5,-64 # 8fffffc0 <__stack_top+0xffb9030>
80005dec:	970fb0ef          	jal	ra,80000f5c <HW_get_32bit_reg>
80005df0:	00050713          	mv	a4,a0
80005df4:	9701a783          	lw	a5,-1680(gp) # 800096a0 <westFlits_last>
80005df8:	40f707b3          	sub	a5,a4,a5
80005dfc:	fe842703          	lw	a4,-24(s0)
80005e00:	00f707b3          	add	a5,a4,a5
80005e04:	fef42423          	sw	a5,-24(s0)
/casa/workspace/Chronos-RISCV6/FreeRTOS/Debug/../FreeRTOS/thermal.c:58
    totalFlits += HW_get_32bit_reg(SOUTH_FLITS) - southFlits_last;
80005e08:	900007b7          	lui	a5,0x90000
80005e0c:	fb078513          	addi	a0,a5,-80 # 8fffffb0 <__stack_top+0xffb9020>
80005e10:	94cfb0ef          	jal	ra,80000f5c <HW_get_32bit_reg>
80005e14:	00050713          	mv	a4,a0
80005e18:	9801a783          	lw	a5,-1664(gp) # 800096b0 <southFlits_last>
80005e1c:	40f707b3          	sub	a5,a4,a5
80005e20:	fe842703          	lw	a4,-24(s0)
80005e24:	00f707b3          	add	a5,a4,a5
80005e28:	fef42423          	sw	a5,-24(s0)
/casa/workspace/Chronos-RISCV6/FreeRTOS/Debug/../FreeRTOS/thermal.c:59
    memFlits = HW_get_32bit_reg(LOCAL_FLITS) - localFlits_last;
80005e2c:	900007b7          	lui	a5,0x90000
80005e30:	fa878513          	addi	a0,a5,-88 # 8fffffa8 <__stack_top+0xffb9018>
80005e34:	928fb0ef          	jal	ra,80000f5c <HW_get_32bit_reg>
80005e38:	00050713          	mv	a4,a0
80005e3c:	9881a783          	lw	a5,-1656(gp) # 800096b8 <localFlits_last>
80005e40:	40f70733          	sub	a4,a4,a5
80005e44:	800277b7          	lui	a5,0x80027
80005e48:	f6e7aa23          	sw	a4,-140(a5) # 80026f74 <__stack_top+0xfffdffe4>
/casa/workspace/Chronos-RISCV6/FreeRTOS/Debug/../FreeRTOS/thermal.c:60
    totalFlits += memFlits;
80005e4c:	800277b7          	lui	a5,0x80027
80005e50:	f747a783          	lw	a5,-140(a5) # 80026f74 <__stack_top+0xfffdffe4>
80005e54:	fe842703          	lw	a4,-24(s0)
80005e58:	00f707b3          	add	a5,a4,a5
80005e5c:	fef42423          	sw	a5,-24(s0)
/casa/workspace/Chronos-RISCV6/FreeRTOS/Debug/../FreeRTOS/thermal.c:62
    //totalFlits += HW_get_32bit_reg(LOCAL_FLITS) - localFlits_last;
    totalFlits += HW_get_32bit_reg(NORTH_FLITS) - northFlits_last;
80005e60:	900007b7          	lui	a5,0x90000
80005e64:	fb878513          	addi	a0,a5,-72 # 8fffffb8 <__stack_top+0xffb9028>
80005e68:	8f4fb0ef          	jal	ra,80000f5c <HW_get_32bit_reg>
80005e6c:	00050713          	mv	a4,a0
80005e70:	9781a783          	lw	a5,-1672(gp) # 800096a8 <northFlits_last>
80005e74:	40f707b3          	sub	a5,a4,a5
80005e78:	fe842703          	lw	a4,-24(s0)
80005e7c:	00f707b3          	add	a5,a4,a5
80005e80:	fef42423          	sw	a5,-24(s0)
/casa/workspace/Chronos-RISCV6/FreeRTOS/Debug/../FreeRTOS/thermal.c:65
    //totalFlits = eastFlits_dif + westFlits_dif + southFlits_dif + localFlits_dif + northFlits_dif;

    eastFlits_last  = HW_get_32bit_reg(EAST_FLITS);
80005e84:	900007b7          	lui	a5,0x90000
80005e88:	fc878513          	addi	a0,a5,-56 # 8fffffc8 <__stack_top+0xffb9038>
80005e8c:	8d0fb0ef          	jal	ra,80000f5c <HW_get_32bit_reg>
80005e90:	00050713          	mv	a4,a0
80005e94:	96e1a423          	sw	a4,-1688(gp) # 80009698 <eastFlits_last>
/casa/workspace/Chronos-RISCV6/FreeRTOS/Debug/../FreeRTOS/thermal.c:66
    westFlits_last  = HW_get_32bit_reg(WEST_FLITS);
80005e98:	900007b7          	lui	a5,0x90000
80005e9c:	fc078513          	addi	a0,a5,-64 # 8fffffc0 <__stack_top+0xffb9030>
80005ea0:	8bcfb0ef          	jal	ra,80000f5c <HW_get_32bit_reg>
80005ea4:	00050713          	mv	a4,a0
80005ea8:	96e1a823          	sw	a4,-1680(gp) # 800096a0 <westFlits_last>
/casa/workspace/Chronos-RISCV6/FreeRTOS/Debug/../FreeRTOS/thermal.c:67
    southFlits_last = HW_get_32bit_reg(SOUTH_FLITS);
80005eac:	900007b7          	lui	a5,0x90000
80005eb0:	fb078513          	addi	a0,a5,-80 # 8fffffb0 <__stack_top+0xffb9020>
80005eb4:	8a8fb0ef          	jal	ra,80000f5c <HW_get_32bit_reg>
80005eb8:	00050713          	mv	a4,a0
80005ebc:	98e1a023          	sw	a4,-1664(gp) # 800096b0 <southFlits_last>
/casa/workspace/Chronos-RISCV6/FreeRTOS/Debug/../FreeRTOS/thermal.c:68
    localFlits_last = HW_get_32bit_reg(LOCAL_FLITS);
80005ec0:	900007b7          	lui	a5,0x90000
80005ec4:	fa878513          	addi	a0,a5,-88 # 8fffffa8 <__stack_top+0xffb9018>
80005ec8:	894fb0ef          	jal	ra,80000f5c <HW_get_32bit_reg>
80005ecc:	00050713          	mv	a4,a0
80005ed0:	98e1a423          	sw	a4,-1656(gp) # 800096b8 <localFlits_last>
/casa/workspace/Chronos-RISCV6/FreeRTOS/Debug/../FreeRTOS/thermal.c:69
    northFlits_last = HW_get_32bit_reg(NORTH_FLITS);
80005ed4:	900007b7          	lui	a5,0x90000
80005ed8:	fb878513          	addi	a0,a5,-72 # 8fffffb8 <__stack_top+0xffb9028>
80005edc:	880fb0ef          	jal	ra,80000f5c <HW_get_32bit_reg>
80005ee0:	00050713          	mv	a4,a0
80005ee4:	96e1ac23          	sw	a4,-1672(gp) # 800096a8 <northFlits_last>
/casa/workspace/Chronos-RISCV6/FreeRTOS/Debug/../FreeRTOS/thermal.c:71

    return ((totalPackets * 5) + totalFlits);
80005ee8:	fec42703          	lw	a4,-20(s0)
80005eec:	00070793          	mv	a5,a4
80005ef0:	00279793          	slli	a5,a5,0x2
80005ef4:	00e78733          	add	a4,a5,a4
80005ef8:	fe842783          	lw	a5,-24(s0)
80005efc:	00f707b3          	add	a5,a4,a5
/casa/workspace/Chronos-RISCV6/FreeRTOS/Debug/../FreeRTOS/thermal.c:72
}
80005f00:	00078513          	mv	a0,a5
80005f04:	01c12083          	lw	ra,28(sp)
80005f08:	01812403          	lw	s0,24(sp)
80005f0c:	02010113          	addi	sp,sp,32
80005f10:	00008067          	ret

80005f14 <powerEstimation>:
powerEstimation():
/casa/workspace/Chronos-RISCV6/FreeRTOS/Debug/../FreeRTOS/thermal.c:74

void powerEstimation(){
80005f14:	fa010113          	addi	sp,sp,-96
80005f18:	04112e23          	sw	ra,92(sp)
80005f1c:	04812c23          	sw	s0,88(sp)
80005f20:	06010413          	addi	s0,sp,96
/casa/workspace/Chronos-RISCV6/FreeRTOS/Debug/../FreeRTOS/thermal.c:76
    //unsigned int actualTime, deltaTime;
    unsigned int Voltage = 2;
80005f24:	00200793          	li	a5,2
80005f28:	fef42423          	sw	a5,-24(s0)
/casa/workspace/Chronos-RISCV6/FreeRTOS/Debug/../FreeRTOS/thermal.c:82
    unsigned int loads, stores, others, total;
    unsigned int dynamicEnergy_PE, dynamicEnergy_MEM, dynamicEnergy_Router;
    unsigned int leakEnergy_PE;
    unsigned int totalEnergy, nPorts, nocActivity, energyActive, energyIdle, nocIdle, idleNoCEnergy, activeNoCEnergy;
    
    if(!thermalPacket_pending){
80005f2c:	9641a783          	lw	a5,-1692(gp) # 80009694 <thermalPacket_pending>
80005f30:	34079863          	bnez	a5,80006280 <powerEstimation+0x36c>
/casa/workspace/Chronos-RISCV6/FreeRTOS/Debug/../FreeRTOS/thermal.c:83
        thermalPacket_pending = TRUE;
80005f34:	00100713          	li	a4,1
80005f38:	96e1a223          	sw	a4,-1692(gp) # 80009694 <thermalPacket_pending>
/casa/workspace/Chronos-RISCV6/FreeRTOS/Debug/../FreeRTOS/thermal.c:86

        // gets the number of ports
        nPorts = getNumberOfPorts(ProcessorAddr);
80005f3c:	800277b7          	lui	a5,0x80027
80005f40:	f807a783          	lw	a5,-128(a5) # 80026f80 <__stack_top+0xfffdfff0>
80005f44:	00078513          	mv	a0,a5
80005f48:	cbdff0ef          	jal	ra,80005c04 <getNumberOfPorts>
80005f4c:	fea42223          	sw	a0,-28(s0)
/casa/workspace/Chronos-RISCV6/FreeRTOS/Debug/../FreeRTOS/thermal.c:89
         
        // estimate the noc activity
        nocActivity = estimateNoCActivity();
80005f50:	d59ff0ef          	jal	ra,80005ca8 <estimateNoCActivity>
80005f54:	fea42023          	sw	a0,-32(s0)
/casa/workspace/Chronos-RISCV6/FreeRTOS/Debug/../FreeRTOS/thermal.c:90
        if(nocActivity < 1000000)
80005f58:	fe042703          	lw	a4,-32(s0)
80005f5c:	000f47b7          	lui	a5,0xf4
80005f60:	23f78793          	addi	a5,a5,575 # f423f <RAM_SIZE+0x7423f>
80005f64:	00e7ee63          	bltu	a5,a4,80005f80 <powerEstimation+0x6c>
/casa/workspace/Chronos-RISCV6/FreeRTOS/Debug/../FreeRTOS/thermal.c:91
            nocIdle = 1000000 - nocActivity;
80005f68:	000f47b7          	lui	a5,0xf4
80005f6c:	24078713          	addi	a4,a5,576 # f4240 <RAM_SIZE+0x74240>
80005f70:	fe042783          	lw	a5,-32(s0)
80005f74:	40f707b3          	sub	a5,a4,a5
80005f78:	fef42623          	sw	a5,-20(s0)
80005f7c:	0080006f          	j	80005f84 <powerEstimation+0x70>
/casa/workspace/Chronos-RISCV6/FreeRTOS/Debug/../FreeRTOS/thermal.c:93
        else
            nocIdle = 0;
80005f80:	fe042623          	sw	zero,-20(s0)
/casa/workspace/Chronos-RISCV6/FreeRTOS/Debug/../FreeRTOS/thermal.c:96

        // calculates the energy
        energyActive = ((nPorts * powerAvgBufferActive[Voltage]) + powerSwitchControlActive[Voltage]);
80005f84:	800097b7          	lui	a5,0x80009
80005f88:	fe842703          	lw	a4,-24(s0)
80005f8c:	00271713          	slli	a4,a4,0x2
80005f90:	df478793          	addi	a5,a5,-524 # 80008df4 <__stack_top+0xfffc1e64>
80005f94:	00f707b3          	add	a5,a4,a5
80005f98:	0007a783          	lw	a5,0(a5)
80005f9c:	00078713          	mv	a4,a5
80005fa0:	fe442783          	lw	a5,-28(s0)
80005fa4:	02f707b3          	mul	a5,a4,a5
80005fa8:	80009737          	lui	a4,0x80009
80005fac:	fe842683          	lw	a3,-24(s0)
80005fb0:	00269693          	slli	a3,a3,0x2
80005fb4:	e0070713          	addi	a4,a4,-512 # 80008e00 <__stack_top+0xfffc1e70>
80005fb8:	00e68733          	add	a4,a3,a4
80005fbc:	00072703          	lw	a4,0(a4)
80005fc0:	00e787b3          	add	a5,a5,a4
80005fc4:	fcf42e23          	sw	a5,-36(s0)
/casa/workspace/Chronos-RISCV6/FreeRTOS/Debug/../FreeRTOS/thermal.c:97
        energyIdle   = ((nPorts * powerAvgBufferIdle[Voltage]) + powerSwitchControlIdle[Voltage]);
80005fc8:	800097b7          	lui	a5,0x80009
80005fcc:	fe842703          	lw	a4,-24(s0)
80005fd0:	00271713          	slli	a4,a4,0x2
80005fd4:	ddc78793          	addi	a5,a5,-548 # 80008ddc <__stack_top+0xfffc1e4c>
80005fd8:	00f707b3          	add	a5,a4,a5
80005fdc:	0007a783          	lw	a5,0(a5)
80005fe0:	00078713          	mv	a4,a5
80005fe4:	fe442783          	lw	a5,-28(s0)
80005fe8:	02f707b3          	mul	a5,a4,a5
80005fec:	80009737          	lui	a4,0x80009
80005ff0:	fe842683          	lw	a3,-24(s0)
80005ff4:	00269693          	slli	a3,a3,0x2
80005ff8:	de870713          	addi	a4,a4,-536 # 80008de8 <__stack_top+0xfffc1e58>
80005ffc:	00e68733          	add	a4,a3,a4
80006000:	00072703          	lw	a4,0(a4)
80006004:	00e787b3          	add	a5,a5,a4
80006008:	fcf42c23          	sw	a5,-40(s0)
/casa/workspace/Chronos-RISCV6/FreeRTOS/Debug/../FreeRTOS/thermal.c:100

        // multiply by the period to get the power consumption
        idleNoCEnergy = nocIdle * energyIdle; // * DC_DC_CONVERTER_ENERGY_OVERHEAD / 10;
8000600c:	fec42703          	lw	a4,-20(s0)
80006010:	fd842783          	lw	a5,-40(s0)
80006014:	02f707b3          	mul	a5,a4,a5
80006018:	fcf42a23          	sw	a5,-44(s0)
/casa/workspace/Chronos-RISCV6/FreeRTOS/Debug/../FreeRTOS/thermal.c:101
        activeNoCEnergy = nocActivity * energyActive + (memFlits * (readEnergyMemory[Voltage] + writeEnergyMemory[Voltage]));  //* DC_DC_CONVERTER_ENERGY_OVERHEAD / 10;
8000601c:	fe042703          	lw	a4,-32(s0)
80006020:	fdc42783          	lw	a5,-36(s0)
80006024:	02f70733          	mul	a4,a4,a5
80006028:	800097b7          	lui	a5,0x80009
8000602c:	fe842683          	lw	a3,-24(s0)
80006030:	00269693          	slli	a3,a3,0x2
80006034:	e0c78793          	addi	a5,a5,-500 # 80008e0c <__stack_top+0xfffc1e7c>
80006038:	00f687b3          	add	a5,a3,a5
8000603c:	0007a683          	lw	a3,0(a5)
80006040:	800097b7          	lui	a5,0x80009
80006044:	fe842603          	lw	a2,-24(s0)
80006048:	00261613          	slli	a2,a2,0x2
8000604c:	e1878793          	addi	a5,a5,-488 # 80008e18 <__stack_top+0xfffc1e88>
80006050:	00f607b3          	add	a5,a2,a5
80006054:	0007a783          	lw	a5,0(a5)
80006058:	00f687b3          	add	a5,a3,a5
8000605c:	00078693          	mv	a3,a5
80006060:	800277b7          	lui	a5,0x80027
80006064:	f747a783          	lw	a5,-140(a5) # 80026f74 <__stack_top+0xfffdffe4>
80006068:	02f687b3          	mul	a5,a3,a5
8000606c:	00f707b3          	add	a5,a4,a5
80006070:	fcf42823          	sw	a5,-48(s0)
/casa/workspace/Chronos-RISCV6/FreeRTOS/Debug/../FreeRTOS/thermal.c:104

        // calculates the ROUTER dynamic energy
        dynamicEnergy_Router = (idleNoCEnergy + activeNoCEnergy) >> 6;
80006074:	fd442703          	lw	a4,-44(s0)
80006078:	fd042783          	lw	a5,-48(s0)
8000607c:	00f707b3          	add	a5,a4,a5
80006080:	0067d793          	srli	a5,a5,0x6
80006084:	fcf42623          	sw	a5,-52(s0)
/casa/workspace/Chronos-RISCV6/FreeRTOS/Debug/../FreeRTOS/thermal.c:105
        printsv("dynamicEnergy_Router >> ", dynamicEnergy_Router);
80006088:	fcc42783          	lw	a5,-52(s0)
8000608c:	00078593          	mv	a1,a5
80006090:	800097b7          	lui	a5,0x80009
80006094:	e7c78513          	addi	a0,a5,-388 # 80008e7c <__stack_top+0xfffc1eec>
80006098:	48c000ef          	jal	ra,80006524 <printsv>
/casa/workspace/Chronos-RISCV6/FreeRTOS/Debug/../FreeRTOS/thermal.c:108

        // reads the number of each type of instruction executed in the last window
        loads = HW_get_32bit_reg(LOADS_COUNT);
8000609c:	900007b7          	lui	a5,0x90000
800060a0:	ff478513          	addi	a0,a5,-12 # 8ffffff4 <__stack_top+0xffb9064>
800060a4:	eb9fa0ef          	jal	ra,80000f5c <HW_get_32bit_reg>
800060a8:	fca42423          	sw	a0,-56(s0)
/casa/workspace/Chronos-RISCV6/FreeRTOS/Debug/../FreeRTOS/thermal.c:109
        stores = HW_get_32bit_reg(STORES_COUNT);
800060ac:	900007b7          	lui	a5,0x90000
800060b0:	ff078513          	addi	a0,a5,-16 # 8ffffff0 <__stack_top+0xffb9060>
800060b4:	ea9fa0ef          	jal	ra,80000f5c <HW_get_32bit_reg>
800060b8:	fca42223          	sw	a0,-60(s0)
/casa/workspace/Chronos-RISCV6/FreeRTOS/Debug/../FreeRTOS/thermal.c:110
        others = HW_get_32bit_reg(OTHERS_COUNT);
800060bc:	900007b7          	lui	a5,0x90000
800060c0:	fec78513          	addi	a0,a5,-20 # 8fffffec <__stack_top+0xffb905c>
800060c4:	e99fa0ef          	jal	ra,80000f5c <HW_get_32bit_reg>
800060c8:	fca42023          	sw	a0,-64(s0)
/casa/workspace/Chronos-RISCV6/FreeRTOS/Debug/../FreeRTOS/thermal.c:111
        resetExecutedInstructions();
800060cc:	ae5ff0ef          	jal	ra,80005bb0 <resetExecutedInstructions>
/casa/workspace/Chronos-RISCV6/FreeRTOS/Debug/../FreeRTOS/thermal.c:114

        // number of instructions executed in the last window
        total = loads + stores + others; 
800060d0:	fc842703          	lw	a4,-56(s0)
800060d4:	fc442783          	lw	a5,-60(s0)
800060d8:	00f707b3          	add	a5,a4,a5
800060dc:	fc042703          	lw	a4,-64(s0)
800060e0:	00f707b3          	add	a5,a4,a5
800060e4:	faf42e23          	sw	a5,-68(s0)
/casa/workspace/Chronos-RISCV6/FreeRTOS/Debug/../FreeRTOS/thermal.c:115
        printsv("total instructions~~~> ", total);
800060e8:	fbc42783          	lw	a5,-68(s0)
800060ec:	00078593          	mv	a1,a5
800060f0:	800097b7          	lui	a5,0x80009
800060f4:	e9878513          	addi	a0,a5,-360 # 80008e98 <__stack_top+0xfffc1f08>
800060f8:	42c000ef          	jal	ra,80006524 <printsv>
/casa/workspace/Chronos-RISCV6/FreeRTOS/Debug/../FreeRTOS/thermal.c:118

        // calculates the PE dynamic energy
        dynamicEnergy_PE = ((arithDyn[Voltage] * others)) + ((loadStoreDyn[Voltage] * (loads + stores)));
800060fc:	800097b7          	lui	a5,0x80009
80006100:	fe842703          	lw	a4,-24(s0)
80006104:	00271713          	slli	a4,a4,0x2
80006108:	e2478793          	addi	a5,a5,-476 # 80008e24 <__stack_top+0xfffc1e94>
8000610c:	00f707b3          	add	a5,a4,a5
80006110:	0007a783          	lw	a5,0(a5)
80006114:	00078713          	mv	a4,a5
80006118:	fc042783          	lw	a5,-64(s0)
8000611c:	02f70733          	mul	a4,a4,a5
80006120:	800097b7          	lui	a5,0x80009
80006124:	fe842683          	lw	a3,-24(s0)
80006128:	00269693          	slli	a3,a3,0x2
8000612c:	e3078793          	addi	a5,a5,-464 # 80008e30 <__stack_top+0xfffc1ea0>
80006130:	00f687b3          	add	a5,a3,a5
80006134:	0007a783          	lw	a5,0(a5)
80006138:	00078613          	mv	a2,a5
8000613c:	fc842683          	lw	a3,-56(s0)
80006140:	fc442783          	lw	a5,-60(s0)
80006144:	00f687b3          	add	a5,a3,a5
80006148:	02f607b3          	mul	a5,a2,a5
8000614c:	00f707b3          	add	a5,a4,a5
80006150:	faf42c23          	sw	a5,-72(s0)
/casa/workspace/Chronos-RISCV6/FreeRTOS/Debug/../FreeRTOS/thermal.c:119
        dynamicEnergy_PE = dynamicEnergy_PE >> 6;
80006154:	fb842783          	lw	a5,-72(s0)
80006158:	0067d793          	srli	a5,a5,0x6
8000615c:	faf42c23          	sw	a5,-72(s0)
/casa/workspace/Chronos-RISCV6/FreeRTOS/Debug/../FreeRTOS/thermal.c:123
        //printsv("dynamicEnergy_PE >> 6: ", dynamicEnergy_PE);

        // calculates the PE leakage energy
        leakEnergy_PE = (unsigned int)((PE_LEAKAGE * 1000000) * 0.001) >> 6; // mW => pW * s => pJ
80006160:	69700793          	li	a5,1687
80006164:	faf42a23          	sw	a5,-76(s0)
/casa/workspace/Chronos-RISCV6/FreeRTOS/Debug/../FreeRTOS/thermal.c:126

        // calculates the MEM dynamic energy
        dynamicEnergy_MEM = (readEnergyMemory[Voltage] * loads) + (writeEnergyMemory[Voltage] * stores);
80006168:	800097b7          	lui	a5,0x80009
8000616c:	fe842703          	lw	a4,-24(s0)
80006170:	00271713          	slli	a4,a4,0x2
80006174:	e0c78793          	addi	a5,a5,-500 # 80008e0c <__stack_top+0xfffc1e7c>
80006178:	00f707b3          	add	a5,a4,a5
8000617c:	0007a783          	lw	a5,0(a5)
80006180:	00078713          	mv	a4,a5
80006184:	fc842783          	lw	a5,-56(s0)
80006188:	02f70733          	mul	a4,a4,a5
8000618c:	800097b7          	lui	a5,0x80009
80006190:	fe842683          	lw	a3,-24(s0)
80006194:	00269693          	slli	a3,a3,0x2
80006198:	e1878793          	addi	a5,a5,-488 # 80008e18 <__stack_top+0xfffc1e88>
8000619c:	00f687b3          	add	a5,a3,a5
800061a0:	0007a783          	lw	a5,0(a5)
800061a4:	00078693          	mv	a3,a5
800061a8:	fc442783          	lw	a5,-60(s0)
800061ac:	02f687b3          	mul	a5,a3,a5
800061b0:	00f707b3          	add	a5,a4,a5
800061b4:	faf42823          	sw	a5,-80(s0)
/casa/workspace/Chronos-RISCV6/FreeRTOS/Debug/../FreeRTOS/thermal.c:127
        dynamicEnergy_MEM = dynamicEnergy_MEM >> 6;
800061b8:	fb042783          	lw	a5,-80(s0)
800061bc:	0067d793          	srli	a5,a5,0x6
800061c0:	faf42823          	sw	a5,-80(s0)
/casa/workspace/Chronos-RISCV6/FreeRTOS/Debug/../FreeRTOS/thermal.c:131
        //printsv("dynamicEnergy_MEM >> 6: ", dynamicEnergy_MEM);

        // the amount of energy spent by this tile in the last window
        totalEnergy = (dynamicEnergy_MEM + dynamicEnergy_PE + dynamicEnergy_Router) + (leakEnergy_PE);
800061c4:	fb042703          	lw	a4,-80(s0)
800061c8:	fb842783          	lw	a5,-72(s0)
800061cc:	00f70733          	add	a4,a4,a5
800061d0:	fcc42783          	lw	a5,-52(s0)
800061d4:	00f707b3          	add	a5,a4,a5
800061d8:	fb442703          	lw	a4,-76(s0)
800061dc:	00f707b3          	add	a5,a4,a5
800061e0:	faf42623          	sw	a5,-84(s0)
/casa/workspace/Chronos-RISCV6/FreeRTOS/Debug/../FreeRTOS/thermal.c:132
        printsv("TotalEnergy: ", totalEnergy);
800061e4:	fac42783          	lw	a5,-84(s0)
800061e8:	00078593          	mv	a1,a5
800061ec:	800097b7          	lui	a5,0x80009
800061f0:	eb078513          	addi	a0,a5,-336 # 80008eb0 <__stack_top+0xfffc1f20>
800061f4:	330000ef          	jal	ra,80006524 <printsv>
/casa/workspace/Chronos-RISCV6/FreeRTOS/Debug/../FreeRTOS/thermal.c:135

        // Fill the ThermalPacket slot...
        ThermalPacket.header.header           = makeAddress(0, 0) | PERIPH_WEST;
800061f8:	00000593          	li	a1,0
800061fc:	00000513          	li	a0,0
80006200:	081000ef          	jal	ra,80006a80 <makeAddress>
80006204:	00050713          	mv	a4,a0
80006208:	000207b7          	lui	a5,0x20
8000620c:	00f76733          	or	a4,a4,a5
80006210:	800237b7          	lui	a5,0x80023
80006214:	b2c78793          	addi	a5,a5,-1236 # 80022b2c <__stack_top+0xfffdbb9c>
80006218:	00e7a423          	sw	a4,8(a5)
/casa/workspace/Chronos-RISCV6/FreeRTOS/Debug/../FreeRTOS/thermal.c:136
        ThermalPacket.header.payload_size     = PKT_SERVICE_SIZE;
8000621c:	800237b7          	lui	a5,0x80023
80006220:	b2c78793          	addi	a5,a5,-1236 # 80022b2c <__stack_top+0xfffdbb9c>
80006224:	00b00713          	li	a4,11
80006228:	00e7a623          	sw	a4,12(a5)
/casa/workspace/Chronos-RISCV6/FreeRTOS/Debug/../FreeRTOS/thermal.c:137
        ThermalPacket.header.service          = ENERGY_PACKET;
8000622c:	800237b7          	lui	a5,0x80023
80006230:	b2c78793          	addi	a5,a5,-1236 # 80022b2c <__stack_top+0xfffdbb9c>
80006234:	05000713          	li	a4,80
80006238:	00e7a823          	sw	a4,16(a5)
/casa/workspace/Chronos-RISCV6/FreeRTOS/Debug/../FreeRTOS/thermal.c:138
        ThermalPacket.header.source_addr      = ProcessorAddr;
8000623c:	800277b7          	lui	a5,0x80027
80006240:	f807a703          	lw	a4,-128(a5) # 80026f80 <__stack_top+0xfffdfff0>
80006244:	800237b7          	lui	a5,0x80023
80006248:	b2c78793          	addi	a5,a5,-1236 # 80022b2c <__stack_top+0xfffdbb9c>
8000624c:	00e7aa23          	sw	a4,20(a5)
/casa/workspace/Chronos-RISCV6/FreeRTOS/Debug/../FreeRTOS/thermal.c:139
        ThermalPacket.header.spent_energy     = totalEnergy;
80006250:	800237b7          	lui	a5,0x80023
80006254:	b2c78793          	addi	a5,a5,-1236 # 80022b2c <__stack_top+0xfffdbb9c>
80006258:	fac42703          	lw	a4,-84(s0)
8000625c:	00e7ac23          	sw	a4,24(a5)
/casa/workspace/Chronos-RISCV6/FreeRTOS/Debug/../FreeRTOS/thermal.c:140
        API_PushSendQueue(THERMAL, 0);
80006260:	00000593          	li	a1,0
80006264:	40400537          	lui	a0,0x40400
80006268:	059000ef          	jal	ra,80006ac0 <API_PushSendQueue>
/casa/workspace/Chronos-RISCV6/FreeRTOS/Debug/../FreeRTOS/thermal.c:141
        prints("EnergyPckt sent\n");
8000626c:	800097b7          	lui	a5,0x80009
80006270:	ec078513          	addi	a0,a5,-320 # 80008ec0 <__stack_top+0xfffc1f30>
80006274:	204000ef          	jal	ra,80006478 <prints>
/casa/workspace/Chronos-RISCV6/FreeRTOS/Debug/../FreeRTOS/thermal.c:144

        // change the PE frequency to the selected one
        API_applyFreqScale();
80006278:	f7cff0ef          	jal	ra,800059f4 <API_applyFreqScale>
/casa/workspace/Chronos-RISCV6/FreeRTOS/Debug/../FreeRTOS/thermal.c:146
    }
    return;
8000627c:	00000013          	nop
80006280:	00000013          	nop
/casa/workspace/Chronos-RISCV6/FreeRTOS/Debug/../FreeRTOS/thermal.c:147
}
80006284:	05c12083          	lw	ra,92(sp)
80006288:	05812403          	lw	s0,88(sp)
8000628c:	06010113          	addi	sp,sp,96
80006290:	00008067          	ret

80006294 <PLIC_EnableIRQ>:
PLIC_EnableIRQ():
/casa/workspace/Chronos-RISCV6/FreeRTOS/Debug/../riscv_hal/riscv_plic.h:154
{
80006294:	fd010113          	addi	sp,sp,-48
80006298:	02812623          	sw	s0,44(sp)
8000629c:	03010413          	addi	s0,sp,48
800062a0:	fca42e23          	sw	a0,-36(s0)
/casa/workspace/Chronos-RISCV6/FreeRTOS/Debug/../riscv_hal/riscv_plic.h:155
    unsigned long hart_id = read_csr(mhartid);
800062a4:	f14027f3          	csrr	a5,mhartid
800062a8:	fef42623          	sw	a5,-20(s0)
800062ac:	fec42783          	lw	a5,-20(s0)
800062b0:	fef42423          	sw	a5,-24(s0)
/casa/workspace/Chronos-RISCV6/FreeRTOS/Debug/../riscv_hal/riscv_plic.h:156
    uint32_t current = PLIC->TARGET_ENABLES[hart_id].ENABLES[IRQn / 32];
800062b4:	40000737          	lui	a4,0x40000
800062b8:	fdc42783          	lw	a5,-36(s0)
800062bc:	0057d793          	srli	a5,a5,0x5
800062c0:	fe842683          	lw	a3,-24(s0)
800062c4:	00569693          	slli	a3,a3,0x5
800062c8:	00f686b3          	add	a3,a3,a5
800062cc:	000017b7          	lui	a5,0x1
800062d0:	80078793          	addi	a5,a5,-2048 # 800 <HEAP_SIZE-0xf800>
800062d4:	00f687b3          	add	a5,a3,a5
800062d8:	00279793          	slli	a5,a5,0x2
800062dc:	00f707b3          	add	a5,a4,a5
800062e0:	0007a783          	lw	a5,0(a5)
800062e4:	fef42223          	sw	a5,-28(s0)
/casa/workspace/Chronos-RISCV6/FreeRTOS/Debug/../riscv_hal/riscv_plic.h:157
    current |= (uint32_t)1 << (IRQn % 32);
800062e8:	fdc42783          	lw	a5,-36(s0)
800062ec:	01f7f793          	andi	a5,a5,31
800062f0:	00100713          	li	a4,1
800062f4:	00f717b3          	sll	a5,a4,a5
800062f8:	fe442703          	lw	a4,-28(s0)
800062fc:	00f767b3          	or	a5,a4,a5
80006300:	fef42223          	sw	a5,-28(s0)
/casa/workspace/Chronos-RISCV6/FreeRTOS/Debug/../riscv_hal/riscv_plic.h:158
    PLIC->TARGET_ENABLES[hart_id].ENABLES[IRQn / 32] = current;
80006304:	40000737          	lui	a4,0x40000
80006308:	fdc42783          	lw	a5,-36(s0)
8000630c:	0057d793          	srli	a5,a5,0x5
80006310:	fe842683          	lw	a3,-24(s0)
80006314:	00569693          	slli	a3,a3,0x5
80006318:	00f686b3          	add	a3,a3,a5
8000631c:	000017b7          	lui	a5,0x1
80006320:	80078793          	addi	a5,a5,-2048 # 800 <HEAP_SIZE-0xf800>
80006324:	00f687b3          	add	a5,a3,a5
80006328:	00279793          	slli	a5,a5,0x2
8000632c:	00f707b3          	add	a5,a4,a5
80006330:	fe442703          	lw	a4,-28(s0)
80006334:	00e7a023          	sw	a4,0(a5)
/casa/workspace/Chronos-RISCV6/FreeRTOS/Debug/../riscv_hal/riscv_plic.h:159
}
80006338:	00000013          	nop
8000633c:	02c12403          	lw	s0,44(sp)
80006340:	03010113          	addi	sp,sp,48
80006344:	00008067          	ret

80006348 <PLIC_SetPriority>:
PLIC_SetPriority():
/casa/workspace/Chronos-RISCV6/FreeRTOS/Debug/../riscv_hal/riscv_plic.h:188
{
80006348:	fe010113          	addi	sp,sp,-32
8000634c:	00812e23          	sw	s0,28(sp)
80006350:	02010413          	addi	s0,sp,32
80006354:	fea42623          	sw	a0,-20(s0)
80006358:	feb42423          	sw	a1,-24(s0)
/casa/workspace/Chronos-RISCV6/FreeRTOS/Debug/../riscv_hal/riscv_plic.h:189
    PLIC->SOURCE_PRIORITY[IRQn] = priority;
8000635c:	40000737          	lui	a4,0x40000
80006360:	fec42783          	lw	a5,-20(s0)
80006364:	00279793          	slli	a5,a5,0x2
80006368:	00f707b3          	add	a5,a4,a5
8000636c:	fe842703          	lw	a4,-24(s0)
80006370:	00e7a023          	sw	a4,0(a5)
/casa/workspace/Chronos-RISCV6/FreeRTOS/Debug/../riscv_hal/riscv_plic.h:190
}
80006374:	00000013          	nop
80006378:	01c12403          	lw	s0,28(sp)
8000637c:	02010113          	addi	sp,sp,32
80006380:	00008067          	ret

80006384 <Chronos_init>:
Chronos_init():
/casa/workspace/Chronos-RISCV6/FreeRTOS/Debug/../FreeRTOS/chronos.c:31
extern unsigned int temperatureUpdated;


////////////////////////////////////////////////////////////
// Initialize Chronos stuff
void Chronos_init(){
80006384:	ff010113          	addi	sp,sp,-16
80006388:	00112623          	sw	ra,12(sp)
8000638c:	00812423          	sw	s0,8(sp)
80006390:	01010413          	addi	s0,sp,16
/casa/workspace/Chronos-RISCV6/FreeRTOS/Debug/../FreeRTOS/chronos.c:33
    // Resets the amount of each executed instruction
    resetExecutedInstructions();
80006394:	81dff0ef          	jal	ra,80005bb0 <resetExecutedInstructions>
/casa/workspace/Chronos-RISCV6/FreeRTOS/Debug/../FreeRTOS/chronos.c:36

    //Informs the Router this tile ID, that is provided by Harness
    HW_set_32bit_reg(ROUTER_BASE, HW_get_32bit_reg(MY_ID)); 
80006398:	900007b7          	lui	a5,0x90000
8000639c:	ffc78513          	addi	a0,a5,-4 # 8ffffffc <__stack_top+0xffb906c>
800063a0:	bbdfa0ef          	jal	ra,80000f5c <HW_get_32bit_reg>
800063a4:	00050793          	mv	a5,a0
800063a8:	00078593          	mv	a1,a5
800063ac:	50000537          	lui	a0,0x50000
800063b0:	ba5fa0ef          	jal	ra,80000f54 <HW_set_32bit_reg>
/casa/workspace/Chronos-RISCV6/FreeRTOS/Debug/../FreeRTOS/chronos.c:39
    
    // Reads this processor address, calculated by the router
    ProcessorAddr = HW_get_32bit_reg(ROUTER_BASE);
800063b4:	50000537          	lui	a0,0x50000
800063b8:	ba5fa0ef          	jal	ra,80000f5c <HW_get_32bit_reg>
800063bc:	00050713          	mv	a4,a0
800063c0:	800277b7          	lui	a5,0x80027
800063c4:	f8e7a023          	sw	a4,-128(a5) # 80026f80 <__stack_top+0xfffdfff0>
/casa/workspace/Chronos-RISCV6/FreeRTOS/Debug/../FreeRTOS/chronos.c:42

    // Informs the PRINTER this tile address
    HW_set_32bit_reg(PRINTER_CHAR, getXpos(ProcessorAddr));
800063c8:	800277b7          	lui	a5,0x80027
800063cc:	f807a783          	lw	a5,-128(a5) # 80026f80 <__stack_top+0xfffdfff0>
800063d0:	00078513          	mv	a0,a5
800063d4:	1f8000ef          	jal	ra,800065cc <getXpos>
800063d8:	00050793          	mv	a5,a0
800063dc:	00078593          	mv	a1,a5
800063e0:	500007b7          	lui	a5,0x50000
800063e4:	02078513          	addi	a0,a5,32 # 50000020 <RAM_SIZE+0x4ff80020>
800063e8:	b6dfa0ef          	jal	ra,80000f54 <HW_set_32bit_reg>
/casa/workspace/Chronos-RISCV6/FreeRTOS/Debug/../FreeRTOS/chronos.c:43
    HW_set_32bit_reg(PRINTER_CHAR, getYpos(ProcessorAddr));
800063ec:	800277b7          	lui	a5,0x80027
800063f0:	f807a783          	lw	a5,-128(a5) # 80026f80 <__stack_top+0xfffdfff0>
800063f4:	00078513          	mv	a0,a5
800063f8:	200000ef          	jal	ra,800065f8 <getYpos>
800063fc:	00050793          	mv	a5,a0
80006400:	00078593          	mv	a1,a5
80006404:	500007b7          	lui	a5,0x50000
80006408:	02078513          	addi	a0,a5,32 # 50000020 <RAM_SIZE+0x4ff80020>
8000640c:	b49fa0ef          	jal	ra,80000f54 <HW_set_32bit_reg>
/casa/workspace/Chronos-RISCV6/FreeRTOS/Debug/../FreeRTOS/chronos.c:46

    // Initialize the TaskList
    API_TaskListInit();
80006410:	e94fe0ef          	jal	ra,80004aa4 <API_TaskListInit>
/casa/workspace/Chronos-RISCV6/FreeRTOS/Debug/../FreeRTOS/chronos.c:49
    
    // Initialize the Message & Service PIPE
    API_PipeInitialization();
80006414:	f71fe0ef          	jal	ra,80005384 <API_PipeInitialization>
/casa/workspace/Chronos-RISCV6/FreeRTOS/Debug/../FreeRTOS/chronos.c:50
    SendingQueue_front = 0;
80006418:	800237b7          	lui	a5,0x80023
8000641c:	d807a223          	sw	zero,-636(a5) # 80022d84 <__stack_top+0xfffdbdf4>
/casa/workspace/Chronos-RISCV6/FreeRTOS/Debug/../FreeRTOS/chronos.c:51
    SendingQueue_tail = 0;
80006420:	800237b7          	lui	a5,0x80023
80006424:	b207a423          	sw	zero,-1240(a5) # 80022b28 <__stack_top+0xfffdbb98>
/casa/workspace/Chronos-RISCV6/FreeRTOS/Debug/../FreeRTOS/chronos.c:54

    // Configures the timer to interrupt at each ms
    HW_set_32bit_reg(NI_TIMER, 1000);
80006428:	3e800593          	li	a1,1000
8000642c:	500007b7          	lui	a5,0x50000
80006430:	01078513          	addi	a0,a5,16 # 50000010 <RAM_SIZE+0x4ff80010>
80006434:	b21fa0ef          	jal	ra,80000f54 <HW_set_32bit_reg>
/casa/workspace/Chronos-RISCV6/FreeRTOS/Debug/../FreeRTOS/chronos.c:57

    // Informs the NI the address to store incoming packets
    HW_set_32bit_reg(NI_ADDR, (unsigned int)&incommingPacket.header);
80006438:	800237b7          	lui	a5,0x80023
8000643c:	ad478793          	addi	a5,a5,-1324 # 80022ad4 <__stack_top+0xfffdbb44>
80006440:	00078593          	mv	a1,a5
80006444:	500007b7          	lui	a5,0x50000
80006448:	00478513          	addi	a0,a5,4 # 50000004 <RAM_SIZE+0x4ff80004>
8000644c:	b09fa0ef          	jal	ra,80000f54 <HW_set_32bit_reg>
/casa/workspace/Chronos-RISCV6/FreeRTOS/Debug/../FreeRTOS/chronos.c:60
    
    // Enables interruption from NI
    NI_enable_irq(TX_RX);
80006450:	000077b7          	lui	a5,0x7
80006454:	77778513          	addi	a0,a5,1911 # 7777 <HEAP_SIZE-0x8889>
80006458:	214000ef          	jal	ra,8000666c <NI_enable_irq>
/casa/workspace/Chronos-RISCV6/FreeRTOS/Debug/../FreeRTOS/chronos.c:63

    // Set the system to Idle
    API_setFreqIdle();
8000645c:	d10ff0ef          	jal	ra,8000596c <API_setFreqIdle>
/casa/workspace/Chronos-RISCV6/FreeRTOS/Debug/../FreeRTOS/chronos.c:64
    API_freqStepUp();
80006460:	de8ff0ef          	jal	ra,80005a48 <API_freqStepUp>
/casa/workspace/Chronos-RISCV6/FreeRTOS/Debug/../FreeRTOS/chronos.c:65
    return;
80006464:	00000013          	nop
/casa/workspace/Chronos-RISCV6/FreeRTOS/Debug/../FreeRTOS/chronos.c:66
}
80006468:	00c12083          	lw	ra,12(sp)
8000646c:	00812403          	lw	s0,8(sp)
80006470:	01010113          	addi	sp,sp,16
80006474:	00008067          	ret

80006478 <prints>:
prints():
/casa/workspace/Chronos-RISCV6/FreeRTOS/Debug/../FreeRTOS/chronos.c:70

////////////////////////////////////////////////////////////
// Prints a string
void prints(char *text) {
80006478:	fd010113          	addi	sp,sp,-48
8000647c:	02112623          	sw	ra,44(sp)
80006480:	02812423          	sw	s0,40(sp)
80006484:	03010413          	addi	s0,sp,48
80006488:	fca42e23          	sw	a0,-36(s0)
/casa/workspace/Chronos-RISCV6/FreeRTOS/Debug/../FreeRTOS/chronos.c:71
    int i = 0;
8000648c:	fe042623          	sw	zero,-20(s0)
/casa/workspace/Chronos-RISCV6/FreeRTOS/Debug/../FreeRTOS/chronos.c:73 (discriminator 1)
    do {
        HW_set_32bit_reg(PRINTER_CHAR, text[i]);
80006490:	fec42783          	lw	a5,-20(s0)
80006494:	fdc42703          	lw	a4,-36(s0)
80006498:	00f707b3          	add	a5,a4,a5
8000649c:	00078783          	lb	a5,0(a5)
800064a0:	00078593          	mv	a1,a5
800064a4:	500007b7          	lui	a5,0x50000
800064a8:	02078513          	addi	a0,a5,32 # 50000020 <RAM_SIZE+0x4ff80020>
800064ac:	aa9fa0ef          	jal	ra,80000f54 <HW_set_32bit_reg>
/casa/workspace/Chronos-RISCV6/FreeRTOS/Debug/../FreeRTOS/chronos.c:74 (discriminator 1)
        i++;
800064b0:	fec42783          	lw	a5,-20(s0)
800064b4:	00178793          	addi	a5,a5,1
800064b8:	fef42623          	sw	a5,-20(s0)
/casa/workspace/Chronos-RISCV6/FreeRTOS/Debug/../FreeRTOS/chronos.c:75 (discriminator 1)
    } while (text[i - 1] != '\0');
800064bc:	fec42783          	lw	a5,-20(s0)
800064c0:	fff78793          	addi	a5,a5,-1
800064c4:	fdc42703          	lw	a4,-36(s0)
800064c8:	00f707b3          	add	a5,a4,a5
800064cc:	00078783          	lb	a5,0(a5)
800064d0:	fc0790e3          	bnez	a5,80006490 <prints+0x18>
/casa/workspace/Chronos-RISCV6/FreeRTOS/Debug/../FreeRTOS/chronos.c:76
    return;
800064d4:	00000013          	nop
/casa/workspace/Chronos-RISCV6/FreeRTOS/Debug/../FreeRTOS/chronos.c:77
}
800064d8:	02c12083          	lw	ra,44(sp)
800064dc:	02812403          	lw	s0,40(sp)
800064e0:	03010113          	addi	sp,sp,48
800064e4:	00008067          	ret

800064e8 <printi>:
printi():
/casa/workspace/Chronos-RISCV6/FreeRTOS/Debug/../FreeRTOS/chronos.c:81

////////////////////////////////////////////////////////////
// Prints an integer
void printi(int value) {
800064e8:	fe010113          	addi	sp,sp,-32
800064ec:	00112e23          	sw	ra,28(sp)
800064f0:	00812c23          	sw	s0,24(sp)
800064f4:	02010413          	addi	s0,sp,32
800064f8:	fea42623          	sw	a0,-20(s0)
/casa/workspace/Chronos-RISCV6/FreeRTOS/Debug/../FreeRTOS/chronos.c:82
    HW_set_32bit_reg(PRINTER_INT, value);
800064fc:	fec42783          	lw	a5,-20(s0)
80006500:	00078593          	mv	a1,a5
80006504:	500007b7          	lui	a5,0x50000
80006508:	02478513          	addi	a0,a5,36 # 50000024 <RAM_SIZE+0x4ff80024>
8000650c:	a49fa0ef          	jal	ra,80000f54 <HW_set_32bit_reg>
/casa/workspace/Chronos-RISCV6/FreeRTOS/Debug/../FreeRTOS/chronos.c:83
    return;
80006510:	00000013          	nop
/casa/workspace/Chronos-RISCV6/FreeRTOS/Debug/../FreeRTOS/chronos.c:84
}
80006514:	01c12083          	lw	ra,28(sp)
80006518:	01812403          	lw	s0,24(sp)
8000651c:	02010113          	addi	sp,sp,32
80006520:	00008067          	ret

80006524 <printsv>:
printsv():
/casa/workspace/Chronos-RISCV6/FreeRTOS/Debug/../FreeRTOS/chronos.c:88

////////////////////////////////////////////////////////////
// Prints a string followed by a integer
void printsv(char *text1, int value1) {
80006524:	fe010113          	addi	sp,sp,-32
80006528:	00112e23          	sw	ra,28(sp)
8000652c:	00812c23          	sw	s0,24(sp)
80006530:	02010413          	addi	s0,sp,32
80006534:	fea42623          	sw	a0,-20(s0)
80006538:	feb42423          	sw	a1,-24(s0)
/casa/workspace/Chronos-RISCV6/FreeRTOS/Debug/../FreeRTOS/chronos.c:89
    prints(text1);
8000653c:	fec42503          	lw	a0,-20(s0)
80006540:	f39ff0ef          	jal	ra,80006478 <prints>
/casa/workspace/Chronos-RISCV6/FreeRTOS/Debug/../FreeRTOS/chronos.c:90
    printi(value1);
80006544:	fe842503          	lw	a0,-24(s0)
80006548:	fa1ff0ef          	jal	ra,800064e8 <printi>
/casa/workspace/Chronos-RISCV6/FreeRTOS/Debug/../FreeRTOS/chronos.c:91
    prints("\n");
8000654c:	800097b7          	lui	a5,0x80009
80006550:	ed478513          	addi	a0,a5,-300 # 80008ed4 <__stack_top+0xfffc1f44>
80006554:	f25ff0ef          	jal	ra,80006478 <prints>
/casa/workspace/Chronos-RISCV6/FreeRTOS/Debug/../FreeRTOS/chronos.c:92
    return;
80006558:	00000013          	nop
/casa/workspace/Chronos-RISCV6/FreeRTOS/Debug/../FreeRTOS/chronos.c:93
}
8000655c:	01c12083          	lw	ra,28(sp)
80006560:	01812403          	lw	s0,24(sp)
80006564:	02010113          	addi	sp,sp,32
80006568:	00008067          	ret

8000656c <printsvsv>:
printsvsv():
/casa/workspace/Chronos-RISCV6/FreeRTOS/Debug/../FreeRTOS/chronos.c:97

////////////////////////////////////////////////////////////
// Prints two strings and two integers interspersed
void printsvsv(char *text1, int value1, char *text2, int value2) {
8000656c:	fe010113          	addi	sp,sp,-32
80006570:	00112e23          	sw	ra,28(sp)
80006574:	00812c23          	sw	s0,24(sp)
80006578:	02010413          	addi	s0,sp,32
8000657c:	fea42623          	sw	a0,-20(s0)
80006580:	feb42423          	sw	a1,-24(s0)
80006584:	fec42223          	sw	a2,-28(s0)
80006588:	fed42023          	sw	a3,-32(s0)
/casa/workspace/Chronos-RISCV6/FreeRTOS/Debug/../FreeRTOS/chronos.c:98
    prints(text1);
8000658c:	fec42503          	lw	a0,-20(s0)
80006590:	ee9ff0ef          	jal	ra,80006478 <prints>
/casa/workspace/Chronos-RISCV6/FreeRTOS/Debug/../FreeRTOS/chronos.c:99
    printi(value1);
80006594:	fe842503          	lw	a0,-24(s0)
80006598:	f51ff0ef          	jal	ra,800064e8 <printi>
/casa/workspace/Chronos-RISCV6/FreeRTOS/Debug/../FreeRTOS/chronos.c:100
    prints(text2);
8000659c:	fe442503          	lw	a0,-28(s0)
800065a0:	ed9ff0ef          	jal	ra,80006478 <prints>
/casa/workspace/Chronos-RISCV6/FreeRTOS/Debug/../FreeRTOS/chronos.c:101
    printi(value2);
800065a4:	fe042503          	lw	a0,-32(s0)
800065a8:	f41ff0ef          	jal	ra,800064e8 <printi>
/casa/workspace/Chronos-RISCV6/FreeRTOS/Debug/../FreeRTOS/chronos.c:102
    prints("\n");
800065ac:	800097b7          	lui	a5,0x80009
800065b0:	ed478513          	addi	a0,a5,-300 # 80008ed4 <__stack_top+0xfffc1f44>
800065b4:	ec5ff0ef          	jal	ra,80006478 <prints>
/casa/workspace/Chronos-RISCV6/FreeRTOS/Debug/../FreeRTOS/chronos.c:103
    return;
800065b8:	00000013          	nop
/casa/workspace/Chronos-RISCV6/FreeRTOS/Debug/../FreeRTOS/chronos.c:104
}
800065bc:	01c12083          	lw	ra,28(sp)
800065c0:	01812403          	lw	s0,24(sp)
800065c4:	02010113          	addi	sp,sp,32
800065c8:	00008067          	ret

800065cc <getXpos>:
getXpos():
/casa/workspace/Chronos-RISCV6/FreeRTOS/Debug/../FreeRTOS/chronos.c:108

////////////////////////////////////////////////////////////
// Gets the X coordinate from the address
unsigned int getXpos(unsigned int addr) { return ((addr & 0x0000FF00) >> 8); }
800065cc:	fe010113          	addi	sp,sp,-32
800065d0:	00812e23          	sw	s0,28(sp)
800065d4:	02010413          	addi	s0,sp,32
800065d8:	fea42623          	sw	a0,-20(s0)
800065dc:	fec42783          	lw	a5,-20(s0)
800065e0:	0087d793          	srli	a5,a5,0x8
800065e4:	0ff7f793          	andi	a5,a5,255
800065e8:	00078513          	mv	a0,a5
800065ec:	01c12403          	lw	s0,28(sp)
800065f0:	02010113          	addi	sp,sp,32
800065f4:	00008067          	ret

800065f8 <getYpos>:
getYpos():
/casa/workspace/Chronos-RISCV6/FreeRTOS/Debug/../FreeRTOS/chronos.c:112

////////////////////////////////////////////////////////////
// Gets the Y coordinate from the address
unsigned int getYpos(unsigned int addr) { return (addr & 0x000000FF); }
800065f8:	fe010113          	addi	sp,sp,-32
800065fc:	00812e23          	sw	s0,28(sp)
80006600:	02010413          	addi	s0,sp,32
80006604:	fea42623          	sw	a0,-20(s0)
80006608:	fec42783          	lw	a5,-20(s0)
8000660c:	0ff7f793          	andi	a5,a5,255
80006610:	00078513          	mv	a0,a5
80006614:	01c12403          	lw	s0,28(sp)
80006618:	02010113          	addi	sp,sp,32
8000661c:	00008067          	ret

80006620 <SendRaw>:
SendRaw():
/casa/workspace/Chronos-RISCV6/FreeRTOS/Debug/../FreeRTOS/chronos.c:116

///////////////////////////////////////////////////////////////////
// Configure the NI to transmitt a given packet
void SendRaw(unsigned int addr) {
80006620:	fe010113          	addi	sp,sp,-32
80006624:	00112e23          	sw	ra,28(sp)
80006628:	00812c23          	sw	s0,24(sp)
8000662c:	02010413          	addi	s0,sp,32
80006630:	fea42623          	sw	a0,-20(s0)
/casa/workspace/Chronos-RISCV6/FreeRTOS/Debug/../FreeRTOS/chronos.c:117
    HW_set_32bit_reg(NI_ADDR, addr);
80006634:	fec42583          	lw	a1,-20(s0)
80006638:	500007b7          	lui	a5,0x50000
8000663c:	00478513          	addi	a0,a5,4 # 50000004 <RAM_SIZE+0x4ff80004>
80006640:	915fa0ef          	jal	ra,80000f54 <HW_set_32bit_reg>
/casa/workspace/Chronos-RISCV6/FreeRTOS/Debug/../FreeRTOS/chronos.c:118
    HW_set_32bit_reg(NI_TX, TX);
80006644:	000027b7          	lui	a5,0x2
80006648:	22278593          	addi	a1,a5,546 # 2222 <HEAP_SIZE-0xddde>
8000664c:	500007b7          	lui	a5,0x50000
80006650:	00878513          	addi	a0,a5,8 # 50000008 <RAM_SIZE+0x4ff80008>
80006654:	901fa0ef          	jal	ra,80000f54 <HW_set_32bit_reg>
/casa/workspace/Chronos-RISCV6/FreeRTOS/Debug/../FreeRTOS/chronos.c:119
    return;
80006658:	00000013          	nop
/casa/workspace/Chronos-RISCV6/FreeRTOS/Debug/../FreeRTOS/chronos.c:120
}
8000665c:	01c12083          	lw	ra,28(sp)
80006660:	01812403          	lw	s0,24(sp)
80006664:	02010113          	addi	sp,sp,32
80006668:	00008067          	ret

8000666c <NI_enable_irq>:
NI_enable_irq():
/casa/workspace/Chronos-RISCV6/FreeRTOS/Debug/../FreeRTOS/chronos.c:124

////////////////////////////////////////////////////////////
// Enables interruptions incomming from NI
void NI_enable_irq(int which){
8000666c:	fe010113          	addi	sp,sp,-32
80006670:	00112e23          	sw	ra,28(sp)
80006674:	00812c23          	sw	s0,24(sp)
80006678:	02010413          	addi	s0,sp,32
8000667c:	fea42623          	sw	a0,-20(s0)
/casa/workspace/Chronos-RISCV6/FreeRTOS/Debug/../FreeRTOS/chronos.c:125
    PLIC_EnableIRQ(NI_RX_IRQn);
80006680:	00200513          	li	a0,2
80006684:	c11ff0ef          	jal	ra,80006294 <PLIC_EnableIRQ>
/casa/workspace/Chronos-RISCV6/FreeRTOS/Debug/../FreeRTOS/chronos.c:126
    PLIC_SetPriority(NI_RX_IRQn, 1);
80006688:	00100593          	li	a1,1
8000668c:	00200513          	li	a0,2
80006690:	cb9ff0ef          	jal	ra,80006348 <PLIC_SetPriority>
/casa/workspace/Chronos-RISCV6/FreeRTOS/Debug/../FreeRTOS/chronos.c:127
    PLIC_EnableIRQ(NI_TX_IRQn);
80006694:	00300513          	li	a0,3
80006698:	bfdff0ef          	jal	ra,80006294 <PLIC_EnableIRQ>
/casa/workspace/Chronos-RISCV6/FreeRTOS/Debug/../FreeRTOS/chronos.c:128
    PLIC_SetPriority(NI_TX_IRQn, 2);
8000669c:	00200593          	li	a1,2
800066a0:	00300513          	li	a0,3
800066a4:	ca5ff0ef          	jal	ra,80006348 <PLIC_SetPriority>
/casa/workspace/Chronos-RISCV6/FreeRTOS/Debug/../FreeRTOS/chronos.c:129
    PLIC_EnableIRQ(Timer_IRQn);
800066a8:	00400513          	li	a0,4
800066ac:	be9ff0ef          	jal	ra,80006294 <PLIC_EnableIRQ>
/casa/workspace/Chronos-RISCV6/FreeRTOS/Debug/../FreeRTOS/chronos.c:130
    PLIC_SetPriority(Timer_IRQn, 3);
800066b0:	00300593          	li	a1,3
800066b4:	00400513          	li	a0,4
800066b8:	c91ff0ef          	jal	ra,80006348 <PLIC_SetPriority>
/casa/workspace/Chronos-RISCV6/FreeRTOS/Debug/../FreeRTOS/chronos.c:131
    return;
800066bc:	00000013          	nop
/casa/workspace/Chronos-RISCV6/FreeRTOS/Debug/../FreeRTOS/chronos.c:132
}
800066c0:	01c12083          	lw	ra,28(sp)
800066c4:	01812403          	lw	s0,24(sp)
800066c8:	02010113          	addi	sp,sp,32
800066cc:	00008067          	ret

800066d0 <External_2_IRQHandler>:
External_2_IRQHandler():
/casa/workspace/Chronos-RISCV6/FreeRTOS/Debug/../FreeRTOS/chronos.c:145
    return;
}

////////////////////////////////////////////////////////////
// Interruption handler for the NI RX
uint8_t External_2_IRQHandler(void){    
800066d0:	fe010113          	addi	sp,sp,-32
800066d4:	00112e23          	sw	ra,28(sp)
800066d8:	00812c23          	sw	s0,24(sp)
800066dc:	02010413          	addi	s0,sp,32
/casa/workspace/Chronos-RISCV6/FreeRTOS/Debug/../FreeRTOS/chronos.c:147
    BaseType_t xHigherPriorityTaskWoken;
    prints("ENTREI NA INTERRUPCAO RX\n");
800066e0:	800097b7          	lui	a5,0x80009
800066e4:	ed878513          	addi	a0,a5,-296 # 80008ed8 <__stack_top+0xfffc1f48>
800066e8:	d91ff0ef          	jal	ra,80006478 <prints>
/casa/workspace/Chronos-RISCV6/FreeRTOS/Debug/../FreeRTOS/chronos.c:149
    /* Clear the interrupt. */
    HW_set_32bit_reg(NI_RX, HOLD);
800066ec:	ff600593          	li	a1,-10
800066f0:	500007b7          	lui	a5,0x50000
800066f4:	00c78513          	addi	a0,a5,12 # 5000000c <RAM_SIZE+0x4ff8000c>
800066f8:	85dfa0ef          	jal	ra,80000f54 <HW_set_32bit_reg>
/casa/workspace/Chronos-RISCV6/FreeRTOS/Debug/../FreeRTOS/chronos.c:156
    /* xHigherPriorityTaskWoken must be initialised to pdFALSE.
    If calling vTaskNotifyGiveFromISR() unblocks the handling
    task, and the priority of the handling task is higher than
    the priority of the currently running task, then
    xHigherPriorityTaskWoken will be automatically set to pdTRUE. */
    xHigherPriorityTaskWoken = pdFALSE;
800066fc:	fe042623          	sw	zero,-20(s0)
/casa/workspace/Chronos-RISCV6/FreeRTOS/Debug/../FreeRTOS/chronos.c:163
    /* Unblock the handling task so the task can perform
    any processing necessitated by the interrupt.  xHandlingTask
    is the task's handle, which was obtained when the task was
    created.  vTaskNotifyGiveFromISR() also increments
    the receiving task's notification value. */
    vTaskNotifyGiveFromISR( NI_RX_Handler, &xHigherPriorityTaskWoken );
80006700:	800237b7          	lui	a5,0x80023
80006704:	88c7a783          	lw	a5,-1908(a5) # 8002288c <__stack_top+0xfffdb8fc>
80006708:	fec40713          	addi	a4,s0,-20
8000670c:	00070593          	mv	a1,a4
80006710:	00078513          	mv	a0,a5
80006714:	aa5fc0ef          	jal	ra,800031b8 <vTaskNotifyGiveFromISR>
/casa/workspace/Chronos-RISCV6/FreeRTOS/Debug/../FreeRTOS/chronos.c:168

    /* Force a context switch if xHigherPriorityTaskWoken is now
    set to pdTRUE. The macro used to do this is dependent on
    the port and may be called portEND_SWITCHING_ISR. */
    portEND_SWITCHING_ISR( xHigherPriorityTaskWoken );
80006718:	fec42783          	lw	a5,-20(s0)
8000671c:	00078463          	beqz	a5,80006724 <External_2_IRQHandler+0x54>
/casa/workspace/Chronos-RISCV6/FreeRTOS/Debug/../FreeRTOS/chronos.c:168 (discriminator 1)
80006720:	c2cfb0ef          	jal	ra,80001b4c <vPortYield>
/casa/workspace/Chronos-RISCV6/FreeRTOS/Debug/../FreeRTOS/chronos.c:170

    return 0;
80006724:	00000793          	li	a5,0
/casa/workspace/Chronos-RISCV6/FreeRTOS/Debug/../FreeRTOS/chronos.c:171
}
80006728:	00078513          	mv	a0,a5
8000672c:	01c12083          	lw	ra,28(sp)
80006730:	01812403          	lw	s0,24(sp)
80006734:	02010113          	addi	sp,sp,32
80006738:	00008067          	ret

8000673c <External_3_IRQHandler>:
External_3_IRQHandler():
/casa/workspace/Chronos-RISCV6/FreeRTOS/Debug/../FreeRTOS/chronos.c:175

////////////////////////////////////////////////////////////
// Interruption handler for the NI TX
uint8_t External_3_IRQHandler(void){    
8000673c:	fe010113          	addi	sp,sp,-32
80006740:	00112e23          	sw	ra,28(sp)
80006744:	00812c23          	sw	s0,24(sp)
80006748:	02010413          	addi	s0,sp,32
/casa/workspace/Chronos-RISCV6/FreeRTOS/Debug/../FreeRTOS/chronos.c:177
    BaseType_t xHigherPriorityTaskWoken;
    prints("ENTREI NA INTERRUPCAO TX\n");
8000674c:	800097b7          	lui	a5,0x80009
80006750:	ef478513          	addi	a0,a5,-268 # 80008ef4 <__stack_top+0xfffc1f64>
80006754:	d25ff0ef          	jal	ra,80006478 <prints>
/casa/workspace/Chronos-RISCV6/FreeRTOS/Debug/../FreeRTOS/chronos.c:179
    /* Clear the interrupt. */
    HW_set_32bit_reg(NI_TX, HOLD);
80006758:	ff600593          	li	a1,-10
8000675c:	500007b7          	lui	a5,0x50000
80006760:	00878513          	addi	a0,a5,8 # 50000008 <RAM_SIZE+0x4ff80008>
80006764:	ff0fa0ef          	jal	ra,80000f54 <HW_set_32bit_reg>
/casa/workspace/Chronos-RISCV6/FreeRTOS/Debug/../FreeRTOS/chronos.c:186
    /* xHigherPriorityTaskWoken must be initialised to pdFALSE.
    If calling vTaskNotifyGiveFromISR() unblocks the handling
    task, and the priority of the handling task is higher than
    the priority of the currently running task, then
    xHigherPriorityTaskWoken will be automatically set to pdTRUE. */
    xHigherPriorityTaskWoken = pdFALSE;
80006768:	fe042623          	sw	zero,-20(s0)
/casa/workspace/Chronos-RISCV6/FreeRTOS/Debug/../FreeRTOS/chronos.c:193
    /* Unblock the handling task so the task can perform
    any processing necessitated by the interrupt.  xHandlingTask
    is the task's handle, which was obtained when the task was
    created.  vTaskNotifyGiveFromISR() also increments
    the receiving task's notification value. */
    vTaskNotifyGiveFromISR( NI_TX_Handler, &xHigherPriorityTaskWoken );
8000676c:	800237b7          	lui	a5,0x80023
80006770:	d807a783          	lw	a5,-640(a5) # 80022d80 <__stack_top+0xfffdbdf0>
80006774:	fec40713          	addi	a4,s0,-20
80006778:	00070593          	mv	a1,a4
8000677c:	00078513          	mv	a0,a5
80006780:	a39fc0ef          	jal	ra,800031b8 <vTaskNotifyGiveFromISR>
/casa/workspace/Chronos-RISCV6/FreeRTOS/Debug/../FreeRTOS/chronos.c:198

    /* Force a context switch if xHigherPriorityTaskWoken is now
    set to pdTRUE. The macro used to do this is dependent on
    the port and may be called portEND_SWITCHING_ISR. */
    portEND_SWITCHING_ISR( xHigherPriorityTaskWoken );
80006784:	fec42783          	lw	a5,-20(s0)
80006788:	00078463          	beqz	a5,80006790 <External_3_IRQHandler+0x54>
/casa/workspace/Chronos-RISCV6/FreeRTOS/Debug/../FreeRTOS/chronos.c:198 (discriminator 1)
8000678c:	bc0fb0ef          	jal	ra,80001b4c <vPortYield>
/casa/workspace/Chronos-RISCV6/FreeRTOS/Debug/../FreeRTOS/chronos.c:200

    return 0;
80006790:	00000793          	li	a5,0
/casa/workspace/Chronos-RISCV6/FreeRTOS/Debug/../FreeRTOS/chronos.c:201
}
80006794:	00078513          	mv	a0,a5
80006798:	01c12083          	lw	ra,28(sp)
8000679c:	01812403          	lw	s0,24(sp)
800067a0:	02010113          	addi	sp,sp,32
800067a4:	00008067          	ret

800067a8 <External_4_IRQHandler>:
External_4_IRQHandler():
/casa/workspace/Chronos-RISCV6/FreeRTOS/Debug/../FreeRTOS/chronos.c:205

////////////////////////////////////////////////////////////
// Interruption handler for the NI TMR
uint8_t External_4_IRQHandler(void){    
800067a8:	fe010113          	addi	sp,sp,-32
800067ac:	00112e23          	sw	ra,28(sp)
800067b0:	00812c23          	sw	s0,24(sp)
800067b4:	02010413          	addi	s0,sp,32
/casa/workspace/Chronos-RISCV6/FreeRTOS/Debug/../FreeRTOS/chronos.c:207
    BaseType_t xHigherPriorityTaskWoken;
    prints("ENTREI NA INTERRUPCAO TMR\n");
800067b8:	800097b7          	lui	a5,0x80009
800067bc:	f1078513          	addi	a0,a5,-240 # 80008f10 <__stack_top+0xfffc1f80>
800067c0:	cb9ff0ef          	jal	ra,80006478 <prints>
/casa/workspace/Chronos-RISCV6/FreeRTOS/Debug/../FreeRTOS/chronos.c:209
    /* Clear the interrupt. */
    HW_set_32bit_reg(NI_TIMER, HOLD);
800067c4:	ff600593          	li	a1,-10
800067c8:	500007b7          	lui	a5,0x50000
800067cc:	01078513          	addi	a0,a5,16 # 50000010 <RAM_SIZE+0x4ff80010>
800067d0:	f84fa0ef          	jal	ra,80000f54 <HW_set_32bit_reg>
/casa/workspace/Chronos-RISCV6/FreeRTOS/Debug/../FreeRTOS/chronos.c:216
    /* xHigherPriorityTaskWoken must be initialised to pdFALSE.
    If calling vTaskNotifyGiveFromISR() unblocks the handling
    task, and the priority of the handling task is higher than
    the priority of the currently running task, then
    xHigherPriorityTaskWoken will be automatically set to pdTRUE. */
    xHigherPriorityTaskWoken = pdFALSE;
800067d4:	fe042623          	sw	zero,-20(s0)
/casa/workspace/Chronos-RISCV6/FreeRTOS/Debug/../FreeRTOS/chronos.c:223
    /* Unblock the handling task so the task can perform
    any processing necessitated by the interrupt.  xHandlingTask
    is the task's handle, which was obtained when the task was
    created.  vTaskNotifyGiveFromISR() also increments
    the receiving task's notification value. */
    vTaskNotifyGiveFromISR( NI_TMR_Handler, &xHigherPriorityTaskWoken );
800067d8:	800237b7          	lui	a5,0x80023
800067dc:	d887a783          	lw	a5,-632(a5) # 80022d88 <__stack_top+0xfffdbdf8>
800067e0:	fec40713          	addi	a4,s0,-20
800067e4:	00070593          	mv	a1,a4
800067e8:	00078513          	mv	a0,a5
800067ec:	9cdfc0ef          	jal	ra,800031b8 <vTaskNotifyGiveFromISR>
/casa/workspace/Chronos-RISCV6/FreeRTOS/Debug/../FreeRTOS/chronos.c:228

    /* Force a context switch if xHigherPriorityTaskWoken is now
    set to pdTRUE. The macro used to do this is dependent on
    the port and may be called portEND_SWITCHING_ISR. */
    portEND_SWITCHING_ISR( xHigherPriorityTaskWoken );
800067f0:	fec42783          	lw	a5,-20(s0)
800067f4:	00078463          	beqz	a5,800067fc <External_4_IRQHandler+0x54>
/casa/workspace/Chronos-RISCV6/FreeRTOS/Debug/../FreeRTOS/chronos.c:228 (discriminator 1)
800067f8:	b54fb0ef          	jal	ra,80001b4c <vPortYield>
/casa/workspace/Chronos-RISCV6/FreeRTOS/Debug/../FreeRTOS/chronos.c:230

    return 0;
800067fc:	00000793          	li	a5,0
/casa/workspace/Chronos-RISCV6/FreeRTOS/Debug/../FreeRTOS/chronos.c:231
}
80006800:	00078513          	mv	a0,a5
80006804:	01c12083          	lw	ra,28(sp)
80006808:	01812403          	lw	s0,24(sp)
8000680c:	02010113          	addi	sp,sp,32
80006810:	00008067          	ret

80006814 <mySwap>:
mySwap():
/casa/workspace/Chronos-RISCV6/FreeRTOS/Debug/../FreeRTOS/chronos.c:237


////////////////////////////////////////////////////////////
// https://www.techiedelight.com/implement-itoa-function-in-c/
// Function to swap two numbers
void mySwap(char *x, char *y) {
80006814:	fd010113          	addi	sp,sp,-48
80006818:	02812623          	sw	s0,44(sp)
8000681c:	03010413          	addi	s0,sp,48
80006820:	fca42e23          	sw	a0,-36(s0)
80006824:	fcb42c23          	sw	a1,-40(s0)
/casa/workspace/Chronos-RISCV6/FreeRTOS/Debug/../FreeRTOS/chronos.c:238
    char t = *x; *x = *y; *y = t;
80006828:	fdc42783          	lw	a5,-36(s0)
8000682c:	0007c783          	lbu	a5,0(a5)
80006830:	fef407a3          	sb	a5,-17(s0)
80006834:	fd842783          	lw	a5,-40(s0)
80006838:	00078703          	lb	a4,0(a5)
8000683c:	fdc42783          	lw	a5,-36(s0)
80006840:	00e78023          	sb	a4,0(a5)
80006844:	fd842783          	lw	a5,-40(s0)
80006848:	fef44703          	lbu	a4,-17(s0)
8000684c:	00e78023          	sb	a4,0(a5)
/casa/workspace/Chronos-RISCV6/FreeRTOS/Debug/../FreeRTOS/chronos.c:239
}
80006850:	00000013          	nop
80006854:	02c12403          	lw	s0,44(sp)
80006858:	03010113          	addi	sp,sp,48
8000685c:	00008067          	ret

80006860 <reverse>:
reverse():
/casa/workspace/Chronos-RISCV6/FreeRTOS/Debug/../FreeRTOS/chronos.c:241
// Function to reverse `buffer[ij]`
char* reverse(char *buffer, int i, int j){
80006860:	fe010113          	addi	sp,sp,-32
80006864:	00112e23          	sw	ra,28(sp)
80006868:	00812c23          	sw	s0,24(sp)
8000686c:	02010413          	addi	s0,sp,32
80006870:	fea42623          	sw	a0,-20(s0)
80006874:	feb42423          	sw	a1,-24(s0)
80006878:	fec42223          	sw	a2,-28(s0)
/casa/workspace/Chronos-RISCV6/FreeRTOS/Debug/../FreeRTOS/chronos.c:242
    while (i < j) {
8000687c:	0400006f          	j	800068bc <reverse+0x5c>
/casa/workspace/Chronos-RISCV6/FreeRTOS/Debug/../FreeRTOS/chronos.c:243
        mySwap(&buffer[i++], &buffer[j--]);
80006880:	fe842783          	lw	a5,-24(s0)
80006884:	00178713          	addi	a4,a5,1
80006888:	fee42423          	sw	a4,-24(s0)
8000688c:	00078713          	mv	a4,a5
80006890:	fec42783          	lw	a5,-20(s0)
80006894:	00e786b3          	add	a3,a5,a4
80006898:	fe442783          	lw	a5,-28(s0)
8000689c:	fff78713          	addi	a4,a5,-1
800068a0:	fee42223          	sw	a4,-28(s0)
800068a4:	00078713          	mv	a4,a5
800068a8:	fec42783          	lw	a5,-20(s0)
800068ac:	00e787b3          	add	a5,a5,a4
800068b0:	00078593          	mv	a1,a5
800068b4:	00068513          	mv	a0,a3
800068b8:	f5dff0ef          	jal	ra,80006814 <mySwap>
/casa/workspace/Chronos-RISCV6/FreeRTOS/Debug/../FreeRTOS/chronos.c:242
    while (i < j) {
800068bc:	fe842703          	lw	a4,-24(s0)
800068c0:	fe442783          	lw	a5,-28(s0)
800068c4:	faf74ee3          	blt	a4,a5,80006880 <reverse+0x20>
/casa/workspace/Chronos-RISCV6/FreeRTOS/Debug/../FreeRTOS/chronos.c:246
    }
 
    return buffer;
800068c8:	fec42783          	lw	a5,-20(s0)
/casa/workspace/Chronos-RISCV6/FreeRTOS/Debug/../FreeRTOS/chronos.c:247
}
800068cc:	00078513          	mv	a0,a5
800068d0:	01c12083          	lw	ra,28(sp)
800068d4:	01812403          	lw	s0,24(sp)
800068d8:	02010113          	addi	sp,sp,32
800068dc:	00008067          	ret

800068e0 <myItoa>:
myItoa():
/casa/workspace/Chronos-RISCV6/FreeRTOS/Debug/../FreeRTOS/chronos.c:249
// Iterative function to implement `itoa()` function in C
char* myItoa(int value, char* buffer, int base){
800068e0:	fd010113          	addi	sp,sp,-48
800068e4:	02112623          	sw	ra,44(sp)
800068e8:	02812423          	sw	s0,40(sp)
800068ec:	03010413          	addi	s0,sp,48
800068f0:	fca42e23          	sw	a0,-36(s0)
800068f4:	fcb42c23          	sw	a1,-40(s0)
800068f8:	fcc42a23          	sw	a2,-44(s0)
/casa/workspace/Chronos-RISCV6/FreeRTOS/Debug/../FreeRTOS/chronos.c:251
    // invalid input
    if (base < 2 || base > 32) {
800068fc:	fd442703          	lw	a4,-44(s0)
80006900:	00100793          	li	a5,1
80006904:	00e7d863          	ble	a4,a5,80006914 <myItoa+0x34>
/casa/workspace/Chronos-RISCV6/FreeRTOS/Debug/../FreeRTOS/chronos.c:251 (discriminator 1)
80006908:	fd442703          	lw	a4,-44(s0)
8000690c:	02000793          	li	a5,32
80006910:	00e7d663          	ble	a4,a5,8000691c <myItoa+0x3c>
/casa/workspace/Chronos-RISCV6/FreeRTOS/Debug/../FreeRTOS/chronos.c:252
        return buffer;
80006914:	fd842783          	lw	a5,-40(s0)
80006918:	1540006f          	j	80006a6c <myItoa+0x18c>
/casa/workspace/Chronos-RISCV6/FreeRTOS/Debug/../FreeRTOS/chronos.c:256
    }
    // consider the absolute value of the number
    int n;
    if (value < 0)
8000691c:	fdc42783          	lw	a5,-36(s0)
80006920:	0007da63          	bgez	a5,80006934 <myItoa+0x54>
/casa/workspace/Chronos-RISCV6/FreeRTOS/Debug/../FreeRTOS/chronos.c:257
        n = value * -1;
80006924:	fdc42783          	lw	a5,-36(s0)
80006928:	40f007b3          	neg	a5,a5
8000692c:	fef42623          	sw	a5,-20(s0)
80006930:	00c0006f          	j	8000693c <myItoa+0x5c>
/casa/workspace/Chronos-RISCV6/FreeRTOS/Debug/../FreeRTOS/chronos.c:259
    else 
        n = value;
80006934:	fdc42783          	lw	a5,-36(s0)
80006938:	fef42623          	sw	a5,-20(s0)
/casa/workspace/Chronos-RISCV6/FreeRTOS/Debug/../FreeRTOS/chronos.c:261

    int i = 0;
8000693c:	fe042423          	sw	zero,-24(s0)
/casa/workspace/Chronos-RISCV6/FreeRTOS/Debug/../FreeRTOS/chronos.c:262
    while (n){
80006940:	09c0006f          	j	800069dc <myItoa+0xfc>
/casa/workspace/Chronos-RISCV6/FreeRTOS/Debug/../FreeRTOS/chronos.c:263
        int r = n % base;
80006944:	fec42703          	lw	a4,-20(s0)
80006948:	fd442783          	lw	a5,-44(s0)
8000694c:	02f767b3          	rem	a5,a4,a5
80006950:	fef42223          	sw	a5,-28(s0)
/casa/workspace/Chronos-RISCV6/FreeRTOS/Debug/../FreeRTOS/chronos.c:265
 
        if (r >= 10) {
80006954:	fe442703          	lw	a4,-28(s0)
80006958:	00900793          	li	a5,9
8000695c:	02e7de63          	ble	a4,a5,80006998 <myItoa+0xb8>
/casa/workspace/Chronos-RISCV6/FreeRTOS/Debug/../FreeRTOS/chronos.c:266
            buffer[i++] = 65 + (r - 10);
80006960:	fe442783          	lw	a5,-28(s0)
80006964:	0ff7f793          	andi	a5,a5,255
80006968:	03778793          	addi	a5,a5,55
8000696c:	0ff7f693          	andi	a3,a5,255
80006970:	fe842783          	lw	a5,-24(s0)
80006974:	00178713          	addi	a4,a5,1
80006978:	fee42423          	sw	a4,-24(s0)
8000697c:	00078713          	mv	a4,a5
80006980:	fd842783          	lw	a5,-40(s0)
80006984:	00e787b3          	add	a5,a5,a4
80006988:	01869713          	slli	a4,a3,0x18
8000698c:	41875713          	srai	a4,a4,0x18
80006990:	00e78023          	sb	a4,0(a5)
80006994:	0380006f          	j	800069cc <myItoa+0xec>
/casa/workspace/Chronos-RISCV6/FreeRTOS/Debug/../FreeRTOS/chronos.c:269
        }
        else {
            buffer[i++] = 48 + r;
80006998:	fe442783          	lw	a5,-28(s0)
8000699c:	0ff7f793          	andi	a5,a5,255
800069a0:	03078793          	addi	a5,a5,48
800069a4:	0ff7f693          	andi	a3,a5,255
800069a8:	fe842783          	lw	a5,-24(s0)
800069ac:	00178713          	addi	a4,a5,1
800069b0:	fee42423          	sw	a4,-24(s0)
800069b4:	00078713          	mv	a4,a5
800069b8:	fd842783          	lw	a5,-40(s0)
800069bc:	00e787b3          	add	a5,a5,a4
800069c0:	01869713          	slli	a4,a3,0x18
800069c4:	41875713          	srai	a4,a4,0x18
800069c8:	00e78023          	sb	a4,0(a5)
/casa/workspace/Chronos-RISCV6/FreeRTOS/Debug/../FreeRTOS/chronos.c:272
        }
 
        n = n / base;
800069cc:	fec42703          	lw	a4,-20(s0)
800069d0:	fd442783          	lw	a5,-44(s0)
800069d4:	02f747b3          	div	a5,a4,a5
800069d8:	fef42623          	sw	a5,-20(s0)
/casa/workspace/Chronos-RISCV6/FreeRTOS/Debug/../FreeRTOS/chronos.c:262
    while (n){
800069dc:	fec42783          	lw	a5,-20(s0)
800069e0:	f60792e3          	bnez	a5,80006944 <myItoa+0x64>
/casa/workspace/Chronos-RISCV6/FreeRTOS/Debug/../FreeRTOS/chronos.c:275
    }
    // if the number is 0
    if (i == 0) {
800069e4:	fe842783          	lw	a5,-24(s0)
800069e8:	02079263          	bnez	a5,80006a0c <myItoa+0x12c>
/casa/workspace/Chronos-RISCV6/FreeRTOS/Debug/../FreeRTOS/chronos.c:276
        buffer[i++] = '0';
800069ec:	fe842783          	lw	a5,-24(s0)
800069f0:	00178713          	addi	a4,a5,1
800069f4:	fee42423          	sw	a4,-24(s0)
800069f8:	00078713          	mv	a4,a5
800069fc:	fd842783          	lw	a5,-40(s0)
80006a00:	00e787b3          	add	a5,a5,a4
80006a04:	03000713          	li	a4,48
80006a08:	00e78023          	sb	a4,0(a5)
/casa/workspace/Chronos-RISCV6/FreeRTOS/Debug/../FreeRTOS/chronos.c:281
    }
    // If the base is 10 and the value is negative, the resulting string
    // is preceded with a minus sign (-)
    // With any other base, value is always considered unsigned
    if (value < 0 && base == 10) {
80006a0c:	fdc42783          	lw	a5,-36(s0)
80006a10:	0207d863          	bgez	a5,80006a40 <myItoa+0x160>
/casa/workspace/Chronos-RISCV6/FreeRTOS/Debug/../FreeRTOS/chronos.c:281 (discriminator 1)
80006a14:	fd442703          	lw	a4,-44(s0)
80006a18:	00a00793          	li	a5,10
80006a1c:	02f71263          	bne	a4,a5,80006a40 <myItoa+0x160>
/casa/workspace/Chronos-RISCV6/FreeRTOS/Debug/../FreeRTOS/chronos.c:282
        buffer[i++] = '-';
80006a20:	fe842783          	lw	a5,-24(s0)
80006a24:	00178713          	addi	a4,a5,1
80006a28:	fee42423          	sw	a4,-24(s0)
80006a2c:	00078713          	mv	a4,a5
80006a30:	fd842783          	lw	a5,-40(s0)
80006a34:	00e787b3          	add	a5,a5,a4
80006a38:	02d00713          	li	a4,45
80006a3c:	00e78023          	sb	a4,0(a5)
/casa/workspace/Chronos-RISCV6/FreeRTOS/Debug/../FreeRTOS/chronos.c:284
    }
    buffer[i] = '\0'; // null terminate string
80006a40:	fe842783          	lw	a5,-24(s0)
80006a44:	fd842703          	lw	a4,-40(s0)
80006a48:	00f707b3          	add	a5,a4,a5
80006a4c:	00078023          	sb	zero,0(a5)
/casa/workspace/Chronos-RISCV6/FreeRTOS/Debug/../FreeRTOS/chronos.c:286
    // reverse the string and return it
    return reverse(buffer, 0, i - 1);
80006a50:	fe842783          	lw	a5,-24(s0)
80006a54:	fff78793          	addi	a5,a5,-1
80006a58:	00078613          	mv	a2,a5
80006a5c:	00000593          	li	a1,0
80006a60:	fd842503          	lw	a0,-40(s0)
80006a64:	dfdff0ef          	jal	ra,80006860 <reverse>
80006a68:	00050793          	mv	a5,a0
/casa/workspace/Chronos-RISCV6/FreeRTOS/Debug/../FreeRTOS/chronos.c:287
}
80006a6c:	00078513          	mv	a0,a5
80006a70:	02c12083          	lw	ra,44(sp)
80006a74:	02812403          	lw	s0,40(sp)
80006a78:	03010113          	addi	sp,sp,48
80006a7c:	00008067          	ret

80006a80 <makeAddress>:
makeAddress():
/casa/workspace/Chronos-RISCV6/FreeRTOS/Debug/../FreeRTOS/chronos.c:301
    return;
}

////////////////////////////////////////////////////////////
// Returns the PE address for a giver pair of coords
unsigned int makeAddress(unsigned int x, unsigned int y) {
80006a80:	fd010113          	addi	sp,sp,-48
80006a84:	02812623          	sw	s0,44(sp)
80006a88:	03010413          	addi	s0,sp,48
80006a8c:	fca42e23          	sw	a0,-36(s0)
80006a90:	fcb42c23          	sw	a1,-40(s0)
/casa/workspace/Chronos-RISCV6/FreeRTOS/Debug/../FreeRTOS/chronos.c:302
    unsigned int address = 0x00000000;
80006a94:	fe042623          	sw	zero,-20(s0)
/casa/workspace/Chronos-RISCV6/FreeRTOS/Debug/../FreeRTOS/chronos.c:303
    return (address | (x << 8) | y);
80006a98:	fdc42783          	lw	a5,-36(s0)
80006a9c:	00879713          	slli	a4,a5,0x8
80006aa0:	fec42783          	lw	a5,-20(s0)
80006aa4:	00f76733          	or	a4,a4,a5
80006aa8:	fd842783          	lw	a5,-40(s0)
80006aac:	00f767b3          	or	a5,a4,a5
/casa/workspace/Chronos-RISCV6/FreeRTOS/Debug/../FreeRTOS/chronos.c:304
}
80006ab0:	00078513          	mv	a0,a5
80006ab4:	02c12403          	lw	s0,44(sp)
80006ab8:	03010113          	addi	sp,sp,48
80006abc:	00008067          	ret

80006ac0 <API_PushSendQueue>:
API_PushSendQueue():
/casa/workspace/Chronos-RISCV6/FreeRTOS/Debug/../FreeRTOS/chronos.c:308

////////////////////////////////////////////////////////////
// Pushes one slot to the sending queue
void API_PushSendQueue(unsigned int type, unsigned int slot){
80006ac0:	fe010113          	addi	sp,sp,-32
80006ac4:	00112e23          	sw	ra,28(sp)
80006ac8:	00812c23          	sw	s0,24(sp)
80006acc:	02010413          	addi	s0,sp,32
80006ad0:	fea42623          	sw	a0,-20(s0)
80006ad4:	feb42423          	sw	a1,-24(s0)
/casa/workspace/Chronos-RISCV6/FreeRTOS/Debug/../FreeRTOS/chronos.c:309
    vTaskEnterCritical();
80006ad8:	d60fc0ef          	jal	ra,80003038 <vTaskEnterCritical>
/casa/workspace/Chronos-RISCV6/FreeRTOS/Debug/../FreeRTOS/chronos.c:310
    if(type == THERMAL){
80006adc:	fec42703          	lw	a4,-20(s0)
80006ae0:	404007b7          	lui	a5,0x40400
80006ae4:	00f71a63          	bne	a4,a5,80006af8 <API_PushSendQueue+0x38>
/casa/workspace/Chronos-RISCV6/FreeRTOS/Debug/../FreeRTOS/chronos.c:311
        API_PrioritySend(type, slot);
80006ae8:	fe842583          	lw	a1,-24(s0)
80006aec:	fec42503          	lw	a0,-20(s0)
80006af0:	094000ef          	jal	ra,80006b84 <API_PrioritySend>
80006af4:	0780006f          	j	80006b6c <API_PushSendQueue+0xac>
/casa/workspace/Chronos-RISCV6/FreeRTOS/Debug/../FreeRTOS/chronos.c:313
    } else {
        SendingQueue[SendingQueue_front] = type | slot;
80006af8:	800237b7          	lui	a5,0x80023
80006afc:	d847a683          	lw	a3,-636(a5) # 80022d84 <__stack_top+0xfffdbdf4>
80006b00:	fec42703          	lw	a4,-20(s0)
80006b04:	fe842783          	lw	a5,-24(s0)
80006b08:	00f76733          	or	a4,a4,a5
80006b0c:	800237b7          	lui	a5,0x80023
80006b10:	00269693          	slli	a3,a3,0x2
80006b14:	b0878793          	addi	a5,a5,-1272 # 80022b08 <__stack_top+0xfffdbb78>
80006b18:	00f687b3          	add	a5,a3,a5
80006b1c:	00e7a023          	sw	a4,0(a5)
/casa/workspace/Chronos-RISCV6/FreeRTOS/Debug/../FreeRTOS/chronos.c:314
        printsv("SendingQueue_front: ", SendingQueue_front);
80006b20:	800237b7          	lui	a5,0x80023
80006b24:	d847a783          	lw	a5,-636(a5) # 80022d84 <__stack_top+0xfffdbdf4>
80006b28:	00078593          	mv	a1,a5
80006b2c:	800097b7          	lui	a5,0x80009
80006b30:	f5478513          	addi	a0,a5,-172 # 80008f54 <__stack_top+0xfffc1fc4>
80006b34:	9f1ff0ef          	jal	ra,80006524 <printsv>
/casa/workspace/Chronos-RISCV6/FreeRTOS/Debug/../FreeRTOS/chronos.c:315
        if(SendingQueue_front == (PIPE_SIZE*2)-1){
80006b38:	800237b7          	lui	a5,0x80023
80006b3c:	d847a703          	lw	a4,-636(a5) # 80022d84 <__stack_top+0xfffdbdf4>
80006b40:	00700793          	li	a5,7
80006b44:	00f71863          	bne	a4,a5,80006b54 <API_PushSendQueue+0x94>
/casa/workspace/Chronos-RISCV6/FreeRTOS/Debug/../FreeRTOS/chronos.c:316
            SendingQueue_front = 0;
80006b48:	800237b7          	lui	a5,0x80023
80006b4c:	d807a223          	sw	zero,-636(a5) # 80022d84 <__stack_top+0xfffdbdf4>
80006b50:	0180006f          	j	80006b68 <API_PushSendQueue+0xa8>
/casa/workspace/Chronos-RISCV6/FreeRTOS/Debug/../FreeRTOS/chronos.c:318
        } else {
            SendingQueue_front++;
80006b54:	800237b7          	lui	a5,0x80023
80006b58:	d847a783          	lw	a5,-636(a5) # 80022d84 <__stack_top+0xfffdbdf4>
80006b5c:	00178713          	addi	a4,a5,1
80006b60:	800237b7          	lui	a5,0x80023
80006b64:	d8e7a223          	sw	a4,-636(a5) # 80022d84 <__stack_top+0xfffdbdf4>
/casa/workspace/Chronos-RISCV6/FreeRTOS/Debug/../FreeRTOS/chronos.c:320
        }
        API_Try2Send();
80006b68:	1a0000ef          	jal	ra,80006d08 <API_Try2Send>
/casa/workspace/Chronos-RISCV6/FreeRTOS/Debug/../FreeRTOS/chronos.c:322
    }
    vTaskExitCritical();
80006b6c:	d08fc0ef          	jal	ra,80003074 <vTaskExitCritical>
/casa/workspace/Chronos-RISCV6/FreeRTOS/Debug/../FreeRTOS/chronos.c:323
    return;
80006b70:	00000013          	nop
/casa/workspace/Chronos-RISCV6/FreeRTOS/Debug/../FreeRTOS/chronos.c:324
}
80006b74:	01c12083          	lw	ra,28(sp)
80006b78:	01812403          	lw	s0,24(sp)
80006b7c:	02010113          	addi	sp,sp,32
80006b80:	00008067          	ret

80006b84 <API_PrioritySend>:
API_PrioritySend():
/casa/workspace/Chronos-RISCV6/FreeRTOS/Debug/../FreeRTOS/chronos.c:327


void API_PrioritySend(unsigned int type, unsigned int slot){
80006b84:	fb010113          	addi	sp,sp,-80
80006b88:	04112623          	sw	ra,76(sp)
80006b8c:	04812423          	sw	s0,72(sp)
80006b90:	05010413          	addi	s0,sp,80
80006b94:	faa42e23          	sw	a0,-68(s0)
80006b98:	fab42c23          	sw	a1,-72(s0)
/casa/workspace/Chronos-RISCV6/FreeRTOS/Debug/../FreeRTOS/chronos.c:329
    unsigned int auxQ[PIPE_SIZE*2];
    unsigned int aux, i = 0;
80006b9c:	fe042623          	sw	zero,-20(s0)
/casa/workspace/Chronos-RISCV6/FreeRTOS/Debug/../FreeRTOS/chronos.c:331 (discriminator 1)
    do{
        aux = API_PopSendQueue();
80006ba0:	0c8000ef          	jal	ra,80006c68 <API_PopSendQueue>
80006ba4:	fea42423          	sw	a0,-24(s0)
/casa/workspace/Chronos-RISCV6/FreeRTOS/Debug/../FreeRTOS/chronos.c:332 (discriminator 1)
        auxQ[i] = aux;
80006ba8:	fec42783          	lw	a5,-20(s0)
80006bac:	00279793          	slli	a5,a5,0x2
80006bb0:	ff040713          	addi	a4,s0,-16
80006bb4:	00f707b3          	add	a5,a4,a5
80006bb8:	fe842703          	lw	a4,-24(s0)
80006bbc:	fce7ac23          	sw	a4,-40(a5)
/casa/workspace/Chronos-RISCV6/FreeRTOS/Debug/../FreeRTOS/chronos.c:333 (discriminator 1)
        i++;
80006bc0:	fec42783          	lw	a5,-20(s0)
80006bc4:	00178793          	addi	a5,a5,1
80006bc8:	fef42623          	sw	a5,-20(s0)
/casa/workspace/Chronos-RISCV6/FreeRTOS/Debug/../FreeRTOS/chronos.c:334 (discriminator 1)
    }while(aux != EMPTY);
80006bcc:	fe842703          	lw	a4,-24(s0)
80006bd0:	303007b7          	lui	a5,0x30300
80006bd4:	fcf716e3          	bne	a4,a5,80006ba0 <API_PrioritySend+0x1c>
/casa/workspace/Chronos-RISCV6/FreeRTOS/Debug/../FreeRTOS/chronos.c:335
    API_PushSendQueue(type+1, slot);
80006bd8:	fbc42783          	lw	a5,-68(s0)
80006bdc:	00178793          	addi	a5,a5,1 # 30300001 <RAM_SIZE+0x30280001>
80006be0:	fb842583          	lw	a1,-72(s0)
80006be4:	00078513          	mv	a0,a5
80006be8:	ed9ff0ef          	jal	ra,80006ac0 <API_PushSendQueue>
/casa/workspace/Chronos-RISCV6/FreeRTOS/Debug/../FreeRTOS/chronos.c:336
    i = 0;
80006bec:	fe042623          	sw	zero,-20(s0)
/casa/workspace/Chronos-RISCV6/FreeRTOS/Debug/../FreeRTOS/chronos.c:338
    do{
        aux = auxQ[i];
80006bf0:	fec42783          	lw	a5,-20(s0)
80006bf4:	00279793          	slli	a5,a5,0x2
80006bf8:	ff040713          	addi	a4,s0,-16
80006bfc:	00f707b3          	add	a5,a4,a5
80006c00:	fd87a783          	lw	a5,-40(a5)
80006c04:	fef42423          	sw	a5,-24(s0)
/casa/workspace/Chronos-RISCV6/FreeRTOS/Debug/../FreeRTOS/chronos.c:339
        if(aux != EMPTY)
80006c08:	fe842703          	lw	a4,-24(s0)
80006c0c:	303007b7          	lui	a5,0x30300
80006c10:	02f70663          	beq	a4,a5,80006c3c <API_PrioritySend+0xb8>
/casa/workspace/Chronos-RISCV6/FreeRTOS/Debug/../FreeRTOS/chronos.c:340
            API_PushSendQueue((aux & 0xFFFF0000), (aux & 0x0000FFFF));
80006c14:	fe842703          	lw	a4,-24(s0)
80006c18:	ffff07b7          	lui	a5,0xffff0
80006c1c:	00f776b3          	and	a3,a4,a5
80006c20:	fe842703          	lw	a4,-24(s0)
80006c24:	000107b7          	lui	a5,0x10
80006c28:	fff78793          	addi	a5,a5,-1 # ffff <HEAP_SIZE-0x1>
80006c2c:	00f777b3          	and	a5,a4,a5
80006c30:	00078593          	mv	a1,a5
80006c34:	00068513          	mv	a0,a3
80006c38:	e89ff0ef          	jal	ra,80006ac0 <API_PushSendQueue>
/casa/workspace/Chronos-RISCV6/FreeRTOS/Debug/../FreeRTOS/chronos.c:341
        i++;
80006c3c:	fec42783          	lw	a5,-20(s0)
80006c40:	00178793          	addi	a5,a5,1
80006c44:	fef42623          	sw	a5,-20(s0)
/casa/workspace/Chronos-RISCV6/FreeRTOS/Debug/../FreeRTOS/chronos.c:342
    }while(aux != EMPTY);
80006c48:	fe842703          	lw	a4,-24(s0)
80006c4c:	303007b7          	lui	a5,0x30300
80006c50:	faf710e3          	bne	a4,a5,80006bf0 <API_PrioritySend+0x6c>
/casa/workspace/Chronos-RISCV6/FreeRTOS/Debug/../FreeRTOS/chronos.c:343
    return;
80006c54:	00000013          	nop
/casa/workspace/Chronos-RISCV6/FreeRTOS/Debug/../FreeRTOS/chronos.c:344
}
80006c58:	04c12083          	lw	ra,76(sp)
80006c5c:	04812403          	lw	s0,72(sp)
80006c60:	05010113          	addi	sp,sp,80
80006c64:	00008067          	ret

80006c68 <API_PopSendQueue>:
API_PopSendQueue():
/casa/workspace/Chronos-RISCV6/FreeRTOS/Debug/../FreeRTOS/chronos.c:349


////////////////////////////////////////////////////////////
// Pushes one slot to the sending queue
unsigned int API_PopSendQueue(){
80006c68:	fe010113          	addi	sp,sp,-32
80006c6c:	00112e23          	sw	ra,28(sp)
80006c70:	00812c23          	sw	s0,24(sp)
80006c74:	02010413          	addi	s0,sp,32
/casa/workspace/Chronos-RISCV6/FreeRTOS/Debug/../FreeRTOS/chronos.c:351
    unsigned int element;
    vTaskEnterCritical();
80006c78:	bc0fc0ef          	jal	ra,80003038 <vTaskEnterCritical>
/casa/workspace/Chronos-RISCV6/FreeRTOS/Debug/../FreeRTOS/chronos.c:352
    if (SendingQueue_front == SendingQueue_tail){
80006c7c:	800237b7          	lui	a5,0x80023
80006c80:	d847a703          	lw	a4,-636(a5) # 80022d84 <__stack_top+0xfffdbdf4>
80006c84:	800237b7          	lui	a5,0x80023
80006c88:	b287a783          	lw	a5,-1240(a5) # 80022b28 <__stack_top+0xfffdbb98>
80006c8c:	00f71863          	bne	a4,a5,80006c9c <API_PopSendQueue+0x34>
/casa/workspace/Chronos-RISCV6/FreeRTOS/Debug/../FreeRTOS/chronos.c:353
        vTaskExitCritical();
80006c90:	be4fc0ef          	jal	ra,80003074 <vTaskExitCritical>
/casa/workspace/Chronos-RISCV6/FreeRTOS/Debug/../FreeRTOS/chronos.c:354
        return EMPTY;
80006c94:	303007b7          	lui	a5,0x30300
80006c98:	05c0006f          	j	80006cf4 <API_PopSendQueue+0x8c>
/casa/workspace/Chronos-RISCV6/FreeRTOS/Debug/../FreeRTOS/chronos.c:356
    } else {
        element = SendingQueue[SendingQueue_tail];
80006c9c:	800237b7          	lui	a5,0x80023
80006ca0:	b287a703          	lw	a4,-1240(a5) # 80022b28 <__stack_top+0xfffdbb98>
80006ca4:	800237b7          	lui	a5,0x80023
80006ca8:	00271713          	slli	a4,a4,0x2
80006cac:	b0878793          	addi	a5,a5,-1272 # 80022b08 <__stack_top+0xfffdbb78>
80006cb0:	00f707b3          	add	a5,a4,a5
80006cb4:	0007a783          	lw	a5,0(a5)
80006cb8:	fef42623          	sw	a5,-20(s0)
/casa/workspace/Chronos-RISCV6/FreeRTOS/Debug/../FreeRTOS/chronos.c:357
        if (SendingQueue_tail == (PIPE_SIZE*2)-1){
80006cbc:	800237b7          	lui	a5,0x80023
80006cc0:	b287a703          	lw	a4,-1240(a5) # 80022b28 <__stack_top+0xfffdbb98>
80006cc4:	00700793          	li	a5,7
80006cc8:	00f71863          	bne	a4,a5,80006cd8 <API_PopSendQueue+0x70>
/casa/workspace/Chronos-RISCV6/FreeRTOS/Debug/../FreeRTOS/chronos.c:358
            SendingQueue_tail = 0;
80006ccc:	800237b7          	lui	a5,0x80023
80006cd0:	b207a423          	sw	zero,-1240(a5) # 80022b28 <__stack_top+0xfffdbb98>
80006cd4:	0180006f          	j	80006cec <API_PopSendQueue+0x84>
/casa/workspace/Chronos-RISCV6/FreeRTOS/Debug/../FreeRTOS/chronos.c:360
        } else {
            SendingQueue_tail++;
80006cd8:	800237b7          	lui	a5,0x80023
80006cdc:	b287a783          	lw	a5,-1240(a5) # 80022b28 <__stack_top+0xfffdbb98>
80006ce0:	00178713          	addi	a4,a5,1
80006ce4:	800237b7          	lui	a5,0x80023
80006ce8:	b2e7a423          	sw	a4,-1240(a5) # 80022b28 <__stack_top+0xfffdbb98>
/casa/workspace/Chronos-RISCV6/FreeRTOS/Debug/../FreeRTOS/chronos.c:362
        }
        vTaskExitCritical();
80006cec:	b88fc0ef          	jal	ra,80003074 <vTaskExitCritical>
/casa/workspace/Chronos-RISCV6/FreeRTOS/Debug/../FreeRTOS/chronos.c:363
        return element;
80006cf0:	fec42783          	lw	a5,-20(s0)
/casa/workspace/Chronos-RISCV6/FreeRTOS/Debug/../FreeRTOS/chronos.c:365
    }
}
80006cf4:	00078513          	mv	a0,a5
80006cf8:	01c12083          	lw	ra,28(sp)
80006cfc:	01812403          	lw	s0,24(sp)
80006d00:	02010113          	addi	sp,sp,32
80006d04:	00008067          	ret

80006d08 <API_Try2Send>:
API_Try2Send():
/casa/workspace/Chronos-RISCV6/FreeRTOS/Debug/../FreeRTOS/chronos.c:369

////////////////////////////////////////////////////////////
// Try to send some packet! 
void API_Try2Send(){
80006d08:	fe010113          	addi	sp,sp,-32
80006d0c:	00112e23          	sw	ra,28(sp)
80006d10:	00812c23          	sw	s0,24(sp)
80006d14:	02010413          	addi	s0,sp,32
/casa/workspace/Chronos-RISCV6/FreeRTOS/Debug/../FreeRTOS/chronos.c:373
    unsigned int toSend, taskID, slot, i;
    // Try to send the packet to NI if it's available
    // Checks if the NI is available to transmitt something
    if (HW_get_32bit_reg(NI_TX) == NI_STATUS_OFF){
80006d18:	500007b7          	lui	a5,0x50000
80006d1c:	00878513          	addi	a0,a5,8 # 50000008 <RAM_SIZE+0x4ff80008>
80006d20:	a3cfa0ef          	jal	ra,80000f5c <HW_get_32bit_reg>
80006d24:	00050713          	mv	a4,a0
80006d28:	0ff00793          	li	a5,255
80006d2c:	1ef71a63          	bne	a4,a5,80006f20 <API_Try2Send+0x218>
/casa/workspace/Chronos-RISCV6/FreeRTOS/Debug/../FreeRTOS/chronos.c:374
        vTaskEnterCritical();
80006d30:	b08fc0ef          	jal	ra,80003038 <vTaskEnterCritical>
/casa/workspace/Chronos-RISCV6/FreeRTOS/Debug/../FreeRTOS/chronos.c:375
        toSend = API_PopSendQueue();
80006d34:	f35ff0ef          	jal	ra,80006c68 <API_PopSendQueue>
80006d38:	fea42623          	sw	a0,-20(s0)
/casa/workspace/Chronos-RISCV6/FreeRTOS/Debug/../FreeRTOS/chronos.c:376
        if (toSend != EMPTY){
80006d3c:	fec42703          	lw	a4,-20(s0)
80006d40:	303007b7          	lui	a5,0x30300
80006d44:	1cf70663          	beq	a4,a5,80006f10 <API_Try2Send+0x208>
/casa/workspace/Chronos-RISCV6/FreeRTOS/Debug/../FreeRTOS/chronos.c:377
            SendingSlot = toSend;
80006d48:	800227b7          	lui	a5,0x80022
80006d4c:	fec42703          	lw	a4,-20(s0)
80006d50:	78e7ac23          	sw	a4,1944(a5) # 80022798 <__stack_top+0xfffdb808>
/casa/workspace/Chronos-RISCV6/FreeRTOS/Debug/../FreeRTOS/chronos.c:378
            if((toSend & 0xFFFF0000) == SERVICE){
80006d54:	fec42703          	lw	a4,-20(s0)
80006d58:	ffff07b7          	lui	a5,0xffff0
80006d5c:	00f77733          	and	a4,a4,a5
80006d60:	101007b7          	lui	a5,0x10100
80006d64:	04f71063          	bne	a4,a5,80006da4 <API_Try2Send+0x9c>
/casa/workspace/Chronos-RISCV6/FreeRTOS/Debug/../FreeRTOS/chronos.c:379
                SendRaw((unsigned int)&ServicePipe[toSend & 0x0000FFFF].header);
80006d68:	fec42703          	lw	a4,-20(s0)
80006d6c:	000107b7          	lui	a5,0x10
80006d70:	fff78793          	addi	a5,a5,-1 # ffff <HEAP_SIZE-0x1>
80006d74:	00f77733          	and	a4,a4,a5
80006d78:	00070793          	mv	a5,a4
80006d7c:	00479793          	slli	a5,a5,0x4
80006d80:	40e787b3          	sub	a5,a5,a4
80006d84:	00279793          	slli	a5,a5,0x2
80006d88:	80022737          	lui	a4,0x80022
80006d8c:	79c70713          	addi	a4,a4,1948 # 8002279c <__stack_top+0xfffdb80c>
80006d90:	00e787b3          	add	a5,a5,a4
80006d94:	00878793          	addi	a5,a5,8
80006d98:	00078513          	mv	a0,a5
80006d9c:	885ff0ef          	jal	ra,80006620 <SendRaw>
80006da0:	15c0006f          	j	80006efc <API_Try2Send+0x1f4>
/casa/workspace/Chronos-RISCV6/FreeRTOS/Debug/../FreeRTOS/chronos.c:381
            }
            else if((toSend & 0xFFFF0000) == MESSAGE){
80006da4:	fec42703          	lw	a4,-20(s0)
80006da8:	ffff07b7          	lui	a5,0xffff0
80006dac:	00f77733          	and	a4,a4,a5
80006db0:	202007b7          	lui	a5,0x20200
80006db4:	0cf71663          	bne	a4,a5,80006e80 <API_Try2Send+0x178>
/casa/workspace/Chronos-RISCV6/FreeRTOS/Debug/../FreeRTOS/chronos.c:382
                taskID = (toSend & 0x0000FF00) >> 8;
80006db8:	fec42783          	lw	a5,-20(s0)
80006dbc:	0087d793          	srli	a5,a5,0x8
80006dc0:	0ff7f793          	andi	a5,a5,255
80006dc4:	fef42423          	sw	a5,-24(s0)
/casa/workspace/Chronos-RISCV6/FreeRTOS/Debug/../FreeRTOS/chronos.c:383
                slot = toSend & 0x000000FF;
80006dc8:	fec42783          	lw	a5,-20(s0)
80006dcc:	0ff7f793          	andi	a5,a5,255
80006dd0:	fef42223          	sw	a5,-28(s0)
/casa/workspace/Chronos-RISCV6/FreeRTOS/Debug/../FreeRTOS/chronos.c:384
                SendRaw((unsigned int)&TaskList[taskID].MessagePipe[slot].header);
80006dd4:	fe442703          	lw	a4,-28(s0)
80006dd8:	00070793          	mv	a5,a4
80006ddc:	00379793          	slli	a5,a5,0x3
80006de0:	00e787b3          	add	a5,a5,a4
80006de4:	00679793          	slli	a5,a5,0x6
80006de8:	fe842683          	lw	a3,-24(s0)
80006dec:	00001737          	lui	a4,0x1
80006df0:	98470713          	addi	a4,a4,-1660 # 984 <HEAP_SIZE-0xf67c>
80006df4:	02e68733          	mul	a4,a3,a4
80006df8:	00e787b3          	add	a5,a5,a4
80006dfc:	03078713          	addi	a4,a5,48 # 20200030 <RAM_SIZE+0x20180030>
80006e00:	800237b7          	lui	a5,0x80023
80006e04:	65878793          	addi	a5,a5,1624 # 80023658 <__stack_top+0xfffdc6c8>
80006e08:	00f707b3          	add	a5,a4,a5
80006e0c:	00878793          	addi	a5,a5,8
80006e10:	00078513          	mv	a0,a5
80006e14:	80dff0ef          	jal	ra,80006620 <SendRaw>
/casa/workspace/Chronos-RISCV6/FreeRTOS/Debug/../FreeRTOS/chronos.c:387

                //for(i=0; i < NUM_MAX_TASKS; i++){
                    if(TaskList[taskID].status == TASK_SLOT_SUSPENDED){
80006e18:	800237b7          	lui	a5,0x80023
80006e1c:	fe842683          	lw	a3,-24(s0)
80006e20:	00001737          	lui	a4,0x1
80006e24:	98470713          	addi	a4,a4,-1660 # 984 <HEAP_SIZE-0xf67c>
80006e28:	02e68733          	mul	a4,a3,a4
80006e2c:	65878793          	addi	a5,a5,1624 # 80023658 <__stack_top+0xfffdc6c8>
80006e30:	00f707b3          	add	a5,a4,a5
80006e34:	0007a703          	lw	a4,0(a5)
80006e38:	00400793          	li	a5,4
80006e3c:	0cf71063          	bne	a4,a5,80006efc <API_Try2Send+0x1f4>
/casa/workspace/Chronos-RISCV6/FreeRTOS/Debug/../FreeRTOS/chronos.c:388
                        printsv("Restaurando taskSlot ", i);
80006e40:	fe042783          	lw	a5,-32(s0)
80006e44:	00078593          	mv	a1,a5
80006e48:	800097b7          	lui	a5,0x80009
80006e4c:	f6c78513          	addi	a0,a5,-148 # 80008f6c <__stack_top+0xfffc1fdc>
80006e50:	ed4ff0ef          	jal	ra,80006524 <printsv>
/casa/workspace/Chronos-RISCV6/FreeRTOS/Debug/../FreeRTOS/chronos.c:389
                        vTaskResume( TaskList[taskID].TaskHandler );
80006e54:	800237b7          	lui	a5,0x80023
80006e58:	fe842683          	lw	a3,-24(s0)
80006e5c:	65878713          	addi	a4,a5,1624 # 80023658 <__stack_top+0xfffdc6c8>
80006e60:	000017b7          	lui	a5,0x1
80006e64:	98478793          	addi	a5,a5,-1660 # 984 <HEAP_SIZE-0xf67c>
80006e68:	02f687b3          	mul	a5,a3,a5
80006e6c:	00f707b3          	add	a5,a4,a5
80006e70:	0187a783          	lw	a5,24(a5)
80006e74:	00078513          	mv	a0,a5
80006e78:	db8fb0ef          	jal	ra,80002430 <vTaskResume>
80006e7c:	0800006f          	j	80006efc <API_Try2Send+0x1f4>
/casa/workspace/Chronos-RISCV6/FreeRTOS/Debug/../FreeRTOS/chronos.c:393
                    }
                //}
            }
            else if((toSend & 0xFFFF0000) == THERMAL){
80006e80:	fec42703          	lw	a4,-20(s0)
80006e84:	ffff07b7          	lui	a5,0xffff0
80006e88:	00f77733          	and	a4,a4,a5
80006e8c:	404007b7          	lui	a5,0x40400
80006e90:	02f71263          	bne	a4,a5,80006eb4 <API_Try2Send+0x1ac>
/casa/workspace/Chronos-RISCV6/FreeRTOS/Debug/../FreeRTOS/chronos.c:394
                SendingSlot = THERMAL;
80006e94:	800227b7          	lui	a5,0x80022
80006e98:	40400737          	lui	a4,0x40400
80006e9c:	78e7ac23          	sw	a4,1944(a5) # 80022798 <__stack_top+0xfffdb808>
/casa/workspace/Chronos-RISCV6/FreeRTOS/Debug/../FreeRTOS/chronos.c:395
                SendRaw((unsigned int)&ThermalPacket.header);
80006ea0:	800237b7          	lui	a5,0x80023
80006ea4:	b3478793          	addi	a5,a5,-1228 # 80022b34 <__stack_top+0xfffdbba4>
80006ea8:	00078513          	mv	a0,a5
80006eac:	f74ff0ef          	jal	ra,80006620 <SendRaw>
80006eb0:	04c0006f          	j	80006efc <API_Try2Send+0x1f4>
/casa/workspace/Chronos-RISCV6/FreeRTOS/Debug/../FreeRTOS/chronos.c:397
            }
            else if((toSend & 0xFFFF0000) == SYS_MESSAGE){
80006eb4:	fec42703          	lw	a4,-20(s0)
80006eb8:	ffff07b7          	lui	a5,0xffff0
80006ebc:	00f77733          	and	a4,a4,a5
80006ec0:	505007b7          	lui	a5,0x50500
80006ec4:	02f71263          	bne	a4,a5,80006ee8 <API_Try2Send+0x1e0>
/casa/workspace/Chronos-RISCV6/FreeRTOS/Debug/../FreeRTOS/chronos.c:398
                SendingSlot = SYS_MESSAGE;
80006ec8:	800227b7          	lui	a5,0x80022
80006ecc:	50500737          	lui	a4,0x50500
80006ed0:	78e7ac23          	sw	a4,1944(a5) # 80022798 <__stack_top+0xfffdb808>
/casa/workspace/Chronos-RISCV6/FreeRTOS/Debug/../FreeRTOS/chronos.c:399
                SendRaw((unsigned int)&ServiceMessage.header);
80006ed4:	800237b7          	lui	a5,0x80023
80006ed8:	89c78793          	addi	a5,a5,-1892 # 8002289c <__stack_top+0xfffdb90c>
80006edc:	00078513          	mv	a0,a5
80006ee0:	f40ff0ef          	jal	ra,80006620 <SendRaw>
80006ee4:	0180006f          	j	80006efc <API_Try2Send+0x1f4>
/casa/workspace/Chronos-RISCV6/FreeRTOS/Debug/../FreeRTOS/chronos.c:402
            } 
            else{
                printsv("ERROR! desconhecido!! ", toSend);
80006ee8:	fec42783          	lw	a5,-20(s0)
80006eec:	00078593          	mv	a1,a5
80006ef0:	800097b7          	lui	a5,0x80009
80006ef4:	f8478513          	addi	a0,a5,-124 # 80008f84 <__stack_top+0xfffc1ff4>
80006ef8:	e2cff0ef          	jal	ra,80006524 <printsv>
/casa/workspace/Chronos-RISCV6/FreeRTOS/Debug/../FreeRTOS/chronos.c:404
            }
            prints("API_Try2Send success!\n");
80006efc:	800097b7          	lui	a5,0x80009
80006f00:	f9c78513          	addi	a0,a5,-100 # 80008f9c <__stack_top+0xfffc200c>
80006f04:	d74ff0ef          	jal	ra,80006478 <prints>
/casa/workspace/Chronos-RISCV6/FreeRTOS/Debug/../FreeRTOS/chronos.c:406

        vTaskExitCritical();
80006f08:	96cfc0ef          	jal	ra,80003074 <vTaskExitCritical>
/casa/workspace/Chronos-RISCV6/FreeRTOS/Debug/../FreeRTOS/chronos.c:413
            prints("API_Try2Send failed - empty SendQueue!\n");
        }
    } else {
        prints("API_Try2Send failed - NI_TX occupied!\n");
    }
    return;
80006f0c:	0240006f          	j	80006f30 <API_Try2Send+0x228>
/casa/workspace/Chronos-RISCV6/FreeRTOS/Debug/../FreeRTOS/chronos.c:408
            prints("API_Try2Send failed - empty SendQueue!\n");
80006f10:	800097b7          	lui	a5,0x80009
80006f14:	fb478513          	addi	a0,a5,-76 # 80008fb4 <__stack_top+0xfffc2024>
80006f18:	d60ff0ef          	jal	ra,80006478 <prints>
/casa/workspace/Chronos-RISCV6/FreeRTOS/Debug/../FreeRTOS/chronos.c:413
    return;
80006f1c:	0140006f          	j	80006f30 <API_Try2Send+0x228>
/casa/workspace/Chronos-RISCV6/FreeRTOS/Debug/../FreeRTOS/chronos.c:411
        prints("API_Try2Send failed - NI_TX occupied!\n");
80006f20:	800097b7          	lui	a5,0x80009
80006f24:	fdc78513          	addi	a0,a5,-36 # 80008fdc <__stack_top+0xfffc204c>
80006f28:	d50ff0ef          	jal	ra,80006478 <prints>
/casa/workspace/Chronos-RISCV6/FreeRTOS/Debug/../FreeRTOS/chronos.c:413
    return;
80006f2c:	00000013          	nop
/casa/workspace/Chronos-RISCV6/FreeRTOS/Debug/../FreeRTOS/chronos.c:414
}
80006f30:	01c12083          	lw	ra,28(sp)
80006f34:	01812403          	lw	s0,24(sp)
80006f38:	02010113          	addi	sp,sp,32
80006f3c:	00008067          	ret

80006f40 <API_AckTaskAllocation>:
API_AckTaskAllocation():
/casa/workspace/Chronos-RISCV6/FreeRTOS/Debug/../FreeRTOS/chronos.c:416

void API_AckTaskAllocation(unsigned int task_id, unsigned int app_id){
80006f40:	fd010113          	addi	sp,sp,-48
80006f44:	02112623          	sw	ra,44(sp)
80006f48:	02812423          	sw	s0,40(sp)
80006f4c:	03010413          	addi	s0,sp,48
80006f50:	fca42e23          	sw	a0,-36(s0)
80006f54:	fcb42c23          	sw	a1,-40(s0)
/casa/workspace/Chronos-RISCV6/FreeRTOS/Debug/../FreeRTOS/chronos.c:419
    unsigned int mySlot;
    do{
        mySlot = API_GetServiceSlot();
80006f58:	f38fe0ef          	jal	ra,80005690 <API_GetServiceSlot>
80006f5c:	fea42623          	sw	a0,-20(s0)
/casa/workspace/Chronos-RISCV6/FreeRTOS/Debug/../FreeRTOS/chronos.c:420
        if(mySlot == PIPE_FULL){
80006f60:	fec42703          	lw	a4,-20(s0)
80006f64:	fdfe07b7          	lui	a5,0xfdfe0
80006f68:	dfd78793          	addi	a5,a5,-515 # fdfdfdfd <__stack_top+0x7df98e6d>
80006f6c:	00f71a63          	bne	a4,a5,80006f80 <API_AckTaskAllocation+0x40>
/casa/workspace/Chronos-RISCV6/FreeRTOS/Debug/../FreeRTOS/chronos.c:422
            // Runs the NI Handler to send/receive packets, opening space in the PIPE
            prints("Estou preso aqui1...\n");
80006f70:	800097b7          	lui	a5,0x80009
80006f74:	00478513          	addi	a0,a5,4 # 80009004 <__stack_top+0xfffc2074>
80006f78:	d00ff0ef          	jal	ra,80006478 <prints>
/casa/workspace/Chronos-RISCV6/FreeRTOS/Debug/../FreeRTOS/chronos.c:423
            API_NI_Handler();
80006f7c:	451000ef          	jal	ra,80007bcc <API_NI_Handler>
/casa/workspace/Chronos-RISCV6/FreeRTOS/Debug/../FreeRTOS/chronos.c:425
        }
    }while(mySlot == PIPE_FULL);
80006f80:	fec42703          	lw	a4,-20(s0)
80006f84:	fdfe07b7          	lui	a5,0xfdfe0
80006f88:	dfd78793          	addi	a5,a5,-515 # fdfdfdfd <__stack_top+0x7df98e6d>
80006f8c:	fcf706e3          	beq	a4,a5,80006f58 <API_AckTaskAllocation+0x18>
/casa/workspace/Chronos-RISCV6/FreeRTOS/Debug/../FreeRTOS/chronos.c:427

    ServicePipe[mySlot].holder = PIPE_SYS_HOLDER;
80006f90:	800227b7          	lui	a5,0x80022
80006f94:	fec42703          	lw	a4,-20(s0)
80006f98:	79c78693          	addi	a3,a5,1948 # 8002279c <__stack_top+0xfffdb80c>
80006f9c:	00070793          	mv	a5,a4
80006fa0:	00479793          	slli	a5,a5,0x4
80006fa4:	40e787b3          	sub	a5,a5,a4
80006fa8:	00279793          	slli	a5,a5,0x2
80006fac:	00f687b3          	add	a5,a3,a5
80006fb0:	feff0737          	lui	a4,0xfeff0
80006fb4:	efe70713          	addi	a4,a4,-258 # fefefefe <__stack_top+0x7efa8f6e>
80006fb8:	00e7a223          	sw	a4,4(a5)
/casa/workspace/Chronos-RISCV6/FreeRTOS/Debug/../FreeRTOS/chronos.c:429

    ServicePipe[mySlot].header.header           = makeAddress(0, 0);
80006fbc:	00000593          	li	a1,0
80006fc0:	00000513          	li	a0,0
80006fc4:	abdff0ef          	jal	ra,80006a80 <makeAddress>
80006fc8:	00050613          	mv	a2,a0
80006fcc:	800227b7          	lui	a5,0x80022
80006fd0:	fec42703          	lw	a4,-20(s0)
80006fd4:	79c78693          	addi	a3,a5,1948 # 8002279c <__stack_top+0xfffdb80c>
80006fd8:	00070793          	mv	a5,a4
80006fdc:	00479793          	slli	a5,a5,0x4
80006fe0:	40e787b3          	sub	a5,a5,a4
80006fe4:	00279793          	slli	a5,a5,0x2
80006fe8:	00f687b3          	add	a5,a3,a5
80006fec:	00c7a423          	sw	a2,8(a5)
/casa/workspace/Chronos-RISCV6/FreeRTOS/Debug/../FreeRTOS/chronos.c:430
    ServicePipe[mySlot].header.payload_size     = PKT_SERVICE_SIZE;
80006ff0:	800227b7          	lui	a5,0x80022
80006ff4:	fec42703          	lw	a4,-20(s0)
80006ff8:	79c78693          	addi	a3,a5,1948 # 8002279c <__stack_top+0xfffdb80c>
80006ffc:	00070793          	mv	a5,a4
80007000:	00479793          	slli	a5,a5,0x4
80007004:	40e787b3          	sub	a5,a5,a4
80007008:	00279793          	slli	a5,a5,0x2
8000700c:	00f687b3          	add	a5,a3,a5
80007010:	00b00713          	li	a4,11
80007014:	00e7a623          	sw	a4,12(a5)
/casa/workspace/Chronos-RISCV6/FreeRTOS/Debug/../FreeRTOS/chronos.c:431
    ServicePipe[mySlot].header.service          = TASK_ALLOCATION_SUCCESS;
80007018:	800227b7          	lui	a5,0x80022
8000701c:	fec42703          	lw	a4,-20(s0)
80007020:	79c78693          	addi	a3,a5,1948 # 8002279c <__stack_top+0xfffdb80c>
80007024:	00070793          	mv	a5,a4
80007028:	00479793          	slli	a5,a5,0x4
8000702c:	40e787b3          	sub	a5,a5,a4
80007030:	00279793          	slli	a5,a5,0x2
80007034:	00f687b3          	add	a5,a3,a5
80007038:	03500713          	li	a4,53
8000703c:	00e7a823          	sw	a4,16(a5)
/casa/workspace/Chronos-RISCV6/FreeRTOS/Debug/../FreeRTOS/chronos.c:432
    ServicePipe[mySlot].header.task_id          = task_id;
80007040:	800227b7          	lui	a5,0x80022
80007044:	fec42703          	lw	a4,-20(s0)
80007048:	79c78693          	addi	a3,a5,1948 # 8002279c <__stack_top+0xfffdb80c>
8000704c:	00070793          	mv	a5,a4
80007050:	00479793          	slli	a5,a5,0x4
80007054:	40e787b3          	sub	a5,a5,a4
80007058:	00279793          	slli	a5,a5,0x2
8000705c:	00f687b3          	add	a5,a3,a5
80007060:	fdc42703          	lw	a4,-36(s0)
80007064:	00e7aa23          	sw	a4,20(a5)
/casa/workspace/Chronos-RISCV6/FreeRTOS/Debug/../FreeRTOS/chronos.c:433
    ServicePipe[mySlot].header.task_app_id      = app_id;
80007068:	800227b7          	lui	a5,0x80022
8000706c:	fec42703          	lw	a4,-20(s0)
80007070:	79c78693          	addi	a3,a5,1948 # 8002279c <__stack_top+0xfffdb80c>
80007074:	00070793          	mv	a5,a4
80007078:	00479793          	slli	a5,a5,0x4
8000707c:	40e787b3          	sub	a5,a5,a4
80007080:	00279793          	slli	a5,a5,0x2
80007084:	00f687b3          	add	a5,a3,a5
80007088:	fd842703          	lw	a4,-40(s0)
8000708c:	02e7a223          	sw	a4,36(a5)
/casa/workspace/Chronos-RISCV6/FreeRTOS/Debug/../FreeRTOS/chronos.c:435

    API_PushSendQueue(SERVICE, mySlot);
80007090:	fec42583          	lw	a1,-20(s0)
80007094:	10100537          	lui	a0,0x10100
80007098:	a29ff0ef          	jal	ra,80006ac0 <API_PushSendQueue>
/casa/workspace/Chronos-RISCV6/FreeRTOS/Debug/../FreeRTOS/chronos.c:436
    return;    
8000709c:	00000013          	nop
/casa/workspace/Chronos-RISCV6/FreeRTOS/Debug/../FreeRTOS/chronos.c:437
}
800070a0:	02c12083          	lw	ra,44(sp)
800070a4:	02812403          	lw	s0,40(sp)
800070a8:	03010113          	addi	sp,sp,48
800070ac:	00008067          	ret

800070b0 <API_SendMessage>:
API_SendMessage():
/casa/workspace/Chronos-RISCV6/FreeRTOS/Debug/../FreeRTOS/chronos.c:439

void API_SendMessage(unsigned int addr, unsigned int taskID){
800070b0:	fc010113          	addi	sp,sp,-64
800070b4:	02112e23          	sw	ra,60(sp)
800070b8:	02812c23          	sw	s0,56(sp)
800070bc:	04010413          	addi	s0,sp,64
800070c0:	fca42623          	sw	a0,-52(s0)
800070c4:	fcb42423          	sw	a1,-56(s0)
/casa/workspace/Chronos-RISCV6/FreeRTOS/Debug/../FreeRTOS/chronos.c:444
    unsigned int mySlot, slot, taskSlot;
    unsigned int i;
    Message *theMessage;
    do{
        vTaskEnterCritical();
800070c8:	f71fb0ef          	jal	ra,80003038 <vTaskEnterCritical>
/casa/workspace/Chronos-RISCV6/FreeRTOS/Debug/../FreeRTOS/chronos.c:445
        mySlot = API_GetMessageSlot();
800070cc:	bc4fe0ef          	jal	ra,80005490 <API_GetMessageSlot>
800070d0:	fea42423          	sw	a0,-24(s0)
/casa/workspace/Chronos-RISCV6/FreeRTOS/Debug/../FreeRTOS/chronos.c:446
        if(mySlot == PIPE_FULL){
800070d4:	fe842703          	lw	a4,-24(s0)
800070d8:	fdfe07b7          	lui	a5,0xfdfe0
800070dc:	dfd78793          	addi	a5,a5,-515 # fdfdfdfd <__stack_top+0x7df98e6d>
800070e0:	06f71463          	bne	a4,a5,80007148 <API_SendMessage+0x98>
/casa/workspace/Chronos-RISCV6/FreeRTOS/Debug/../FreeRTOS/chronos.c:448
            // Runs the NI Handler to send/receive packets, opening space in the PIPE
            prints("Estou preso aqui2...\n");
800070e4:	800097b7          	lui	a5,0x80009
800070e8:	01c78513          	addi	a0,a5,28 # 8000901c <__stack_top+0xfffc208c>
800070ec:	b8cff0ef          	jal	ra,80006478 <prints>
/casa/workspace/Chronos-RISCV6/FreeRTOS/Debug/../FreeRTOS/chronos.c:450
            //API_NI_Handler();
            taskSlot = API_GetCurrentTaskSlot();
800070f0:	a5dfd0ef          	jal	ra,80004b4c <API_GetCurrentTaskSlot>
800070f4:	fea42223          	sw	a0,-28(s0)
/casa/workspace/Chronos-RISCV6/FreeRTOS/Debug/../FreeRTOS/chronos.c:451
            TaskList[taskSlot].status = TASK_SLOT_SUSPENDED;
800070f8:	800237b7          	lui	a5,0x80023
800070fc:	fe442683          	lw	a3,-28(s0)
80007100:	00001737          	lui	a4,0x1
80007104:	98470713          	addi	a4,a4,-1660 # 984 <HEAP_SIZE-0xf67c>
80007108:	02e68733          	mul	a4,a3,a4
8000710c:	65878793          	addi	a5,a5,1624 # 80023658 <__stack_top+0xfffdc6c8>
80007110:	00f707b3          	add	a5,a4,a5
80007114:	00400713          	li	a4,4
80007118:	00e7a023          	sw	a4,0(a5)
/casa/workspace/Chronos-RISCV6/FreeRTOS/Debug/../FreeRTOS/chronos.c:452
            vTaskExitCritical();
8000711c:	f59fb0ef          	jal	ra,80003074 <vTaskExitCritical>
/casa/workspace/Chronos-RISCV6/FreeRTOS/Debug/../FreeRTOS/chronos.c:453
            vTaskSuspend( TaskList[taskSlot].TaskHandler );
80007120:	800237b7          	lui	a5,0x80023
80007124:	fe442683          	lw	a3,-28(s0)
80007128:	65878713          	addi	a4,a5,1624 # 80023658 <__stack_top+0xfffdc6c8>
8000712c:	000017b7          	lui	a5,0x1
80007130:	98478793          	addi	a5,a5,-1660 # 984 <HEAP_SIZE-0xf67c>
80007134:	02f687b3          	mul	a5,a3,a5
80007138:	00f707b3          	add	a5,a4,a5
8000713c:	0187a783          	lw	a5,24(a5)
80007140:	00078513          	mv	a0,a5
80007144:	964fb0ef          	jal	ra,800022a8 <vTaskSuspend>
/casa/workspace/Chronos-RISCV6/FreeRTOS/Debug/../FreeRTOS/chronos.c:455
        }
    }while(mySlot == PIPE_FULL);
80007148:	fe842703          	lw	a4,-24(s0)
8000714c:	fdfe07b7          	lui	a5,0xfdfe0
80007150:	dfd78793          	addi	a5,a5,-515 # fdfdfdfd <__stack_top+0x7df98e6d>
80007154:	f6f70ae3          	beq	a4,a5,800070c8 <API_SendMessage+0x18>
/casa/workspace/Chronos-RISCV6/FreeRTOS/Debug/../FreeRTOS/chronos.c:457
    
    theMessage = addr;
80007158:	fcc42783          	lw	a5,-52(s0)
8000715c:	fef42023          	sw	a5,-32(s0)
/casa/workspace/Chronos-RISCV6/FreeRTOS/Debug/../FreeRTOS/chronos.c:459

    taskSlot = (mySlot & 0x0000FF00) >> 8;//API_GetCurrentTaskSlot();
80007160:	fe842783          	lw	a5,-24(s0)
80007164:	0087d793          	srli	a5,a5,0x8
80007168:	0ff7f793          	andi	a5,a5,255
8000716c:	fef42223          	sw	a5,-28(s0)
/casa/workspace/Chronos-RISCV6/FreeRTOS/Debug/../FreeRTOS/chronos.c:460
    slot = mySlot & 0x000000FF;
80007170:	fe842783          	lw	a5,-24(s0)
80007174:	0ff7f793          	andi	a5,a5,255
80007178:	fcf42e23          	sw	a5,-36(s0)
/casa/workspace/Chronos-RISCV6/FreeRTOS/Debug/../FreeRTOS/chronos.c:461
    printsv("taskSlot: ", taskSlot);
8000717c:	fe442783          	lw	a5,-28(s0)
80007180:	00078593          	mv	a1,a5
80007184:	800097b7          	lui	a5,0x80009
80007188:	03478513          	addi	a0,a5,52 # 80009034 <__stack_top+0xfffc20a4>
8000718c:	b98ff0ef          	jal	ra,80006524 <printsv>
/casa/workspace/Chronos-RISCV6/FreeRTOS/Debug/../FreeRTOS/chronos.c:462
    printsvsv("Adding a msg to task ", taskID, " in the PIPE slot ", mySlot);
80007190:	fc842703          	lw	a4,-56(s0)
80007194:	fe842783          	lw	a5,-24(s0)
80007198:	00078693          	mv	a3,a5
8000719c:	800097b7          	lui	a5,0x80009
800071a0:	04078613          	addi	a2,a5,64 # 80009040 <__stack_top+0xfffc20b0>
800071a4:	00070593          	mv	a1,a4
800071a8:	800097b7          	lui	a5,0x80009
800071ac:	05478513          	addi	a0,a5,84 # 80009054 <__stack_top+0xfffc20c4>
800071b0:	bbcff0ef          	jal	ra,8000656c <printsvsv>
/casa/workspace/Chronos-RISCV6/FreeRTOS/Debug/../FreeRTOS/chronos.c:463
    printsv("from app: ", TaskList[taskSlot].AppID);
800071b4:	800237b7          	lui	a5,0x80023
800071b8:	fe442683          	lw	a3,-28(s0)
800071bc:	65878713          	addi	a4,a5,1624 # 80023658 <__stack_top+0xfffdc6c8>
800071c0:	000017b7          	lui	a5,0x1
800071c4:	98478793          	addi	a5,a5,-1660 # 984 <HEAP_SIZE-0xf67c>
800071c8:	02f687b3          	mul	a5,a3,a5
800071cc:	00f707b3          	add	a5,a4,a5
800071d0:	0147a783          	lw	a5,20(a5)
800071d4:	00078593          	mv	a1,a5
800071d8:	800097b7          	lui	a5,0x80009
800071dc:	06c78513          	addi	a0,a5,108 # 8000906c <__stack_top+0xfffc20dc>
800071e0:	b44ff0ef          	jal	ra,80006524 <printsv>
/casa/workspace/Chronos-RISCV6/FreeRTOS/Debug/../FreeRTOS/chronos.c:466
    //MessagePipe[mySlot].holder = taskSlot;

    TaskList[taskSlot].MessagePipe[slot].header.header           = TaskList[taskSlot].TasksMap[taskID];
800071e4:	80023737          	lui	a4,0x80023
800071e8:	fe442683          	lw	a3,-28(s0)
800071ec:	26100793          	li	a5,609
800071f0:	02f686b3          	mul	a3,a3,a5
800071f4:	fc842783          	lw	a5,-56(s0)
800071f8:	00f687b3          	add	a5,a3,a5
800071fc:	25478793          	addi	a5,a5,596
80007200:	65870713          	addi	a4,a4,1624 # 80023658 <__stack_top+0xfffdc6c8>
80007204:	00279793          	slli	a5,a5,0x2
80007208:	00f707b3          	add	a5,a4,a5
8000720c:	00c7a683          	lw	a3,12(a5)
80007210:	800237b7          	lui	a5,0x80023
80007214:	fdc42703          	lw	a4,-36(s0)
80007218:	fe442583          	lw	a1,-28(s0)
8000721c:	65878613          	addi	a2,a5,1624 # 80023658 <__stack_top+0xfffdc6c8>
80007220:	00070793          	mv	a5,a4
80007224:	00379793          	slli	a5,a5,0x3
80007228:	00e787b3          	add	a5,a5,a4
8000722c:	00679793          	slli	a5,a5,0x6
80007230:	00001737          	lui	a4,0x1
80007234:	98470713          	addi	a4,a4,-1660 # 984 <HEAP_SIZE-0xf67c>
80007238:	02e58733          	mul	a4,a1,a4
8000723c:	00e787b3          	add	a5,a5,a4
80007240:	00f607b3          	add	a5,a2,a5
80007244:	02d7ac23          	sw	a3,56(a5)
/casa/workspace/Chronos-RISCV6/FreeRTOS/Debug/../FreeRTOS/chronos.c:467
    TaskList[taskSlot].MessagePipe[slot].header.payload_size     = PKT_SERVICE_SIZE + theMessage->length + 1;
80007248:	fe042783          	lw	a5,-32(s0)
8000724c:	0007a783          	lw	a5,0(a5)
80007250:	00c78693          	addi	a3,a5,12
80007254:	800237b7          	lui	a5,0x80023
80007258:	fdc42703          	lw	a4,-36(s0)
8000725c:	fe442583          	lw	a1,-28(s0)
80007260:	65878613          	addi	a2,a5,1624 # 80023658 <__stack_top+0xfffdc6c8>
80007264:	00070793          	mv	a5,a4
80007268:	00379793          	slli	a5,a5,0x3
8000726c:	00e787b3          	add	a5,a5,a4
80007270:	00679793          	slli	a5,a5,0x6
80007274:	00001737          	lui	a4,0x1
80007278:	98470713          	addi	a4,a4,-1660 # 984 <HEAP_SIZE-0xf67c>
8000727c:	02e58733          	mul	a4,a1,a4
80007280:	00e787b3          	add	a5,a5,a4
80007284:	00f607b3          	add	a5,a2,a5
80007288:	02d7ae23          	sw	a3,60(a5)
/casa/workspace/Chronos-RISCV6/FreeRTOS/Debug/../FreeRTOS/chronos.c:468
    TaskList[taskSlot].MessagePipe[slot].header.service          = MESSAGE_DELIVERY;
8000728c:	800237b7          	lui	a5,0x80023
80007290:	fdc42703          	lw	a4,-36(s0)
80007294:	fe442603          	lw	a2,-28(s0)
80007298:	65878693          	addi	a3,a5,1624 # 80023658 <__stack_top+0xfffdc6c8>
8000729c:	00070793          	mv	a5,a4
800072a0:	00379793          	slli	a5,a5,0x3
800072a4:	00e787b3          	add	a5,a5,a4
800072a8:	00679793          	slli	a5,a5,0x6
800072ac:	00001737          	lui	a4,0x1
800072b0:	98470713          	addi	a4,a4,-1660 # 984 <HEAP_SIZE-0xf67c>
800072b4:	02e60733          	mul	a4,a2,a4
800072b8:	00e787b3          	add	a5,a5,a4
800072bc:	00f687b3          	add	a5,a3,a5
800072c0:	02000713          	li	a4,32
800072c4:	04e7a023          	sw	a4,64(a5)
/casa/workspace/Chronos-RISCV6/FreeRTOS/Debug/../FreeRTOS/chronos.c:469
    TaskList[taskSlot].MessagePipe[slot].header.application_id   = TaskList[taskSlot].AppID;
800072c8:	800237b7          	lui	a5,0x80023
800072cc:	fe442683          	lw	a3,-28(s0)
800072d0:	65878713          	addi	a4,a5,1624 # 80023658 <__stack_top+0xfffdc6c8>
800072d4:	000017b7          	lui	a5,0x1
800072d8:	98478793          	addi	a5,a5,-1660 # 984 <HEAP_SIZE-0xf67c>
800072dc:	02f687b3          	mul	a5,a3,a5
800072e0:	00f707b3          	add	a5,a4,a5
800072e4:	0147a683          	lw	a3,20(a5)
800072e8:	800237b7          	lui	a5,0x80023
800072ec:	fdc42703          	lw	a4,-36(s0)
800072f0:	fe442583          	lw	a1,-28(s0)
800072f4:	65878613          	addi	a2,a5,1624 # 80023658 <__stack_top+0xfffdc6c8>
800072f8:	00070793          	mv	a5,a4
800072fc:	00379793          	slli	a5,a5,0x3
80007300:	00e787b3          	add	a5,a5,a4
80007304:	00679793          	slli	a5,a5,0x6
80007308:	00001737          	lui	a4,0x1
8000730c:	98470713          	addi	a4,a4,-1660 # 984 <HEAP_SIZE-0xf67c>
80007310:	02e58733          	mul	a4,a1,a4
80007314:	00e787b3          	add	a5,a5,a4
80007318:	00f607b3          	add	a5,a2,a5
8000731c:	04d7a223          	sw	a3,68(a5)
/casa/workspace/Chronos-RISCV6/FreeRTOS/Debug/../FreeRTOS/chronos.c:470
    TaskList[taskSlot].MessagePipe[slot].header.producer_task    = TaskList[taskSlot].TaskID;
80007320:	800237b7          	lui	a5,0x80023
80007324:	fe442683          	lw	a3,-28(s0)
80007328:	00001737          	lui	a4,0x1
8000732c:	98470713          	addi	a4,a4,-1660 # 984 <HEAP_SIZE-0xf67c>
80007330:	02e68733          	mul	a4,a3,a4
80007334:	65878793          	addi	a5,a5,1624 # 80023658 <__stack_top+0xfffdc6c8>
80007338:	00f707b3          	add	a5,a4,a5
8000733c:	0107a683          	lw	a3,16(a5)
80007340:	800237b7          	lui	a5,0x80023
80007344:	fdc42703          	lw	a4,-36(s0)
80007348:	fe442583          	lw	a1,-28(s0)
8000734c:	65878613          	addi	a2,a5,1624 # 80023658 <__stack_top+0xfffdc6c8>
80007350:	00070793          	mv	a5,a4
80007354:	00379793          	slli	a5,a5,0x3
80007358:	00e787b3          	add	a5,a5,a4
8000735c:	00679793          	slli	a5,a5,0x6
80007360:	00001737          	lui	a4,0x1
80007364:	98470713          	addi	a4,a4,-1660 # 984 <HEAP_SIZE-0xf67c>
80007368:	02e58733          	mul	a4,a1,a4
8000736c:	00e787b3          	add	a5,a5,a4
80007370:	00f607b3          	add	a5,a2,a5
80007374:	04d7a423          	sw	a3,72(a5)
/casa/workspace/Chronos-RISCV6/FreeRTOS/Debug/../FreeRTOS/chronos.c:471
    TaskList[taskSlot].MessagePipe[slot].header.destination_task = taskID;
80007378:	800237b7          	lui	a5,0x80023
8000737c:	fdc42703          	lw	a4,-36(s0)
80007380:	fe442603          	lw	a2,-28(s0)
80007384:	65878693          	addi	a3,a5,1624 # 80023658 <__stack_top+0xfffdc6c8>
80007388:	00070793          	mv	a5,a4
8000738c:	00379793          	slli	a5,a5,0x3
80007390:	00e787b3          	add	a5,a5,a4
80007394:	00679793          	slli	a5,a5,0x6
80007398:	00001737          	lui	a4,0x1
8000739c:	98470713          	addi	a4,a4,-1660 # 984 <HEAP_SIZE-0xf67c>
800073a0:	02e60733          	mul	a4,a2,a4
800073a4:	00e787b3          	add	a5,a5,a4
800073a8:	00f687b3          	add	a5,a3,a5
800073ac:	fc842703          	lw	a4,-56(s0)
800073b0:	04e7a623          	sw	a4,76(a5)
/casa/workspace/Chronos-RISCV6/FreeRTOS/Debug/../FreeRTOS/chronos.c:472
    TaskList[taskSlot].MessagePipe[slot].msg.length              = theMessage->length;
800073b4:	fe042783          	lw	a5,-32(s0)
800073b8:	0007a683          	lw	a3,0(a5)
800073bc:	800237b7          	lui	a5,0x80023
800073c0:	fdc42703          	lw	a4,-36(s0)
800073c4:	fe442583          	lw	a1,-28(s0)
800073c8:	65878613          	addi	a2,a5,1624 # 80023658 <__stack_top+0xfffdc6c8>
800073cc:	00070793          	mv	a5,a4
800073d0:	00379793          	slli	a5,a5,0x3
800073d4:	00e787b3          	add	a5,a5,a4
800073d8:	00679793          	slli	a5,a5,0x6
800073dc:	00001737          	lui	a4,0x1
800073e0:	98470713          	addi	a4,a4,-1660 # 984 <HEAP_SIZE-0xf67c>
800073e4:	02e58733          	mul	a4,a1,a4
800073e8:	00e787b3          	add	a5,a5,a4
800073ec:	00f607b3          	add	a5,a2,a5
800073f0:	06d7a623          	sw	a3,108(a5)
/casa/workspace/Chronos-RISCV6/FreeRTOS/Debug/../FreeRTOS/chronos.c:473
    for (i = 0; i < theMessage->length; i++){
800073f4:	fe042623          	sw	zero,-20(s0)
800073f8:	0680006f          	j	80007460 <API_SendMessage+0x3b0>
/casa/workspace/Chronos-RISCV6/FreeRTOS/Debug/../FreeRTOS/chronos.c:474 (discriminator 3)
        TaskList[taskSlot].MessagePipe[slot].msg.msg[i]          = theMessage->msg[i];
800073fc:	fe042703          	lw	a4,-32(s0)
80007400:	fec42783          	lw	a5,-20(s0)
80007404:	00279793          	slli	a5,a5,0x2
80007408:	00f707b3          	add	a5,a4,a5
8000740c:	0047a683          	lw	a3,4(a5)
80007410:	80023637          	lui	a2,0x80023
80007414:	fdc42703          	lw	a4,-36(s0)
80007418:	fe442583          	lw	a1,-28(s0)
8000741c:	00070793          	mv	a5,a4
80007420:	00379793          	slli	a5,a5,0x3
80007424:	00e787b3          	add	a5,a5,a4
80007428:	00479793          	slli	a5,a5,0x4
8000742c:	26100713          	li	a4,609
80007430:	02e58733          	mul	a4,a1,a4
80007434:	00e78733          	add	a4,a5,a4
80007438:	fec42783          	lw	a5,-20(s0)
8000743c:	00f707b3          	add	a5,a4,a5
80007440:	01878793          	addi	a5,a5,24
80007444:	65860713          	addi	a4,a2,1624 # 80023658 <__stack_top+0xfffdc6c8>
80007448:	00279793          	slli	a5,a5,0x2
8000744c:	00f707b3          	add	a5,a4,a5
80007450:	00d7a823          	sw	a3,16(a5)
/casa/workspace/Chronos-RISCV6/FreeRTOS/Debug/../FreeRTOS/chronos.c:473 (discriminator 3)
    for (i = 0; i < theMessage->length; i++){
80007454:	fec42783          	lw	a5,-20(s0)
80007458:	00178793          	addi	a5,a5,1
8000745c:	fef42623          	sw	a5,-20(s0)
/casa/workspace/Chronos-RISCV6/FreeRTOS/Debug/../FreeRTOS/chronos.c:473 (discriminator 1)
80007460:	fe042783          	lw	a5,-32(s0)
80007464:	0007a783          	lw	a5,0(a5)
80007468:	fec42703          	lw	a4,-20(s0)
8000746c:	f8f768e3          	bltu	a4,a5,800073fc <API_SendMessage+0x34c>
/casa/workspace/Chronos-RISCV6/FreeRTOS/Debug/../FreeRTOS/chronos.c:477
    }
    
    if (TaskList[taskSlot].PendingReq[taskID] == TRUE){
80007470:	800237b7          	lui	a5,0x80023
80007474:	fe442683          	lw	a3,-28(s0)
80007478:	26100713          	li	a4,609
8000747c:	02e686b3          	mul	a3,a3,a4
80007480:	fc842703          	lw	a4,-56(s0)
80007484:	00e68733          	add	a4,a3,a4
80007488:	24c70713          	addi	a4,a4,588
8000748c:	00271713          	slli	a4,a4,0x2
80007490:	65878793          	addi	a5,a5,1624 # 80023658 <__stack_top+0xfffdc6c8>
80007494:	00f707b3          	add	a5,a4,a5
80007498:	0007a703          	lw	a4,0(a5)
8000749c:	00100793          	li	a5,1
800074a0:	04f71463          	bne	a4,a5,800074e8 <API_SendMessage+0x438>
/casa/workspace/Chronos-RISCV6/FreeRTOS/Debug/../FreeRTOS/chronos.c:478
        prints(">>>>>Achei aqui no pending!\n");
800074a4:	800097b7          	lui	a5,0x80009
800074a8:	07878513          	addi	a0,a5,120 # 80009078 <__stack_top+0xfffc20e8>
800074ac:	fcdfe0ef          	jal	ra,80006478 <prints>
/casa/workspace/Chronos-RISCV6/FreeRTOS/Debug/../FreeRTOS/chronos.c:479
        TaskList[taskSlot].PendingReq[taskID] = FALSE;
800074b0:	800237b7          	lui	a5,0x80023
800074b4:	fe442683          	lw	a3,-28(s0)
800074b8:	26100713          	li	a4,609
800074bc:	02e686b3          	mul	a3,a3,a4
800074c0:	fc842703          	lw	a4,-56(s0)
800074c4:	00e68733          	add	a4,a3,a4
800074c8:	24c70713          	addi	a4,a4,588
800074cc:	00271713          	slli	a4,a4,0x2
800074d0:	65878793          	addi	a5,a5,1624 # 80023658 <__stack_top+0xfffdc6c8>
800074d4:	00f707b3          	add	a5,a4,a5
800074d8:	0007a023          	sw	zero,0(a5)
/casa/workspace/Chronos-RISCV6/FreeRTOS/Debug/../FreeRTOS/chronos.c:480
        API_PushSendQueue(MESSAGE, mySlot);
800074dc:	fe842583          	lw	a1,-24(s0)
800074e0:	20200537          	lui	a0,0x20200
800074e4:	ddcff0ef          	jal	ra,80006ac0 <API_PushSendQueue>
/casa/workspace/Chronos-RISCV6/FreeRTOS/Debug/../FreeRTOS/chronos.c:482
    }
    vTaskExitCritical();
800074e8:	b8dfb0ef          	jal	ra,80003074 <vTaskExitCritical>
/casa/workspace/Chronos-RISCV6/FreeRTOS/Debug/../FreeRTOS/chronos.c:483
    return;
800074ec:	00000013          	nop
/casa/workspace/Chronos-RISCV6/FreeRTOS/Debug/../FreeRTOS/chronos.c:484
}
800074f0:	03c12083          	lw	ra,60(sp)
800074f4:	03812403          	lw	s0,56(sp)
800074f8:	04010113          	addi	sp,sp,64
800074fc:	00008067          	ret

80007500 <API_SendFinishTask>:
API_SendFinishTask():
/casa/workspace/Chronos-RISCV6/FreeRTOS/Debug/../FreeRTOS/chronos.c:486

void API_SendFinishTask(unsigned int task_id, unsigned int app_id){
80007500:	fd010113          	addi	sp,sp,-48
80007504:	02112623          	sw	ra,44(sp)
80007508:	02812423          	sw	s0,40(sp)
8000750c:	03010413          	addi	s0,sp,48
80007510:	fca42e23          	sw	a0,-36(s0)
80007514:	fcb42c23          	sw	a1,-40(s0)
/casa/workspace/Chronos-RISCV6/FreeRTOS/Debug/../FreeRTOS/chronos.c:489
    unsigned int mySlot;
    do{
        mySlot = API_GetServiceSlot();
80007518:	978fe0ef          	jal	ra,80005690 <API_GetServiceSlot>
8000751c:	fea42623          	sw	a0,-20(s0)
/casa/workspace/Chronos-RISCV6/FreeRTOS/Debug/../FreeRTOS/chronos.c:490
        if(mySlot == PIPE_FULL){
80007520:	fec42703          	lw	a4,-20(s0)
80007524:	fdfe07b7          	lui	a5,0xfdfe0
80007528:	dfd78793          	addi	a5,a5,-515 # fdfdfdfd <__stack_top+0x7df98e6d>
8000752c:	00f71a63          	bne	a4,a5,80007540 <API_SendFinishTask+0x40>
/casa/workspace/Chronos-RISCV6/FreeRTOS/Debug/../FreeRTOS/chronos.c:492
            // Runs the NI Handler to send/receive packets, opening space in the PIPE
            prints("Estou preso aqui3...\n");
80007530:	800097b7          	lui	a5,0x80009
80007534:	09878513          	addi	a0,a5,152 # 80009098 <__stack_top+0xfffc2108>
80007538:	f41fe0ef          	jal	ra,80006478 <prints>
/casa/workspace/Chronos-RISCV6/FreeRTOS/Debug/../FreeRTOS/chronos.c:493
            API_NI_Handler();
8000753c:	690000ef          	jal	ra,80007bcc <API_NI_Handler>
/casa/workspace/Chronos-RISCV6/FreeRTOS/Debug/../FreeRTOS/chronos.c:495
        }
    }while(mySlot == PIPE_FULL);
80007540:	fec42703          	lw	a4,-20(s0)
80007544:	fdfe07b7          	lui	a5,0xfdfe0
80007548:	dfd78793          	addi	a5,a5,-515 # fdfdfdfd <__stack_top+0x7df98e6d>
8000754c:	fcf706e3          	beq	a4,a5,80007518 <API_SendFinishTask+0x18>
/casa/workspace/Chronos-RISCV6/FreeRTOS/Debug/../FreeRTOS/chronos.c:497

    ServicePipe[mySlot].holder = PIPE_SYS_HOLDER;
80007550:	800227b7          	lui	a5,0x80022
80007554:	fec42703          	lw	a4,-20(s0)
80007558:	79c78693          	addi	a3,a5,1948 # 8002279c <__stack_top+0xfffdb80c>
8000755c:	00070793          	mv	a5,a4
80007560:	00479793          	slli	a5,a5,0x4
80007564:	40e787b3          	sub	a5,a5,a4
80007568:	00279793          	slli	a5,a5,0x2
8000756c:	00f687b3          	add	a5,a3,a5
80007570:	feff0737          	lui	a4,0xfeff0
80007574:	efe70713          	addi	a4,a4,-258 # fefefefe <__stack_top+0x7efa8f6e>
80007578:	00e7a223          	sw	a4,4(a5)
/casa/workspace/Chronos-RISCV6/FreeRTOS/Debug/../FreeRTOS/chronos.c:499

    ServicePipe[mySlot].header.header           = makeAddress(0, 0);
8000757c:	00000593          	li	a1,0
80007580:	00000513          	li	a0,0
80007584:	cfcff0ef          	jal	ra,80006a80 <makeAddress>
80007588:	00050613          	mv	a2,a0
8000758c:	800227b7          	lui	a5,0x80022
80007590:	fec42703          	lw	a4,-20(s0)
80007594:	79c78693          	addi	a3,a5,1948 # 8002279c <__stack_top+0xfffdb80c>
80007598:	00070793          	mv	a5,a4
8000759c:	00479793          	slli	a5,a5,0x4
800075a0:	40e787b3          	sub	a5,a5,a4
800075a4:	00279793          	slli	a5,a5,0x2
800075a8:	00f687b3          	add	a5,a3,a5
800075ac:	00c7a423          	sw	a2,8(a5)
/casa/workspace/Chronos-RISCV6/FreeRTOS/Debug/../FreeRTOS/chronos.c:500
    ServicePipe[mySlot].header.payload_size     = PKT_SERVICE_SIZE;
800075b0:	800227b7          	lui	a5,0x80022
800075b4:	fec42703          	lw	a4,-20(s0)
800075b8:	79c78693          	addi	a3,a5,1948 # 8002279c <__stack_top+0xfffdb80c>
800075bc:	00070793          	mv	a5,a4
800075c0:	00479793          	slli	a5,a5,0x4
800075c4:	40e787b3          	sub	a5,a5,a4
800075c8:	00279793          	slli	a5,a5,0x2
800075cc:	00f687b3          	add	a5,a3,a5
800075d0:	00b00713          	li	a4,11
800075d4:	00e7a623          	sw	a4,12(a5)
/casa/workspace/Chronos-RISCV6/FreeRTOS/Debug/../FreeRTOS/chronos.c:501
    ServicePipe[mySlot].header.service          = TASK_FINISH;
800075d8:	800227b7          	lui	a5,0x80022
800075dc:	fec42703          	lw	a4,-20(s0)
800075e0:	79c78693          	addi	a3,a5,1948 # 8002279c <__stack_top+0xfffdb80c>
800075e4:	00070793          	mv	a5,a4
800075e8:	00479793          	slli	a5,a5,0x4
800075ec:	40e787b3          	sub	a5,a5,a4
800075f0:	00279793          	slli	a5,a5,0x2
800075f4:	00f687b3          	add	a5,a3,a5
800075f8:	50000713          	li	a4,1280
800075fc:	00e7a823          	sw	a4,16(a5)
/casa/workspace/Chronos-RISCV6/FreeRTOS/Debug/../FreeRTOS/chronos.c:502
    ServicePipe[mySlot].header.task_id          = task_id;
80007600:	800227b7          	lui	a5,0x80022
80007604:	fec42703          	lw	a4,-20(s0)
80007608:	79c78693          	addi	a3,a5,1948 # 8002279c <__stack_top+0xfffdb80c>
8000760c:	00070793          	mv	a5,a4
80007610:	00479793          	slli	a5,a5,0x4
80007614:	40e787b3          	sub	a5,a5,a4
80007618:	00279793          	slli	a5,a5,0x2
8000761c:	00f687b3          	add	a5,a3,a5
80007620:	fdc42703          	lw	a4,-36(s0)
80007624:	00e7aa23          	sw	a4,20(a5)
/casa/workspace/Chronos-RISCV6/FreeRTOS/Debug/../FreeRTOS/chronos.c:503
    ServicePipe[mySlot].header.task_app_id      = app_id;
80007628:	800227b7          	lui	a5,0x80022
8000762c:	fec42703          	lw	a4,-20(s0)
80007630:	79c78693          	addi	a3,a5,1948 # 8002279c <__stack_top+0xfffdb80c>
80007634:	00070793          	mv	a5,a4
80007638:	00479793          	slli	a5,a5,0x4
8000763c:	40e787b3          	sub	a5,a5,a4
80007640:	00279793          	slli	a5,a5,0x2
80007644:	00f687b3          	add	a5,a3,a5
80007648:	fd842703          	lw	a4,-40(s0)
8000764c:	02e7a223          	sw	a4,36(a5)
/casa/workspace/Chronos-RISCV6/FreeRTOS/Debug/../FreeRTOS/chronos.c:504
    ServicePipe[mySlot].header.task_dest_addr   = ProcessorAddr;
80007650:	800277b7          	lui	a5,0x80027
80007654:	f807a683          	lw	a3,-128(a5) # 80026f80 <__stack_top+0xfffdfff0>
80007658:	800227b7          	lui	a5,0x80022
8000765c:	fec42703          	lw	a4,-20(s0)
80007660:	79c78613          	addi	a2,a5,1948 # 8002279c <__stack_top+0xfffdb80c>
80007664:	00070793          	mv	a5,a4
80007668:	00479793          	slli	a5,a5,0x4
8000766c:	40e787b3          	sub	a5,a5,a4
80007670:	00279793          	slli	a5,a5,0x2
80007674:	00f607b3          	add	a5,a2,a5
80007678:	02d7ac23          	sw	a3,56(a5)
/casa/workspace/Chronos-RISCV6/FreeRTOS/Debug/../FreeRTOS/chronos.c:505
    API_PushSendQueue(SERVICE, mySlot);
8000767c:	fec42583          	lw	a1,-20(s0)
80007680:	10100537          	lui	a0,0x10100
80007684:	c3cff0ef          	jal	ra,80006ac0 <API_PushSendQueue>
/casa/workspace/Chronos-RISCV6/FreeRTOS/Debug/../FreeRTOS/chronos.c:506
    return;    
80007688:	00000013          	nop
/casa/workspace/Chronos-RISCV6/FreeRTOS/Debug/../FreeRTOS/chronos.c:507
}
8000768c:	02c12083          	lw	ra,44(sp)
80007690:	02812403          	lw	s0,40(sp)
80007694:	03010113          	addi	sp,sp,48
80007698:	00008067          	ret

8000769c <API_SendMessageReq>:
API_SendMessageReq():
/casa/workspace/Chronos-RISCV6/FreeRTOS/Debug/../FreeRTOS/chronos.c:509

void API_SendMessageReq(unsigned int addr, unsigned int taskID){
8000769c:	fd010113          	addi	sp,sp,-48
800076a0:	02112623          	sw	ra,44(sp)
800076a4:	02812423          	sw	s0,40(sp)
800076a8:	03010413          	addi	s0,sp,48
800076ac:	fca42e23          	sw	a0,-36(s0)
800076b0:	fcb42c23          	sw	a1,-40(s0)
/casa/workspace/Chronos-RISCV6/FreeRTOS/Debug/../FreeRTOS/chronos.c:512
    unsigned int taskSlot;
    unsigned int mySlot;
    volatile unsigned int idle = 0;
800076b4:	fe042223          	sw	zero,-28(s0)
/casa/workspace/Chronos-RISCV6/FreeRTOS/Debug/../FreeRTOS/chronos.c:514
    // Update task info
    taskSlot = API_GetCurrentTaskSlot();
800076b8:	c94fd0ef          	jal	ra,80004b4c <API_GetCurrentTaskSlot>
800076bc:	fea42623          	sw	a0,-20(s0)
/casa/workspace/Chronos-RISCV6/FreeRTOS/Debug/../FreeRTOS/chronos.c:515
    TaskList[taskSlot].waitingMsg = TRUE;
800076c0:	800237b7          	lui	a5,0x80023
800076c4:	fec42683          	lw	a3,-20(s0)
800076c8:	65878713          	addi	a4,a5,1624 # 80023658 <__stack_top+0xfffdc6c8>
800076cc:	000017b7          	lui	a5,0x1
800076d0:	98478793          	addi	a5,a5,-1660 # 984 <HEAP_SIZE-0xf67c>
800076d4:	02f687b3          	mul	a5,a3,a5
800076d8:	00f707b3          	add	a5,a4,a5
800076dc:	00100713          	li	a4,1
800076e0:	00e7ae23          	sw	a4,28(a5)
/casa/workspace/Chronos-RISCV6/FreeRTOS/Debug/../FreeRTOS/chronos.c:516
    TaskList[taskSlot].MsgToReceive = addr;
800076e4:	800237b7          	lui	a5,0x80023
800076e8:	fec42683          	lw	a3,-20(s0)
800076ec:	00001737          	lui	a4,0x1
800076f0:	98470713          	addi	a4,a4,-1660 # 984 <HEAP_SIZE-0xf67c>
800076f4:	02e68733          	mul	a4,a3,a4
800076f8:	65878793          	addi	a5,a5,1624 # 80023658 <__stack_top+0xfffdc6c8>
800076fc:	00f707b3          	add	a5,a4,a5
80007700:	fdc42703          	lw	a4,-36(s0)
80007704:	02e7a023          	sw	a4,32(a5)
/casa/workspace/Chronos-RISCV6/FreeRTOS/Debug/../FreeRTOS/chronos.c:521
    //printsv("API_SendMessageReq addr: ", addr);

    // Sends the message request
    do{
        mySlot = API_GetServiceSlot();
80007708:	f89fd0ef          	jal	ra,80005690 <API_GetServiceSlot>
8000770c:	fea42423          	sw	a0,-24(s0)
/casa/workspace/Chronos-RISCV6/FreeRTOS/Debug/../FreeRTOS/chronos.c:522
        if(mySlot == PIPE_FULL){
80007710:	fe842703          	lw	a4,-24(s0)
80007714:	fdfe07b7          	lui	a5,0xfdfe0
80007718:	dfd78793          	addi	a5,a5,-515 # fdfdfdfd <__stack_top+0x7df98e6d>
8000771c:	00f71a63          	bne	a4,a5,80007730 <API_SendMessageReq+0x94>
/casa/workspace/Chronos-RISCV6/FreeRTOS/Debug/../FreeRTOS/chronos.c:524
            // Runs the NI Handler to send/receive packets, opening space in the PIPE
            prints("Estou preso aqui4...\n");
80007720:	800097b7          	lui	a5,0x80009
80007724:	0b078513          	addi	a0,a5,176 # 800090b0 <__stack_top+0xfffc2120>
80007728:	d51fe0ef          	jal	ra,80006478 <prints>
/casa/workspace/Chronos-RISCV6/FreeRTOS/Debug/../FreeRTOS/chronos.c:525
            API_NI_Handler();
8000772c:	4a0000ef          	jal	ra,80007bcc <API_NI_Handler>
/casa/workspace/Chronos-RISCV6/FreeRTOS/Debug/../FreeRTOS/chronos.c:527
        }
    }while(mySlot == PIPE_FULL);
80007730:	fe842703          	lw	a4,-24(s0)
80007734:	fdfe07b7          	lui	a5,0xfdfe0
80007738:	dfd78793          	addi	a5,a5,-515 # fdfdfdfd <__stack_top+0x7df98e6d>
8000773c:	fcf706e3          	beq	a4,a5,80007708 <API_SendMessageReq+0x6c>
/casa/workspace/Chronos-RISCV6/FreeRTOS/Debug/../FreeRTOS/chronos.c:529

    ServicePipe[mySlot].holder = PIPE_SYS_HOLDER;
80007740:	800227b7          	lui	a5,0x80022
80007744:	fe842703          	lw	a4,-24(s0)
80007748:	79c78693          	addi	a3,a5,1948 # 8002279c <__stack_top+0xfffdb80c>
8000774c:	00070793          	mv	a5,a4
80007750:	00479793          	slli	a5,a5,0x4
80007754:	40e787b3          	sub	a5,a5,a4
80007758:	00279793          	slli	a5,a5,0x2
8000775c:	00f687b3          	add	a5,a3,a5
80007760:	feff0737          	lui	a4,0xfeff0
80007764:	efe70713          	addi	a4,a4,-258 # fefefefe <__stack_top+0x7efa8f6e>
80007768:	00e7a223          	sw	a4,4(a5)
/casa/workspace/Chronos-RISCV6/FreeRTOS/Debug/../FreeRTOS/chronos.c:531

    ServicePipe[mySlot].header.header           = TaskList[taskSlot].TasksMap[taskID];
8000776c:	80023737          	lui	a4,0x80023
80007770:	fec42683          	lw	a3,-20(s0)
80007774:	26100793          	li	a5,609
80007778:	02f686b3          	mul	a3,a3,a5
8000777c:	fd842783          	lw	a5,-40(s0)
80007780:	00f687b3          	add	a5,a3,a5
80007784:	25478793          	addi	a5,a5,596
80007788:	65870713          	addi	a4,a4,1624 # 80023658 <__stack_top+0xfffdc6c8>
8000778c:	00279793          	slli	a5,a5,0x2
80007790:	00f707b3          	add	a5,a4,a5
80007794:	00c7a683          	lw	a3,12(a5)
80007798:	800227b7          	lui	a5,0x80022
8000779c:	fe842703          	lw	a4,-24(s0)
800077a0:	79c78613          	addi	a2,a5,1948 # 8002279c <__stack_top+0xfffdb80c>
800077a4:	00070793          	mv	a5,a4
800077a8:	00479793          	slli	a5,a5,0x4
800077ac:	40e787b3          	sub	a5,a5,a4
800077b0:	00279793          	slli	a5,a5,0x2
800077b4:	00f607b3          	add	a5,a2,a5
800077b8:	00d7a423          	sw	a3,8(a5)
/casa/workspace/Chronos-RISCV6/FreeRTOS/Debug/../FreeRTOS/chronos.c:532
    ServicePipe[mySlot].header.payload_size     = PKT_SERVICE_SIZE;
800077bc:	800227b7          	lui	a5,0x80022
800077c0:	fe842703          	lw	a4,-24(s0)
800077c4:	79c78693          	addi	a3,a5,1948 # 8002279c <__stack_top+0xfffdb80c>
800077c8:	00070793          	mv	a5,a4
800077cc:	00479793          	slli	a5,a5,0x4
800077d0:	40e787b3          	sub	a5,a5,a4
800077d4:	00279793          	slli	a5,a5,0x2
800077d8:	00f687b3          	add	a5,a3,a5
800077dc:	00b00713          	li	a4,11
800077e0:	00e7a623          	sw	a4,12(a5)
/casa/workspace/Chronos-RISCV6/FreeRTOS/Debug/../FreeRTOS/chronos.c:533
    ServicePipe[mySlot].header.service          = MESSAGE_REQUEST;
800077e4:	800227b7          	lui	a5,0x80022
800077e8:	fe842703          	lw	a4,-24(s0)
800077ec:	79c78693          	addi	a3,a5,1948 # 8002279c <__stack_top+0xfffdb80c>
800077f0:	00070793          	mv	a5,a4
800077f4:	00479793          	slli	a5,a5,0x4
800077f8:	40e787b3          	sub	a5,a5,a4
800077fc:	00279793          	slli	a5,a5,0x2
80007800:	00f687b3          	add	a5,a3,a5
80007804:	01000713          	li	a4,16
80007808:	00e7a823          	sw	a4,16(a5)
/casa/workspace/Chronos-RISCV6/FreeRTOS/Debug/../FreeRTOS/chronos.c:534
    ServicePipe[mySlot].header.task_id          = TaskList[taskSlot].TaskID;
8000780c:	800237b7          	lui	a5,0x80023
80007810:	fec42683          	lw	a3,-20(s0)
80007814:	00001737          	lui	a4,0x1
80007818:	98470713          	addi	a4,a4,-1660 # 984 <HEAP_SIZE-0xf67c>
8000781c:	02e68733          	mul	a4,a3,a4
80007820:	65878793          	addi	a5,a5,1624 # 80023658 <__stack_top+0xfffdc6c8>
80007824:	00f707b3          	add	a5,a4,a5
80007828:	0107a683          	lw	a3,16(a5)
8000782c:	800227b7          	lui	a5,0x80022
80007830:	fe842703          	lw	a4,-24(s0)
80007834:	79c78613          	addi	a2,a5,1948 # 8002279c <__stack_top+0xfffdb80c>
80007838:	00070793          	mv	a5,a4
8000783c:	00479793          	slli	a5,a5,0x4
80007840:	40e787b3          	sub	a5,a5,a4
80007844:	00279793          	slli	a5,a5,0x2
80007848:	00f607b3          	add	a5,a2,a5
8000784c:	00d7aa23          	sw	a3,20(a5)
/casa/workspace/Chronos-RISCV6/FreeRTOS/Debug/../FreeRTOS/chronos.c:535
    ServicePipe[mySlot].header.task_app_id      = TaskList[taskSlot].AppID;
80007850:	800237b7          	lui	a5,0x80023
80007854:	fec42683          	lw	a3,-20(s0)
80007858:	65878713          	addi	a4,a5,1624 # 80023658 <__stack_top+0xfffdc6c8>
8000785c:	000017b7          	lui	a5,0x1
80007860:	98478793          	addi	a5,a5,-1660 # 984 <HEAP_SIZE-0xf67c>
80007864:	02f687b3          	mul	a5,a3,a5
80007868:	00f707b3          	add	a5,a4,a5
8000786c:	0147a683          	lw	a3,20(a5)
80007870:	800227b7          	lui	a5,0x80022
80007874:	fe842703          	lw	a4,-24(s0)
80007878:	79c78613          	addi	a2,a5,1948 # 8002279c <__stack_top+0xfffdb80c>
8000787c:	00070793          	mv	a5,a4
80007880:	00479793          	slli	a5,a5,0x4
80007884:	40e787b3          	sub	a5,a5,a4
80007888:	00279793          	slli	a5,a5,0x2
8000788c:	00f607b3          	add	a5,a2,a5
80007890:	02d7a223          	sw	a3,36(a5)
/casa/workspace/Chronos-RISCV6/FreeRTOS/Debug/../FreeRTOS/chronos.c:536
    ServicePipe[mySlot].header.producer_task_id = taskID;
80007894:	800227b7          	lui	a5,0x80022
80007898:	fe842703          	lw	a4,-24(s0)
8000789c:	79c78693          	addi	a3,a5,1948 # 8002279c <__stack_top+0xfffdb80c>
800078a0:	00070793          	mv	a5,a4
800078a4:	00479793          	slli	a5,a5,0x4
800078a8:	40e787b3          	sub	a5,a5,a4
800078ac:	00279793          	slli	a5,a5,0x2
800078b0:	00f687b3          	add	a5,a3,a5
800078b4:	fd842703          	lw	a4,-40(s0)
800078b8:	00e7ae23          	sw	a4,28(a5)
/casa/workspace/Chronos-RISCV6/FreeRTOS/Debug/../FreeRTOS/chronos.c:538

    prints("Esperando Mensagem!\n");
800078bc:	800097b7          	lui	a5,0x80009
800078c0:	0c878513          	addi	a0,a5,200 # 800090c8 <__stack_top+0xfffc2138>
800078c4:	bb5fe0ef          	jal	ra,80006478 <prints>
/casa/workspace/Chronos-RISCV6/FreeRTOS/Debug/../FreeRTOS/chronos.c:540

    API_PushSendQueue(SERVICE, mySlot);
800078c8:	fe842583          	lw	a1,-24(s0)
800078cc:	10100537          	lui	a0,0x10100
800078d0:	9f0ff0ef          	jal	ra,80006ac0 <API_PushSendQueue>
/casa/workspace/Chronos-RISCV6/FreeRTOS/Debug/../FreeRTOS/chronos.c:542
    
    API_setFreqScale(100);
800078d4:	06400513          	li	a0,100
800078d8:	8bcfe0ef          	jal	ra,80005994 <API_setFreqScale>
/casa/workspace/Chronos-RISCV6/FreeRTOS/Debug/../FreeRTOS/chronos.c:544
    // Bloquear a tarefa!
    while(TaskList[taskSlot].waitingMsg == TRUE){ 
800078dc:	00c0006f          	j	800078e8 <API_SendMessageReq+0x24c>
/casa/workspace/Chronos-RISCV6/FreeRTOS/Debug/../FreeRTOS/chronos.c:551
        //     API_setFreqIdle();
        //     API_applyFreqScale();
        //     idle = 1;
        // }
        //printsv("esperando", mySlot);
        vTaskDelay(1);
800078e0:	00100513          	li	a0,1
800078e4:	941fa0ef          	jal	ra,80002224 <vTaskDelay>
/casa/workspace/Chronos-RISCV6/FreeRTOS/Debug/../FreeRTOS/chronos.c:544
    while(TaskList[taskSlot].waitingMsg == TRUE){ 
800078e8:	800237b7          	lui	a5,0x80023
800078ec:	fec42683          	lw	a3,-20(s0)
800078f0:	65878713          	addi	a4,a5,1624 # 80023658 <__stack_top+0xfffdc6c8>
800078f4:	000017b7          	lui	a5,0x1
800078f8:	98478793          	addi	a5,a5,-1660 # 984 <HEAP_SIZE-0xf67c>
800078fc:	02f687b3          	mul	a5,a3,a5
80007900:	00f707b3          	add	a5,a4,a5
80007904:	01c7a703          	lw	a4,28(a5)
80007908:	00100793          	li	a5,1
8000790c:	fcf70ae3          	beq	a4,a5,800078e0 <API_SendMessageReq+0x244>
/casa/workspace/Chronos-RISCV6/FreeRTOS/Debug/../FreeRTOS/chronos.c:556
        //mySlot++;

    }
    //vTaskSuspend(TaskList[taskSlot].TaskHandler);
    API_setFreqScale(1000);
80007910:	3e800513          	li	a0,1000
80007914:	880fe0ef          	jal	ra,80005994 <API_setFreqScale>
/casa/workspace/Chronos-RISCV6/FreeRTOS/Debug/../FreeRTOS/chronos.c:558

    prints("Mensagem Recebida!\n");
80007918:	800097b7          	lui	a5,0x80009
8000791c:	0e078513          	addi	a0,a5,224 # 800090e0 <__stack_top+0xfffc2150>
80007920:	b59fe0ef          	jal	ra,80006478 <prints>
/casa/workspace/Chronos-RISCV6/FreeRTOS/Debug/../FreeRTOS/chronos.c:559
    return;
80007924:	00000013          	nop
/casa/workspace/Chronos-RISCV6/FreeRTOS/Debug/../FreeRTOS/chronos.c:560
}
80007928:	02c12083          	lw	ra,44(sp)
8000792c:	02812403          	lw	s0,40(sp)
80007930:	03010113          	addi	sp,sp,48
80007934:	00008067          	ret

80007938 <API_CheckMessagePipe>:
API_CheckMessagePipe():
/casa/workspace/Chronos-RISCV6/FreeRTOS/Debug/../FreeRTOS/chronos.c:562

unsigned int API_CheckMessagePipe(unsigned int requester_task_id, unsigned int task_app_id){
80007938:	fd010113          	addi	sp,sp,-48
8000793c:	02812623          	sw	s0,44(sp)
80007940:	03010413          	addi	s0,sp,48
80007944:	fca42e23          	sw	a0,-36(s0)
80007948:	fcb42c23          	sw	a1,-40(s0)
/casa/workspace/Chronos-RISCV6/FreeRTOS/Debug/../FreeRTOS/chronos.c:564
    unsigned int i,j;
    unsigned int sel = ERRO;
8000794c:	fff00793          	li	a5,-1
80007950:	fef42223          	sw	a5,-28(s0)
/casa/workspace/Chronos-RISCV6/FreeRTOS/Debug/../FreeRTOS/chronos.c:565
    unsigned int smallID = 268435455;
80007954:	100007b7          	lui	a5,0x10000
80007958:	fff78793          	addi	a5,a5,-1 # fffffff <RAM_SIZE+0xff7ffff>
8000795c:	fef42023          	sw	a5,-32(s0)
/casa/workspace/Chronos-RISCV6/FreeRTOS/Debug/../FreeRTOS/chronos.c:567
    //vTaskEnterCritical();
    for(i = 0; i < NUM_MAX_TASKS; i++){
80007960:	fe042623          	sw	zero,-20(s0)
80007964:	18c0006f          	j	80007af0 <API_CheckMessagePipe+0x1b8>
/casa/workspace/Chronos-RISCV6/FreeRTOS/Debug/../FreeRTOS/chronos.c:568
        if(TaskList[i].status != TASK_SLOT_EMPTY && TaskList[i].AppID == task_app_id){
80007968:	800237b7          	lui	a5,0x80023
8000796c:	fec42683          	lw	a3,-20(s0)
80007970:	00001737          	lui	a4,0x1
80007974:	98470713          	addi	a4,a4,-1660 # 984 <HEAP_SIZE-0xf67c>
80007978:	02e68733          	mul	a4,a3,a4
8000797c:	65878793          	addi	a5,a5,1624 # 80023658 <__stack_top+0xfffdc6c8>
80007980:	00f707b3          	add	a5,a4,a5
80007984:	0007a783          	lw	a5,0(a5)
80007988:	14078e63          	beqz	a5,80007ae4 <API_CheckMessagePipe+0x1ac>
/casa/workspace/Chronos-RISCV6/FreeRTOS/Debug/../FreeRTOS/chronos.c:568 (discriminator 1)
8000798c:	800237b7          	lui	a5,0x80023
80007990:	fec42683          	lw	a3,-20(s0)
80007994:	65878713          	addi	a4,a5,1624 # 80023658 <__stack_top+0xfffdc6c8>
80007998:	000017b7          	lui	a5,0x1
8000799c:	98478793          	addi	a5,a5,-1660 # 984 <HEAP_SIZE-0xf67c>
800079a0:	02f687b3          	mul	a5,a3,a5
800079a4:	00f707b3          	add	a5,a4,a5
800079a8:	0147a783          	lw	a5,20(a5)
800079ac:	fd842703          	lw	a4,-40(s0)
800079b0:	12f71a63          	bne	a4,a5,80007ae4 <API_CheckMessagePipe+0x1ac>
/casa/workspace/Chronos-RISCV6/FreeRTOS/Debug/../FreeRTOS/chronos.c:569
            for(j = 0; j < PIPE_SIZE; j++){
800079b4:	fe042423          	sw	zero,-24(s0)
800079b8:	1200006f          	j	80007ad8 <API_CheckMessagePipe+0x1a0>
/casa/workspace/Chronos-RISCV6/FreeRTOS/Debug/../FreeRTOS/chronos.c:570
                if(TaskList[i].MessagePipe[j].status == PIPE_OCCUPIED){
800079bc:	800236b7          	lui	a3,0x80023
800079c0:	fe842703          	lw	a4,-24(s0)
800079c4:	fec42603          	lw	a2,-20(s0)
800079c8:	00070793          	mv	a5,a4
800079cc:	00379793          	slli	a5,a5,0x3
800079d0:	00e787b3          	add	a5,a5,a4
800079d4:	00679793          	slli	a5,a5,0x6
800079d8:	00001737          	lui	a4,0x1
800079dc:	98470713          	addi	a4,a4,-1660 # 984 <HEAP_SIZE-0xf67c>
800079e0:	02e60733          	mul	a4,a2,a4
800079e4:	00e78733          	add	a4,a5,a4
800079e8:	65868793          	addi	a5,a3,1624 # 80023658 <__stack_top+0xfffdc6c8>
800079ec:	00f707b3          	add	a5,a4,a5
800079f0:	0307a703          	lw	a4,48(a5)
800079f4:	00100793          	li	a5,1
800079f8:	0cf71a63          	bne	a4,a5,80007acc <API_CheckMessagePipe+0x194>
/casa/workspace/Chronos-RISCV6/FreeRTOS/Debug/../FreeRTOS/chronos.c:571
                    if(TaskList[i].MessagePipe[j].header.destination_task == requester_task_id){
800079fc:	800237b7          	lui	a5,0x80023
80007a00:	fe842703          	lw	a4,-24(s0)
80007a04:	fec42603          	lw	a2,-20(s0)
80007a08:	65878693          	addi	a3,a5,1624 # 80023658 <__stack_top+0xfffdc6c8>
80007a0c:	00070793          	mv	a5,a4
80007a10:	00379793          	slli	a5,a5,0x3
80007a14:	00e787b3          	add	a5,a5,a4
80007a18:	00679793          	slli	a5,a5,0x6
80007a1c:	00001737          	lui	a4,0x1
80007a20:	98470713          	addi	a4,a4,-1660 # 984 <HEAP_SIZE-0xf67c>
80007a24:	02e60733          	mul	a4,a2,a4
80007a28:	00e787b3          	add	a5,a5,a4
80007a2c:	00f687b3          	add	a5,a3,a5
80007a30:	04c7a783          	lw	a5,76(a5)
80007a34:	fdc42703          	lw	a4,-36(s0)
80007a38:	08f71a63          	bne	a4,a5,80007acc <API_CheckMessagePipe+0x194>
/casa/workspace/Chronos-RISCV6/FreeRTOS/Debug/../FreeRTOS/chronos.c:572
                        if(TaskList[i].MessagePipe[j].msgID < smallID){
80007a3c:	800237b7          	lui	a5,0x80023
80007a40:	fe842703          	lw	a4,-24(s0)
80007a44:	fec42603          	lw	a2,-20(s0)
80007a48:	65878693          	addi	a3,a5,1624 # 80023658 <__stack_top+0xfffdc6c8>
80007a4c:	00070793          	mv	a5,a4
80007a50:	00379793          	slli	a5,a5,0x3
80007a54:	00e787b3          	add	a5,a5,a4
80007a58:	00679793          	slli	a5,a5,0x6
80007a5c:	00001737          	lui	a4,0x1
80007a60:	98470713          	addi	a4,a4,-1660 # 984 <HEAP_SIZE-0xf67c>
80007a64:	02e60733          	mul	a4,a2,a4
80007a68:	00e787b3          	add	a5,a5,a4
80007a6c:	00f687b3          	add	a5,a3,a5
80007a70:	0347a783          	lw	a5,52(a5)
80007a74:	fe042703          	lw	a4,-32(s0)
80007a78:	04e7fa63          	bleu	a4,a5,80007acc <API_CheckMessagePipe+0x194>
/casa/workspace/Chronos-RISCV6/FreeRTOS/Debug/../FreeRTOS/chronos.c:573
                            smallID = TaskList[i].MessagePipe[j].msgID;
80007a7c:	800237b7          	lui	a5,0x80023
80007a80:	fe842703          	lw	a4,-24(s0)
80007a84:	fec42603          	lw	a2,-20(s0)
80007a88:	65878693          	addi	a3,a5,1624 # 80023658 <__stack_top+0xfffdc6c8>
80007a8c:	00070793          	mv	a5,a4
80007a90:	00379793          	slli	a5,a5,0x3
80007a94:	00e787b3          	add	a5,a5,a4
80007a98:	00679793          	slli	a5,a5,0x6
80007a9c:	00001737          	lui	a4,0x1
80007aa0:	98470713          	addi	a4,a4,-1660 # 984 <HEAP_SIZE-0xf67c>
80007aa4:	02e60733          	mul	a4,a2,a4
80007aa8:	00e787b3          	add	a5,a5,a4
80007aac:	00f687b3          	add	a5,a3,a5
80007ab0:	0347a783          	lw	a5,52(a5)
80007ab4:	fef42023          	sw	a5,-32(s0)
/casa/workspace/Chronos-RISCV6/FreeRTOS/Debug/../FreeRTOS/chronos.c:574
                            sel = (i << 8) | j;
80007ab8:	fec42783          	lw	a5,-20(s0)
80007abc:	00879793          	slli	a5,a5,0x8
80007ac0:	fe842703          	lw	a4,-24(s0)
80007ac4:	00f767b3          	or	a5,a4,a5
80007ac8:	fef42223          	sw	a5,-28(s0)
/casa/workspace/Chronos-RISCV6/FreeRTOS/Debug/../FreeRTOS/chronos.c:569 (discriminator 2)
            for(j = 0; j < PIPE_SIZE; j++){
80007acc:	fe842783          	lw	a5,-24(s0)
80007ad0:	00178793          	addi	a5,a5,1
80007ad4:	fef42423          	sw	a5,-24(s0)
/casa/workspace/Chronos-RISCV6/FreeRTOS/Debug/../FreeRTOS/chronos.c:569 (discriminator 1)
80007ad8:	fe842703          	lw	a4,-24(s0)
80007adc:	00300793          	li	a5,3
80007ae0:	ece7fee3          	bleu	a4,a5,800079bc <API_CheckMessagePipe+0x84>
/casa/workspace/Chronos-RISCV6/FreeRTOS/Debug/../FreeRTOS/chronos.c:567 (discriminator 2)
    for(i = 0; i < NUM_MAX_TASKS; i++){
80007ae4:	fec42783          	lw	a5,-20(s0)
80007ae8:	00178793          	addi	a5,a5,1
80007aec:	fef42623          	sw	a5,-20(s0)
/casa/workspace/Chronos-RISCV6/FreeRTOS/Debug/../FreeRTOS/chronos.c:567 (discriminator 1)
80007af0:	fec42703          	lw	a4,-20(s0)
80007af4:	00500793          	li	a5,5
80007af8:	e6e7f8e3          	bleu	a4,a5,80007968 <API_CheckMessagePipe+0x30>
/casa/workspace/Chronos-RISCV6/FreeRTOS/Debug/../FreeRTOS/chronos.c:581
                    }
                }
            }
        }
    }
    if(sel != ERRO){
80007afc:	fe442703          	lw	a4,-28(s0)
80007b00:	fff00793          	li	a5,-1
80007b04:	04f70263          	beq	a4,a5,80007b48 <API_CheckMessagePipe+0x210>
/casa/workspace/Chronos-RISCV6/FreeRTOS/Debug/../FreeRTOS/chronos.c:582
        TaskList[sel >> 8].MessagePipe[sel & 0x000000FF].status == PIPE_TRANSMITTING;
80007b08:	fe442783          	lw	a5,-28(s0)
80007b0c:	0087d613          	srli	a2,a5,0x8
80007b10:	fe442783          	lw	a5,-28(s0)
80007b14:	0ff7f713          	andi	a4,a5,255
80007b18:	800236b7          	lui	a3,0x80023
80007b1c:	00070793          	mv	a5,a4
80007b20:	00379793          	slli	a5,a5,0x3
80007b24:	00e787b3          	add	a5,a5,a4
80007b28:	00679793          	slli	a5,a5,0x6
80007b2c:	00001737          	lui	a4,0x1
80007b30:	98470713          	addi	a4,a4,-1660 # 984 <HEAP_SIZE-0xf67c>
80007b34:	02e60733          	mul	a4,a2,a4
80007b38:	00e78733          	add	a4,a5,a4
80007b3c:	65868793          	addi	a5,a3,1624 # 80023658 <__stack_top+0xfffdc6c8>
80007b40:	00f707b3          	add	a5,a4,a5
80007b44:	0307a783          	lw	a5,48(a5)
/casa/workspace/Chronos-RISCV6/FreeRTOS/Debug/../FreeRTOS/chronos.c:585
    }
    //vTaskExitCritical();
    return sel;
80007b48:	fe442783          	lw	a5,-28(s0)
/casa/workspace/Chronos-RISCV6/FreeRTOS/Debug/../FreeRTOS/chronos.c:586
}
80007b4c:	00078513          	mv	a0,a5
80007b50:	02c12403          	lw	s0,44(sp)
80007b54:	03010113          	addi	sp,sp,48
80007b58:	00008067          	ret

80007b5c <API_AddPendingReq>:
API_AddPendingReq():
/casa/workspace/Chronos-RISCV6/FreeRTOS/Debug/../FreeRTOS/chronos.c:588

void API_AddPendingReq(unsigned int requester_task_id, unsigned int task_app_id, unsigned int producer_task_id){
80007b5c:	fd010113          	addi	sp,sp,-48
80007b60:	02112623          	sw	ra,44(sp)
80007b64:	02812423          	sw	s0,40(sp)
80007b68:	03010413          	addi	s0,sp,48
80007b6c:	fca42e23          	sw	a0,-36(s0)
80007b70:	fcb42c23          	sw	a1,-40(s0)
80007b74:	fcc42a23          	sw	a2,-44(s0)
/casa/workspace/Chronos-RISCV6/FreeRTOS/Debug/../FreeRTOS/chronos.c:589
    unsigned int slot = API_GetTaskSlot(producer_task_id, task_app_id);
80007b78:	fd842583          	lw	a1,-40(s0)
80007b7c:	fd442503          	lw	a0,-44(s0)
80007b80:	ba4fd0ef          	jal	ra,80004f24 <API_GetTaskSlot>
80007b84:	fea42623          	sw	a0,-20(s0)
/casa/workspace/Chronos-RISCV6/FreeRTOS/Debug/../FreeRTOS/chronos.c:590
    TaskList[slot].PendingReq[requester_task_id] = TRUE;
80007b88:	800237b7          	lui	a5,0x80023
80007b8c:	fec42683          	lw	a3,-20(s0)
80007b90:	26100713          	li	a4,609
80007b94:	02e686b3          	mul	a3,a3,a4
80007b98:	fdc42703          	lw	a4,-36(s0)
80007b9c:	00e68733          	add	a4,a3,a4
80007ba0:	24c70713          	addi	a4,a4,588
80007ba4:	00271713          	slli	a4,a4,0x2
80007ba8:	65878793          	addi	a5,a5,1624 # 80023658 <__stack_top+0xfffdc6c8>
80007bac:	00f707b3          	add	a5,a4,a5
80007bb0:	00100713          	li	a4,1
80007bb4:	00e7a023          	sw	a4,0(a5)
/casa/workspace/Chronos-RISCV6/FreeRTOS/Debug/../FreeRTOS/chronos.c:591
    return;
80007bb8:	00000013          	nop
/casa/workspace/Chronos-RISCV6/FreeRTOS/Debug/../FreeRTOS/chronos.c:592
}
80007bbc:	02c12083          	lw	ra,44(sp)
80007bc0:	02812403          	lw	s0,40(sp)
80007bc4:	03010113          	addi	sp,sp,48
80007bc8:	00008067          	ret

80007bcc <API_NI_Handler>:
API_NI_Handler():
/casa/workspace/Chronos-RISCV6/FreeRTOS/Debug/../FreeRTOS/chronos.c:595


void API_NI_Handler(){
80007bcc:	ff010113          	addi	sp,sp,-16
80007bd0:	00812623          	sw	s0,12(sp)
80007bd4:	01010413          	addi	s0,sp,16
/casa/workspace/Chronos-RISCV6/FreeRTOS/Debug/../FreeRTOS/chronos.c:596
    return;
80007bd8:	00000013          	nop
/casa/workspace/Chronos-RISCV6/FreeRTOS/Debug/../FreeRTOS/chronos.c:597
80007bdc:	00c12403          	lw	s0,12(sp)
80007be0:	01010113          	addi	sp,sp,16
80007be4:	00008067          	ret

80007be8 <PLIC_init>:
PLIC_init():
/casa/workspace/Chronos-RISCV6/FreeRTOS/Debug/../riscv_hal/riscv_plic.h:124
{
80007be8:	fe010113          	addi	sp,sp,-32
80007bec:	00812e23          	sw	s0,28(sp)
80007bf0:	02010413          	addi	s0,sp,32
/casa/workspace/Chronos-RISCV6/FreeRTOS/Debug/../riscv_hal/riscv_plic.h:126
    unsigned long hart_id = read_csr(mhartid);
80007bf4:	f14027f3          	csrr	a5,mhartid
80007bf8:	fef42423          	sw	a5,-24(s0)
80007bfc:	fe842783          	lw	a5,-24(s0)
80007c00:	fef42223          	sw	a5,-28(s0)
/casa/workspace/Chronos-RISCV6/FreeRTOS/Debug/../riscv_hal/riscv_plic.h:129
    for(inc = 0; inc < ((PLIC_NUM_SOURCES + 32u) / 32u); ++inc)
80007c04:	fe042623          	sw	zero,-20(s0)
80007c08:	03c0006f          	j	80007c44 <PLIC_init+0x5c>
/casa/workspace/Chronos-RISCV6/FreeRTOS/Debug/../riscv_hal/riscv_plic.h:131 (discriminator 3)
        PLIC->TARGET_ENABLES[hart_id].ENABLES[inc] = 0;
80007c0c:	40000737          	lui	a4,0x40000
80007c10:	fe442783          	lw	a5,-28(s0)
80007c14:	00579693          	slli	a3,a5,0x5
80007c18:	fec42783          	lw	a5,-20(s0)
80007c1c:	00f686b3          	add	a3,a3,a5
80007c20:	000017b7          	lui	a5,0x1
80007c24:	80078793          	addi	a5,a5,-2048 # 800 <HEAP_SIZE-0xf800>
80007c28:	00f687b3          	add	a5,a3,a5
80007c2c:	00279793          	slli	a5,a5,0x2
80007c30:	00f707b3          	add	a5,a4,a5
80007c34:	0007a023          	sw	zero,0(a5)
/casa/workspace/Chronos-RISCV6/FreeRTOS/Debug/../riscv_hal/riscv_plic.h:129 (discriminator 3)
    for(inc = 0; inc < ((PLIC_NUM_SOURCES + 32u) / 32u); ++inc)
80007c38:	fec42783          	lw	a5,-20(s0)
80007c3c:	00178793          	addi	a5,a5,1
80007c40:	fef42623          	sw	a5,-20(s0)
/casa/workspace/Chronos-RISCV6/FreeRTOS/Debug/../riscv_hal/riscv_plic.h:129 (discriminator 1)
80007c44:	fec42783          	lw	a5,-20(s0)
80007c48:	fc0782e3          	beqz	a5,80007c0c <PLIC_init+0x24>
/casa/workspace/Chronos-RISCV6/FreeRTOS/Debug/../riscv_hal/riscv_plic.h:137
    for(inc = 0; inc < PLIC_NUM_SOURCES; ++inc)
80007c4c:	fe042623          	sw	zero,-20(s0)
80007c50:	0240006f          	j	80007c74 <PLIC_init+0x8c>
/casa/workspace/Chronos-RISCV6/FreeRTOS/Debug/../riscv_hal/riscv_plic.h:139 (discriminator 3)
        PLIC->SOURCE_PRIORITY[inc] = 0;
80007c54:	40000737          	lui	a4,0x40000
80007c58:	fec42783          	lw	a5,-20(s0)
80007c5c:	00279793          	slli	a5,a5,0x2
80007c60:	00f707b3          	add	a5,a4,a5
80007c64:	0007a023          	sw	zero,0(a5)
/casa/workspace/Chronos-RISCV6/FreeRTOS/Debug/../riscv_hal/riscv_plic.h:137 (discriminator 3)
    for(inc = 0; inc < PLIC_NUM_SOURCES; ++inc)
80007c68:	fec42783          	lw	a5,-20(s0)
80007c6c:	00178793          	addi	a5,a5,1
80007c70:	fef42623          	sw	a5,-20(s0)
/casa/workspace/Chronos-RISCV6/FreeRTOS/Debug/../riscv_hal/riscv_plic.h:137 (discriminator 1)
80007c74:	fec42703          	lw	a4,-20(s0)
80007c78:	01e00793          	li	a5,30
80007c7c:	fce7fce3          	bleu	a4,a5,80007c54 <PLIC_init+0x6c>
/casa/workspace/Chronos-RISCV6/FreeRTOS/Debug/../riscv_hal/riscv_plic.h:143
    PLIC->TARGET[hart_id].PRIORITY_THRESHOLD = 0;
80007c80:	40000737          	lui	a4,0x40000
80007c84:	fe442783          	lw	a5,-28(s0)
80007c88:	20078793          	addi	a5,a5,512
80007c8c:	00c79793          	slli	a5,a5,0xc
80007c90:	00f707b3          	add	a5,a4,a5
80007c94:	0007a023          	sw	zero,0(a5)
/casa/workspace/Chronos-RISCV6/FreeRTOS/Debug/../riscv_hal/riscv_plic.h:146
    set_csr(mie, MIP_MEIP);
80007c98:	000017b7          	lui	a5,0x1
80007c9c:	80078793          	addi	a5,a5,-2048 # 800 <HEAP_SIZE-0xf800>
80007ca0:	3047a7f3          	csrrs	a5,mie,a5
80007ca4:	fef42023          	sw	a5,-32(s0)
/casa/workspace/Chronos-RISCV6/FreeRTOS/Debug/../riscv_hal/riscv_plic.h:147
}
80007ca8:	00000013          	nop
80007cac:	01c12403          	lw	s0,28(sp)
80007cb0:	02010113          	addi	sp,sp,32
80007cb4:	00008067          	ret

80007cb8 <main>:
main():
/casa/workspace/Chronos-RISCV6/FreeRTOS/Debug/../main.c:60
extern volatile unsigned int NI_IRCount;

/*-----------------------------------------------------------*/

int main( void )
{
80007cb8:	fd010113          	addi	sp,sp,-48
80007cbc:	02112623          	sw	ra,44(sp)
80007cc0:	02812423          	sw	s0,40(sp)
80007cc4:	03010413          	addi	s0,sp,48
/casa/workspace/Chronos-RISCV6/FreeRTOS/Debug/../main.c:62
	char str[20];
    PLIC_init();
80007cc8:	f21ff0ef          	jal	ra,80007be8 <PLIC_init>
/casa/workspace/Chronos-RISCV6/FreeRTOS/Debug/../main.c:68

    /**************************************************************************
    * Initialize CoreUART with its base address, baud value, and line
    * configuration.
    *************************************************************************/
    UART_init(&g_uart, COREUARTAPB0_BASE_ADDR, BAUD_VALUE_115200,
80007ccc:	00100693          	li	a3,1
80007cd0:	02c00613          	li	a2,44
80007cd4:	700015b7          	lui	a1,0x70001
80007cd8:	800277b7          	lui	a5,0x80027
80007cdc:	f7878513          	addi	a0,a5,-136 # 80026f78 <__stack_top+0xfffdffe8>
80007ce0:	b4cf90ef          	jal	ra,8000102c <UART_init>
/casa/workspace/Chronos-RISCV6/FreeRTOS/Debug/../main.c:74
             (DATA_8_BITS | NO_PARITY) );
    
	/**************************************************************************
    * Initialize the Chronos platform stuff
    *************************************************************************/
	UART_polled_tx_string( &g_uart, (const uint8_t *)"\n Chronos platform initializing... \n" );
80007ce4:	800097b7          	lui	a5,0x80009
80007ce8:	10c78593          	addi	a1,a5,268 # 8000910c <__stack_top+0xfffc217c>
80007cec:	800277b7          	lui	a5,0x80027
80007cf0:	f7878513          	addi	a0,a5,-136 # 80026f78 <__stack_top+0xfffdffe8>
80007cf4:	d04f90ef          	jal	ra,800011f8 <UART_polled_tx_string>
/casa/workspace/Chronos-RISCV6/FreeRTOS/Debug/../main.c:75
	Chronos_init();
80007cf8:	e8cfe0ef          	jal	ra,80006384 <Chronos_init>
/casa/workspace/Chronos-RISCV6/FreeRTOS/Debug/../main.c:76
	UART_polled_tx_string( &g_uart, (const uint8_t *)"\n This terminal belongs to the address: " );
80007cfc:	800097b7          	lui	a5,0x80009
80007d00:	13478593          	addi	a1,a5,308 # 80009134 <__stack_top+0xfffc21a4>
80007d04:	800277b7          	lui	a5,0x80027
80007d08:	f7878513          	addi	a0,a5,-136 # 80026f78 <__stack_top+0xfffdffe8>
80007d0c:	cecf90ef          	jal	ra,800011f8 <UART_polled_tx_string>
/casa/workspace/Chronos-RISCV6/FreeRTOS/Debug/../main.c:77
	myItoa(ProcessorAddr, str, 16);
80007d10:	800277b7          	lui	a5,0x80027
80007d14:	f807a783          	lw	a5,-128(a5) # 80026f80 <__stack_top+0xfffdfff0>
80007d18:	00078713          	mv	a4,a5
80007d1c:	fdc40793          	addi	a5,s0,-36
80007d20:	01000613          	li	a2,16
80007d24:	00078593          	mv	a1,a5
80007d28:	00070513          	mv	a0,a4
80007d2c:	bb5fe0ef          	jal	ra,800068e0 <myItoa>
/casa/workspace/Chronos-RISCV6/FreeRTOS/Debug/../main.c:78
    UART_polled_tx_string( &g_uart, (const uint8_t *)str); UART_polled_tx_string( &g_uart, (const uint8_t *)"\n");
80007d30:	fdc40793          	addi	a5,s0,-36
80007d34:	00078593          	mv	a1,a5
80007d38:	800277b7          	lui	a5,0x80027
80007d3c:	f7878513          	addi	a0,a5,-136 # 80026f78 <__stack_top+0xfffdffe8>
80007d40:	cb8f90ef          	jal	ra,800011f8 <UART_polled_tx_string>
80007d44:	800097b7          	lui	a5,0x80009
80007d48:	16078593          	addi	a1,a5,352 # 80009160 <__stack_top+0xfffc21d0>
80007d4c:	800277b7          	lui	a5,0x80027
80007d50:	f7878513          	addi	a0,a5,-136 # 80026f78 <__stack_top+0xfffdffe8>
80007d54:	ca4f90ef          	jal	ra,800011f8 <UART_polled_tx_string>
/casa/workspace/Chronos-RISCV6/FreeRTOS/Debug/../main.c:81
	
	/* Create the NI Handler task */
	xTaskCreate( vNI_RX_HandlerTask, "RX_TASK", 1024, NULL, (tskIDLE_PRIORITY + 2), &NI_RX_Handler );
80007d58:	00000893          	li	a7,0
80007d5c:	00000813          	li	a6,0
80007d60:	800237b7          	lui	a5,0x80023
80007d64:	88c78793          	addi	a5,a5,-1908 # 8002288c <__stack_top+0xfffdb8fc>
80007d68:	00200713          	li	a4,2
80007d6c:	00000693          	li	a3,0
80007d70:	40000613          	li	a2,1024
80007d74:	800095b7          	lui	a1,0x80009
80007d78:	16458593          	addi	a1,a1,356 # 80009164 <__stack_top+0xfffc21d4>
80007d7c:	80008537          	lui	a0,0x80008
80007d80:	e9c50513          	addi	a0,a0,-356 # 80007e9c <__stack_top+0xfffc0f0c>
80007d84:	9a8fa0ef          	jal	ra,80001f2c <xTaskGenericCreate>
/casa/workspace/Chronos-RISCV6/FreeRTOS/Debug/../main.c:82
	xTaskCreate( vNI_TX_HandlerTask, "TX_TASK", 1024, NULL, (tskIDLE_PRIORITY + 3), &NI_TX_Handler );
80007d88:	00000893          	li	a7,0
80007d8c:	00000813          	li	a6,0
80007d90:	800237b7          	lui	a5,0x80023
80007d94:	d8078793          	addi	a5,a5,-640 # 80022d80 <__stack_top+0xfffdbdf0>
80007d98:	00300713          	li	a4,3
80007d9c:	00000693          	li	a3,0
80007da0:	40000613          	li	a2,1024
80007da4:	800095b7          	lui	a1,0x80009
80007da8:	16c58593          	addi	a1,a1,364 # 8000916c <__stack_top+0xfffc21dc>
80007dac:	80008537          	lui	a0,0x80008
80007db0:	6cc50513          	addi	a0,a0,1740 # 800086cc <__stack_top+0xfffc173c>
80007db4:	978fa0ef          	jal	ra,80001f2c <xTaskGenericCreate>
/casa/workspace/Chronos-RISCV6/FreeRTOS/Debug/../main.c:83
	xTaskCreate( vNI_TMR_HandlerTask, "TMR_TASK", 1024, NULL, (tskIDLE_PRIORITY + 4), &NI_TMR_Handler );
80007db8:	00000893          	li	a7,0
80007dbc:	00000813          	li	a6,0
80007dc0:	800237b7          	lui	a5,0x80023
80007dc4:	d8878793          	addi	a5,a5,-632 # 80022d88 <__stack_top+0xfffdbdf8>
80007dc8:	00400713          	li	a4,4
80007dcc:	00000693          	li	a3,0
80007dd0:	40000613          	li	a2,1024
80007dd4:	800095b7          	lui	a1,0x80009
80007dd8:	17458593          	addi	a1,a1,372 # 80009174 <__stack_top+0xfffc21e4>
80007ddc:	80008537          	lui	a0,0x80008
80007de0:	73c50513          	addi	a0,a0,1852 # 8000873c <__stack_top+0xfffc17ac>
80007de4:	948fa0ef          	jal	ra,80001f2c <xTaskGenericCreate>
/casa/workspace/Chronos-RISCV6/FreeRTOS/Debug/../main.c:85

	if (ProcessorAddr == 0x0000){
80007de8:	800277b7          	lui	a5,0x80027
80007dec:	f807a783          	lw	a5,-128(a5) # 80026f80 <__stack_top+0xfffdfff0>
80007df0:	04079663          	bnez	a5,80007e3c <main+0x184>
/casa/workspace/Chronos-RISCV6/FreeRTOS/Debug/../main.c:86
		UART_polled_tx_string( &g_uart, (const uint8_t *)"\n This processor is the Global Master: \n" );
80007df4:	800097b7          	lui	a5,0x80009
80007df8:	18078593          	addi	a1,a5,384 # 80009180 <__stack_top+0xfffc21f0>
80007dfc:	800277b7          	lui	a5,0x80027
80007e00:	f7878513          	addi	a0,a5,-136 # 80026f78 <__stack_top+0xfffdffe8>
80007e04:	bf4f90ef          	jal	ra,800011f8 <UART_polled_tx_string>
/casa/workspace/Chronos-RISCV6/FreeRTOS/Debug/../main.c:88
		/* Create the GlobalManager task */
		xTaskCreate( GlobalManagerTask, "GlobalMaster", 1024*6, NULL, (tskIDLE_PRIORITY + 1), NULL );
80007e08:	00000893          	li	a7,0
80007e0c:	00000813          	li	a6,0
80007e10:	00000793          	li	a5,0
80007e14:	00100713          	li	a4,1
80007e18:	00000693          	li	a3,0
80007e1c:	00002637          	lui	a2,0x2
80007e20:	80060613          	addi	a2,a2,-2048 # 1800 <HEAP_SIZE-0xe800>
80007e24:	800095b7          	lui	a1,0x80009
80007e28:	1ac58593          	addi	a1,a1,428 # 800091ac <__stack_top+0xfffc221c>
80007e2c:	80008537          	lui	a0,0x80008
80007e30:	79050513          	addi	a0,a0,1936 # 80008790 <__stack_top+0xfffc1800>
80007e34:	8f8fa0ef          	jal	ra,80001f2c <xTaskGenericCreate>
80007e38:	0180006f          	j	80007e50 <main+0x198>
/casa/workspace/Chronos-RISCV6/FreeRTOS/Debug/../main.c:90
	} else {
		UART_polled_tx_string( &g_uart, (const uint8_t *)"\n This processor is a Slave: \n" );
80007e3c:	800097b7          	lui	a5,0x80009
80007e40:	1bc78593          	addi	a1,a5,444 # 800091bc <__stack_top+0xfffc222c>
80007e44:	800277b7          	lui	a5,0x80027
80007e48:	f7878513          	addi	a0,a5,-136 # 80026f78 <__stack_top+0xfffdffe8>
80007e4c:	bacf90ef          	jal	ra,800011f8 <UART_polled_tx_string>
/casa/workspace/Chronos-RISCV6/FreeRTOS/Debug/../main.c:95
	}
	//xTaskCreate( NI_Handler, "Handler", 1024*6, NULL, (tskIDLE_PRIORITY + 2), NULL );

	/* Start the kernel.  From here on, only tasks and interrupts will run. */
	vTaskStartScheduler();
80007e50:	fe4fa0ef          	jal	ra,80002634 <vTaskStartScheduler>
/casa/workspace/Chronos-RISCV6/FreeRTOS/Debug/../main.c:98

	/* Exit FreeRTOS */
	return 0;
80007e54:	00000793          	li	a5,0
/casa/workspace/Chronos-RISCV6/FreeRTOS/Debug/../main.c:99
}
80007e58:	00078513          	mv	a0,a5
80007e5c:	02c12083          	lw	ra,44(sp)
80007e60:	02812403          	lw	s0,40(sp)
80007e64:	03010113          	addi	sp,sp,48
80007e68:	00008067          	ret

80007e6c <vApplicationMallocFailedHook>:
vApplicationMallocFailedHook():
/casa/workspace/Chronos-RISCV6/FreeRTOS/Debug/../main.c:104

/*-----------------------------------------------------------*/

void vApplicationMallocFailedHook( void )
{
80007e6c:	ff010113          	addi	sp,sp,-16
80007e70:	00812623          	sw	s0,12(sp)
80007e74:	01010413          	addi	s0,sp,16
/casa/workspace/Chronos-RISCV6/FreeRTOS/Debug/../main.c:115
	demo application.  If heap_1.c or heap_2.c are used, then the size of the
	heap available to pvPortMalloc() is defined by configTOTAL_HEAP_SIZE in
	FreeRTOSConfig.h, and the xPortGetFreeHeapSize() API function can be used
	to query the size of free heap space that remains (although it does not
	provide information on how the remaining heap might be fragmented). */
	taskDISABLE_INTERRUPTS();
80007e78:	30047073          	csrci	mstatus,8
/casa/workspace/Chronos-RISCV6/FreeRTOS/Debug/../main.c:116 (discriminator 1)
	for( ;; );
80007e7c:	0000006f          	j	80007e7c <vApplicationMallocFailedHook+0x10>

80007e80 <vApplicationIdleHook>:
vApplicationIdleHook():
/casa/workspace/Chronos-RISCV6/FreeRTOS/Debug/../main.c:121
}
/*-----------------------------------------------------------*/

void vApplicationIdleHook( void )
{
80007e80:	ff010113          	addi	sp,sp,-16
80007e84:	00812623          	sw	s0,12(sp)
80007e88:	01010413          	addi	s0,sp,16
/casa/workspace/Chronos-RISCV6/FreeRTOS/Debug/../main.c:131
	specified, or call vTaskDelay()).  If the application makes use of the
	vTaskDelete() API function (as this demo application does) then it is also
	important that vApplicationIdleHook() is permitted to return to its calling
	function, because it is the responsibility of the idle task to clean up
	memory allocated by the kernel to any task that has since been deleted. */
}
80007e8c:	00000013          	nop
80007e90:	00c12403          	lw	s0,12(sp)
80007e94:	01010113          	addi	sp,sp,16
80007e98:	00008067          	ret

80007e9c <vNI_RX_HandlerTask>:
vNI_RX_HandlerTask():
/casa/workspace/Chronos-RISCV6/FreeRTOS/Debug/../main.c:150
/*-----------------------------------------------------------*/


/* A task that blocks waiting to be notified that the peripheral
needs servicing. */
void vNI_RX_HandlerTask( void *pvParameters ){
80007e9c:	fd010113          	addi	sp,sp,-48
80007ea0:	02112623          	sw	ra,44(sp)
80007ea4:	02812423          	sw	s0,40(sp)
80007ea8:	03010413          	addi	s0,sp,48
80007eac:	fca42e23          	sw	a0,-36(s0)
/casa/workspace/Chronos-RISCV6/FreeRTOS/Debug/../main.c:153
	BaseType_t xEvent;
	unsigned int aux, service;
	const TickType_t xBlockTime = 1000000;
80007eb0:	000f47b7          	lui	a5,0xf4
80007eb4:	24078793          	addi	a5,a5,576 # f4240 <RAM_SIZE+0x74240>
80007eb8:	fef42423          	sw	a5,-24(s0)
/casa/workspace/Chronos-RISCV6/FreeRTOS/Debug/../main.c:158
	uint32_t ulNotifiedValue;

    for( ;; ){
		/* Blocks the task until the NI interrupts it */
        ulNotifiedValue = ulTaskNotifyTake( pdFALSE,
80007ebc:	fe842583          	lw	a1,-24(s0)
80007ec0:	00000513          	li	a0,0
80007ec4:	a00fb0ef          	jal	ra,800030c4 <ulTaskNotifyTake>
80007ec8:	fea42223          	sw	a0,-28(s0)
/casa/workspace/Chronos-RISCV6/FreeRTOS/Debug/../main.c:170
        // else{
        //     /* Did not receive a notification within the expected time. */
		// 	UART_polled_tx_string( &g_uart, (const uint8_t *)" Time out NI RX...\r\n" );
        // }

		vTaskEnterCritical();
80007ecc:	96cfb0ef          	jal	ra,80003038 <vTaskEnterCritical>
/casa/workspace/Chronos-RISCV6/FreeRTOS/Debug/../main.c:171
        if( HW_get_32bit_reg(NI_RX) == NI_STATUS_INTER || HW_get_32bit_reg(NI_RX) == NI_STATUS_WAITING) {
80007ed0:	500007b7          	lui	a5,0x50000
80007ed4:	00c78513          	addi	a0,a5,12 # 5000000c <RAM_SIZE+0x4ff8000c>
80007ed8:	884f90ef          	jal	ra,80000f5c <HW_get_32bit_reg>
80007edc:	00050713          	mv	a4,a0
80007ee0:	000017b7          	lui	a5,0x1
80007ee4:	f0f78793          	addi	a5,a5,-241 # f0f <HEAP_SIZE-0xf0f1>
80007ee8:	00f70e63          	beq	a4,a5,80007f04 <vNI_RX_HandlerTask+0x68>
/casa/workspace/Chronos-RISCV6/FreeRTOS/Debug/../main.c:171 (discriminator 1)
80007eec:	500007b7          	lui	a5,0x50000
80007ef0:	00c78513          	addi	a0,a5,12 # 5000000c <RAM_SIZE+0x4ff8000c>
80007ef4:	868f90ef          	jal	ra,80000f5c <HW_get_32bit_reg>
80007ef8:	00050713          	mv	a4,a0
80007efc:	02200793          	li	a5,34
80007f00:	7af71663          	bne	a4,a5,800086ac <vNI_RX_HandlerTask+0x810>
/casa/workspace/Chronos-RISCV6/FreeRTOS/Debug/../main.c:172
            prints("RX interruption catched\n");
80007f04:	800097b7          	lui	a5,0x80009
80007f08:	1dc78513          	addi	a0,a5,476 # 800091dc <__stack_top+0xfffc224c>
80007f0c:	d6cfe0ef          	jal	ra,80006478 <prints>
/casa/workspace/Chronos-RISCV6/FreeRTOS/Debug/../main.c:173
            service = incommingPacket.service;
80007f10:	800237b7          	lui	a5,0x80023
80007f14:	ad478793          	addi	a5,a5,-1324 # 80022ad4 <__stack_top+0xfffdbb44>
80007f18:	0087a783          	lw	a5,8(a5)
80007f1c:	fef42023          	sw	a5,-32(s0)
/casa/workspace/Chronos-RISCV6/FreeRTOS/Debug/../main.c:174
            incommingPacket.service = SOLVED;
80007f20:	800237b7          	lui	a5,0x80023
80007f24:	ad478793          	addi	a5,a5,-1324 # 80022ad4 <__stack_top+0xfffdbb44>
80007f28:	00010737          	lui	a4,0x10
80007f2c:	fff70713          	addi	a4,a4,-1 # ffff <HEAP_SIZE-0x1>
80007f30:	00e7a423          	sw	a4,8(a5)
80007f34:	fe042703          	lw	a4,-32(s0)
80007f38:	05500793          	li	a5,85
80007f3c:	68f70063          	beq	a4,a5,800085bc <vNI_RX_HandlerTask+0x720>
80007f40:	fe042703          	lw	a4,-32(s0)
80007f44:	05500793          	li	a5,85
80007f48:	06e7e063          	bltu	a5,a4,80007fa8 <vNI_RX_HandlerTask+0x10c>
80007f4c:	fe042703          	lw	a4,-32(s0)
80007f50:	02100793          	li	a5,33
80007f54:	5ef70463          	beq	a4,a5,8000853c <vNI_RX_HandlerTask+0x6a0>
80007f58:	fe042703          	lw	a4,-32(s0)
80007f5c:	02100793          	li	a5,33
80007f60:	02e7e063          	bltu	a5,a4,80007f80 <vNI_RX_HandlerTask+0xe4>
80007f64:	fe042703          	lw	a4,-32(s0)
80007f68:	01000793          	li	a5,16
80007f6c:	46f70a63          	beq	a4,a5,800083e0 <vNI_RX_HandlerTask+0x544>
80007f70:	fe042703          	lw	a4,-32(s0)
80007f74:	02000793          	li	a5,32
80007f78:	54f70063          	beq	a4,a5,800084b8 <vNI_RX_HandlerTask+0x61c>
80007f7c:	7040006f          	j	80008680 <vNI_RX_HandlerTask+0x7e4>
80007f80:	fe042703          	lw	a4,-32(s0)
80007f84:	03300793          	li	a5,51
80007f88:	26f70063          	beq	a4,a5,800081e8 <vNI_RX_HandlerTask+0x34c>
80007f8c:	fe042703          	lw	a4,-32(s0)
80007f90:	03500793          	li	a5,53
80007f94:	28f70a63          	beq	a4,a5,80008228 <vNI_RX_HandlerTask+0x38c>
80007f98:	fe042703          	lw	a4,-32(s0)
80007f9c:	03000793          	li	a5,48
80007fa0:	0cf70063          	beq	a4,a5,80008060 <vNI_RX_HandlerTask+0x1c4>
80007fa4:	6dc0006f          	j	80008680 <vNI_RX_HandlerTask+0x7e4>
80007fa8:	fe042703          	lw	a4,-32(s0)
80007fac:	40000793          	li	a5,1024
80007fb0:	2af70c63          	beq	a4,a5,80008268 <vNI_RX_HandlerTask+0x3cc>
80007fb4:	fe042703          	lw	a4,-32(s0)
80007fb8:	40000793          	li	a5,1024
80007fbc:	02e7e063          	bltu	a5,a4,80007fdc <vNI_RX_HandlerTask+0x140>
80007fc0:	fe042703          	lw	a4,-32(s0)
80007fc4:	05600793          	li	a5,86
80007fc8:	62f70c63          	beq	a4,a5,80008600 <vNI_RX_HandlerTask+0x764>
80007fcc:	fe042703          	lw	a4,-32(s0)
80007fd0:	20000793          	li	a5,512
80007fd4:	02f70a63          	beq	a4,a5,80008008 <vNI_RX_HandlerTask+0x16c>
80007fd8:	6a80006f          	j	80008680 <vNI_RX_HandlerTask+0x7e4>
80007fdc:	fe042703          	lw	a4,-32(s0)
80007fe0:	50000793          	li	a5,1280
80007fe4:	16f70263          	beq	a4,a5,80008148 <vNI_RX_HandlerTask+0x2ac>
80007fe8:	fe042703          	lw	a4,-32(s0)
80007fec:	000107b7          	lui	a5,0x10
80007ff0:	fff78793          	addi	a5,a5,-1 # ffff <HEAP_SIZE-0x1>
80007ff4:	66f70e63          	beq	a4,a5,80008670 <vNI_RX_HandlerTask+0x7d4>
80007ff8:	fe042703          	lw	a4,-32(s0)
80007ffc:	40100793          	li	a5,1025
80008000:	2ef70c63          	beq	a4,a5,800082f8 <vNI_RX_HandlerTask+0x45c>
80008004:	67c0006f          	j	80008680 <vNI_RX_HandlerTask+0x7e4>
/casa/workspace/Chronos-RISCV6/FreeRTOS/Debug/../main.c:177
            switch (service){
                case REPOSITORY_APP_INFO: // When the repository informs the GM that exist a new Application available:
                    prints("REPOSITORY_APP_INFO\n");
80008008:	800097b7          	lui	a5,0x80009
8000800c:	1f878513          	addi	a0,a5,504 # 800091f8 <__stack_top+0xfffc2268>
80008010:	c68fe0ef          	jal	ra,80006478 <prints>
/casa/workspace/Chronos-RISCV6/FreeRTOS/Debug/../main.c:178
                    API_AddApplication(incommingPacket.application_id,
80008014:	800237b7          	lui	a5,0x80023
80008018:	ad478793          	addi	a5,a5,-1324 # 80022ad4 <__stack_top+0xfffdbb44>
8000801c:	00c7a703          	lw	a4,12(a5)
80008020:	800237b7          	lui	a5,0x80023
80008024:	ad478793          	addi	a5,a5,-1324 # 80022ad4 <__stack_top+0xfffdbb44>
80008028:	0107a583          	lw	a1,16(a5)
8000802c:	800237b7          	lui	a5,0x80023
80008030:	ad478793          	addi	a5,a5,-1324 # 80022ad4 <__stack_top+0xfffdbb44>
80008034:	0147a603          	lw	a2,20(a5)
80008038:	800237b7          	lui	a5,0x80023
8000803c:	ad478793          	addi	a5,a5,-1324 # 80022ad4 <__stack_top+0xfffdbb44>
80008040:	0187a783          	lw	a5,24(a5)
80008044:	00078693          	mv	a3,a5
80008048:	00070513          	mv	a0,a4
8000804c:	be4fb0ef          	jal	ra,80003430 <API_AddApplication>
/casa/workspace/Chronos-RISCV6/FreeRTOS/Debug/../main.c:183
                                    incommingPacket.aplication_period, 
                                    incommingPacket.application_executions, 
                                    incommingPacket.application_n_tasks);
                    //HW_set_32bit_reg(NI_RX, DONE);
                    prints("1NI_RX DONE!\n");
80008050:	800097b7          	lui	a5,0x80009
80008054:	21078513          	addi	a0,a5,528 # 80009210 <__stack_top+0xfffc2280>
80008058:	c20fe0ef          	jal	ra,80006478 <prints>
/casa/workspace/Chronos-RISCV6/FreeRTOS/Debug/../main.c:184
                    break;
8000805c:	6540006f          	j	800086b0 <vNI_RX_HandlerTask+0x814>
/casa/workspace/Chronos-RISCV6/FreeRTOS/Debug/../main.c:187
                
                case TASK_ALLOCATION_SEND: // When the GM asks one Slave to allocate one task
                    prints("TASK_ALLOCATION_SEND\n");
80008060:	800097b7          	lui	a5,0x80009
80008064:	22078513          	addi	a0,a5,544 # 80009220 <__stack_top+0xfffc2290>
80008068:	c10fe0ef          	jal	ra,80006478 <prints>
/casa/workspace/Chronos-RISCV6/FreeRTOS/Debug/../main.c:188
                    aux = API_TaskAllocation(incommingPacket.task_id,
8000806c:	800237b7          	lui	a5,0x80023
80008070:	ad478793          	addi	a5,a5,-1324 # 80022ad4 <__stack_top+0xfffdbb44>
80008074:	00c7a503          	lw	a0,12(a5)
80008078:	800237b7          	lui	a5,0x80023
8000807c:	ad478793          	addi	a5,a5,-1324 # 80022ad4 <__stack_top+0xfffdbb44>
80008080:	0107a583          	lw	a1,16(a5)
80008084:	800237b7          	lui	a5,0x80023
80008088:	ad478793          	addi	a5,a5,-1324 # 80022ad4 <__stack_top+0xfffdbb44>
8000808c:	0147a603          	lw	a2,20(a5)
80008090:	800237b7          	lui	a5,0x80023
80008094:	ad478793          	addi	a5,a5,-1324 # 80022ad4 <__stack_top+0xfffdbb44>
80008098:	0187a683          	lw	a3,24(a5)
8000809c:	800237b7          	lui	a5,0x80023
800080a0:	ad478793          	addi	a5,a5,-1324 # 80022ad4 <__stack_top+0xfffdbb44>
800080a4:	01c7a783          	lw	a5,28(a5)
800080a8:	00078713          	mv	a4,a5
800080ac:	bd5fc0ef          	jal	ra,80004c80 <API_TaskAllocation>
800080b0:	fea42623          	sw	a0,-20(s0)
/casa/workspace/Chronos-RISCV6/FreeRTOS/Debug/../main.c:193
                                             incommingPacket.task_txt_size,
                                             incommingPacket.task_bss_size,
                                             incommingPacket.task_start_point,
                                             incommingPacket.task_app_id);
                    printsv("Task slot: ", aux);
800080b4:	fec42783          	lw	a5,-20(s0)
800080b8:	00078593          	mv	a1,a5
800080bc:	800097b7          	lui	a5,0x80009
800080c0:	23878513          	addi	a0,a5,568 # 80009238 <__stack_top+0xfffc22a8>
800080c4:	c60fe0ef          	jal	ra,80006524 <printsv>
/casa/workspace/Chronos-RISCV6/FreeRTOS/Debug/../main.c:194
                    printsv("Task slot TaskAddr: ", TaskList[aux].taskAddr);
800080c8:	800237b7          	lui	a5,0x80023
800080cc:	fec42683          	lw	a3,-20(s0)
800080d0:	65878713          	addi	a4,a5,1624 # 80023658 <__stack_top+0xfffdc6c8>
800080d4:	000017b7          	lui	a5,0x1
800080d8:	98478793          	addi	a5,a5,-1660 # 984 <HEAP_SIZE-0xf67c>
800080dc:	02f687b3          	mul	a5,a3,a5
800080e0:	00f707b3          	add	a5,a4,a5
800080e4:	0287a783          	lw	a5,40(a5)
800080e8:	00078593          	mv	a1,a5
800080ec:	800097b7          	lui	a5,0x80009
800080f0:	24478513          	addi	a0,a5,580 # 80009244 <__stack_top+0xfffc22b4>
800080f4:	c30fe0ef          	jal	ra,80006524 <printsv>
/casa/workspace/Chronos-RISCV6/FreeRTOS/Debug/../main.c:196
                    // Informs the NI were to write the application
                    HW_set_32bit_reg(NI_RX, TaskList[aux].taskAddr);
800080f8:	800237b7          	lui	a5,0x80023
800080fc:	fec42683          	lw	a3,-20(s0)
80008100:	65878713          	addi	a4,a5,1624 # 80023658 <__stack_top+0xfffdc6c8>
80008104:	000017b7          	lui	a5,0x1
80008108:	98478793          	addi	a5,a5,-1660 # 984 <HEAP_SIZE-0xf67c>
8000810c:	02f687b3          	mul	a5,a3,a5
80008110:	00f707b3          	add	a5,a4,a5
80008114:	0287a783          	lw	a5,40(a5)
80008118:	00078593          	mv	a1,a5
8000811c:	500007b7          	lui	a5,0x50000
80008120:	00c78513          	addi	a0,a5,12 # 5000000c <RAM_SIZE+0x4ff8000c>
80008124:	e31f80ef          	jal	ra,80000f54 <HW_set_32bit_reg>
/casa/workspace/Chronos-RISCV6/FreeRTOS/Debug/../main.c:197
                    incommingPacket.service = TASK_ALLOCATION_FINISHED;
80008128:	800237b7          	lui	a5,0x80023
8000812c:	ad478793          	addi	a5,a5,-1324 # 80022ad4 <__stack_top+0xfffdbb44>
80008130:	03300713          	li	a4,51
80008134:	00e7a423          	sw	a4,8(a5)
/casa/workspace/Chronos-RISCV6/FreeRTOS/Debug/../main.c:199
                    //HW_set_32bit_reg(NI_RX, DONE);
                    prints("2NI_RX DONE!\n");
80008138:	800097b7          	lui	a5,0x80009
8000813c:	25c78513          	addi	a0,a5,604 # 8000925c <__stack_top+0xfffc22cc>
80008140:	b38fe0ef          	jal	ra,80006478 <prints>
/casa/workspace/Chronos-RISCV6/FreeRTOS/Debug/../main.c:200
                    break;
80008144:	56c0006f          	j	800086b0 <vNI_RX_HandlerTask+0x814>
/casa/workspace/Chronos-RISCV6/FreeRTOS/Debug/../main.c:203
                
                case TASK_FINISH:
                    printsvsv("FINISHED: Task ", incommingPacket.task_id, "from application ", incommingPacket.task_app_id);
80008148:	800237b7          	lui	a5,0x80023
8000814c:	ad478793          	addi	a5,a5,-1324 # 80022ad4 <__stack_top+0xfffdbb44>
80008150:	00c7a783          	lw	a5,12(a5)
80008154:	00078713          	mv	a4,a5
80008158:	800237b7          	lui	a5,0x80023
8000815c:	ad478793          	addi	a5,a5,-1324 # 80022ad4 <__stack_top+0xfffdbb44>
80008160:	01c7a783          	lw	a5,28(a5)
80008164:	00078693          	mv	a3,a5
80008168:	800097b7          	lui	a5,0x80009
8000816c:	26c78613          	addi	a2,a5,620 # 8000926c <__stack_top+0xfffc22dc>
80008170:	00070593          	mv	a1,a4
80008174:	800097b7          	lui	a5,0x80009
80008178:	28078513          	addi	a0,a5,640 # 80009280 <__stack_top+0xfffc22f0>
8000817c:	bf0fe0ef          	jal	ra,8000656c <printsvsv>
/casa/workspace/Chronos-RISCV6/FreeRTOS/Debug/../main.c:204
                    API_ClearTaskSlotFromTile(incommingPacket.task_dest_addr, incommingPacket.task_app_id, incommingPacket.task_id);
80008180:	800237b7          	lui	a5,0x80023
80008184:	ad478793          	addi	a5,a5,-1324 # 80022ad4 <__stack_top+0xfffdbb44>
80008188:	0307a703          	lw	a4,48(a5)
8000818c:	800237b7          	lui	a5,0x80023
80008190:	ad478793          	addi	a5,a5,-1324 # 80022ad4 <__stack_top+0xfffdbb44>
80008194:	01c7a683          	lw	a3,28(a5)
80008198:	800237b7          	lui	a5,0x80023
8000819c:	ad478793          	addi	a5,a5,-1324 # 80022ad4 <__stack_top+0xfffdbb44>
800081a0:	00c7a783          	lw	a5,12(a5)
800081a4:	00078613          	mv	a2,a5
800081a8:	00068593          	mv	a1,a3
800081ac:	00070513          	mv	a0,a4
800081b0:	8a4fc0ef          	jal	ra,80004254 <API_ClearTaskSlotFromTile>
/casa/workspace/Chronos-RISCV6/FreeRTOS/Debug/../main.c:205
                    API_DealocateTask(incommingPacket.task_id, incommingPacket.task_app_id);
800081b4:	800237b7          	lui	a5,0x80023
800081b8:	ad478793          	addi	a5,a5,-1324 # 80022ad4 <__stack_top+0xfffdbb44>
800081bc:	00c7a703          	lw	a4,12(a5)
800081c0:	800237b7          	lui	a5,0x80023
800081c4:	ad478793          	addi	a5,a5,-1324 # 80022ad4 <__stack_top+0xfffdbb44>
800081c8:	01c7a783          	lw	a5,28(a5)
800081cc:	00078593          	mv	a1,a5
800081d0:	00070513          	mv	a0,a4
800081d4:	a21fb0ef          	jal	ra,80003bf4 <API_DealocateTask>
/casa/workspace/Chronos-RISCV6/FreeRTOS/Debug/../main.c:207
                    //HW_set_32bit_reg(NI_RX, DONE);
                    prints("3NI_RX DONE!\n");
800081d8:	800097b7          	lui	a5,0x80009
800081dc:	29078513          	addi	a0,a5,656 # 80009290 <__stack_top+0xfffc2300>
800081e0:	a98fe0ef          	jal	ra,80006478 <prints>
/casa/workspace/Chronos-RISCV6/FreeRTOS/Debug/../main.c:208
                    break;
800081e4:	4cc0006f          	j	800086b0 <vNI_RX_HandlerTask+0x814>
/casa/workspace/Chronos-RISCV6/FreeRTOS/Debug/../main.c:211

                case TASK_ALLOCATION_FINISHED:
                    prints("TASK_ALLOCATION_FINISHED\n");
800081e8:	800097b7          	lui	a5,0x80009
800081ec:	2a078513          	addi	a0,a5,672 # 800092a0 <__stack_top+0xfffc2310>
800081f0:	a88fe0ef          	jal	ra,80006478 <prints>
/casa/workspace/Chronos-RISCV6/FreeRTOS/Debug/../main.c:212
                    API_AckTaskAllocation(incommingPacket.task_id, incommingPacket.task_app_id);
800081f4:	800237b7          	lui	a5,0x80023
800081f8:	ad478793          	addi	a5,a5,-1324 # 80022ad4 <__stack_top+0xfffdbb44>
800081fc:	00c7a703          	lw	a4,12(a5)
80008200:	800237b7          	lui	a5,0x80023
80008204:	ad478793          	addi	a5,a5,-1324 # 80022ad4 <__stack_top+0xfffdbb44>
80008208:	01c7a783          	lw	a5,28(a5)
8000820c:	00078593          	mv	a1,a5
80008210:	00070513          	mv	a0,a4
80008214:	d2dfe0ef          	jal	ra,80006f40 <API_AckTaskAllocation>
/casa/workspace/Chronos-RISCV6/FreeRTOS/Debug/../main.c:214
                    //HW_set_32bit_reg(NI_RX, DONE);
                    prints("4NI_RX DONE!\n");
80008218:	800097b7          	lui	a5,0x80009
8000821c:	2bc78513          	addi	a0,a5,700 # 800092bc <__stack_top+0xfffc232c>
80008220:	a58fe0ef          	jal	ra,80006478 <prints>
/casa/workspace/Chronos-RISCV6/FreeRTOS/Debug/../main.c:215
                    break;
80008224:	48c0006f          	j	800086b0 <vNI_RX_HandlerTask+0x814>
/casa/workspace/Chronos-RISCV6/FreeRTOS/Debug/../main.c:218

                case TASK_ALLOCATION_SUCCESS:
                    prints("TASK_ALLOCATION_SUCCESS\n");
80008228:	800097b7          	lui	a5,0x80009
8000822c:	2cc78513          	addi	a0,a5,716 # 800092cc <__stack_top+0xfffc233c>
80008230:	a48fe0ef          	jal	ra,80006478 <prints>
/casa/workspace/Chronos-RISCV6/FreeRTOS/Debug/../main.c:219
                    API_TaskAllocated(incommingPacket.task_id, incommingPacket.task_app_id);
80008234:	800237b7          	lui	a5,0x80023
80008238:	ad478793          	addi	a5,a5,-1324 # 80022ad4 <__stack_top+0xfffdbb44>
8000823c:	00c7a703          	lw	a4,12(a5)
80008240:	800237b7          	lui	a5,0x80023
80008244:	ad478793          	addi	a5,a5,-1324 # 80022ad4 <__stack_top+0xfffdbb44>
80008248:	01c7a783          	lw	a5,28(a5)
8000824c:	00078593          	mv	a1,a5
80008250:	00070513          	mv	a0,a4
80008254:	be4fc0ef          	jal	ra,80004638 <API_TaskAllocated>
/casa/workspace/Chronos-RISCV6/FreeRTOS/Debug/../main.c:221
                    //HW_set_32bit_reg(NI_RX, DONE);
                    prints("5NI_RX DONE!\n");
80008258:	800097b7          	lui	a5,0x80009
8000825c:	2e878513          	addi	a0,a5,744 # 800092e8 <__stack_top+0xfffc2358>
80008260:	a18fe0ef          	jal	ra,80006478 <prints>
/casa/workspace/Chronos-RISCV6/FreeRTOS/Debug/../main.c:222
                    break;
80008264:	44c0006f          	j	800086b0 <vNI_RX_HandlerTask+0x814>
/casa/workspace/Chronos-RISCV6/FreeRTOS/Debug/../main.c:225

                case TASK_START:
                    prints("Chegou um TASK_START!\n");
80008268:	800097b7          	lui	a5,0x80009
8000826c:	2f878513          	addi	a0,a5,760 # 800092f8 <__stack_top+0xfffc2368>
80008270:	a08fe0ef          	jal	ra,80006478 <prints>
/casa/workspace/Chronos-RISCV6/FreeRTOS/Debug/../main.c:226
                    aux = API_GetTaskSlot(incommingPacket.task_id, incommingPacket.task_app_id);
80008274:	800237b7          	lui	a5,0x80023
80008278:	ad478793          	addi	a5,a5,-1324 # 80022ad4 <__stack_top+0xfffdbb44>
8000827c:	00c7a703          	lw	a4,12(a5)
80008280:	800237b7          	lui	a5,0x80023
80008284:	ad478793          	addi	a5,a5,-1324 # 80022ad4 <__stack_top+0xfffdbb44>
80008288:	01c7a783          	lw	a5,28(a5)
8000828c:	00078593          	mv	a1,a5
80008290:	00070513          	mv	a0,a4
80008294:	c91fc0ef          	jal	ra,80004f24 <API_GetTaskSlot>
80008298:	fea42623          	sw	a0,-20(s0)
/casa/workspace/Chronos-RISCV6/FreeRTOS/Debug/../main.c:228
                    // Informs the NI were to write the application
                    HW_set_32bit_reg(NI_RX, (unsigned int)&TaskList[aux].appNumTasks);
8000829c:	fec42703          	lw	a4,-20(s0)
800082a0:	000017b7          	lui	a5,0x1
800082a4:	98478793          	addi	a5,a5,-1660 # 984 <HEAP_SIZE-0xf67c>
800082a8:	02f70733          	mul	a4,a4,a5
800082ac:	000017b7          	lui	a5,0x1
800082b0:	95078793          	addi	a5,a5,-1712 # 950 <HEAP_SIZE-0xf6b0>
800082b4:	00f70733          	add	a4,a4,a5
800082b8:	800237b7          	lui	a5,0x80023
800082bc:	65878793          	addi	a5,a5,1624 # 80023658 <__stack_top+0xfffdc6c8>
800082c0:	00f707b3          	add	a5,a4,a5
800082c4:	00878793          	addi	a5,a5,8
800082c8:	00078593          	mv	a1,a5
800082cc:	500007b7          	lui	a5,0x50000
800082d0:	00c78513          	addi	a0,a5,12 # 5000000c <RAM_SIZE+0x4ff8000c>
800082d4:	c81f80ef          	jal	ra,80000f54 <HW_set_32bit_reg>
/casa/workspace/Chronos-RISCV6/FreeRTOS/Debug/../main.c:229
                    incommingPacket.service = TASK_RUN;
800082d8:	800237b7          	lui	a5,0x80023
800082dc:	ad478793          	addi	a5,a5,-1324 # 80022ad4 <__stack_top+0xfffdbb44>
800082e0:	40100713          	li	a4,1025
800082e4:	00e7a423          	sw	a4,8(a5)
/casa/workspace/Chronos-RISCV6/FreeRTOS/Debug/../main.c:231
                    //HW_set_32bit_reg(NI_RX, DONE);
                    prints("6NI_RX DONE!\n");
800082e8:	800097b7          	lui	a5,0x80009
800082ec:	31078513          	addi	a0,a5,784 # 80009310 <__stack_top+0xfffc2380>
800082f0:	988fe0ef          	jal	ra,80006478 <prints>
/casa/workspace/Chronos-RISCV6/FreeRTOS/Debug/../main.c:232
                    break;
800082f4:	3bc0006f          	j	800086b0 <vNI_RX_HandlerTask+0x814>
/casa/workspace/Chronos-RISCV6/FreeRTOS/Debug/../main.c:235
                
                case TASK_RUN:
                    prints("Chegou um TASK_RUN!\n");
800082f8:	800097b7          	lui	a5,0x80009
800082fc:	32078513          	addi	a0,a5,800 # 80009320 <__stack_top+0xfffc2390>
80008300:	978fe0ef          	jal	ra,80006478 <prints>
/casa/workspace/Chronos-RISCV6/FreeRTOS/Debug/../main.c:236
                    aux = API_GetTaskSlot(incommingPacket.task_id, incommingPacket.task_app_id);
80008304:	800237b7          	lui	a5,0x80023
80008308:	ad478793          	addi	a5,a5,-1324 # 80022ad4 <__stack_top+0xfffdbb44>
8000830c:	00c7a703          	lw	a4,12(a5)
80008310:	800237b7          	lui	a5,0x80023
80008314:	ad478793          	addi	a5,a5,-1324 # 80022ad4 <__stack_top+0xfffdbb44>
80008318:	01c7a783          	lw	a5,28(a5)
8000831c:	00078593          	mv	a1,a5
80008320:	00070513          	mv	a0,a4
80008324:	c01fc0ef          	jal	ra,80004f24 <API_GetTaskSlot>
80008328:	fea42623          	sw	a0,-20(s0)
/casa/workspace/Chronos-RISCV6/FreeRTOS/Debug/../main.c:237
                    TaskList[aux].status = TASK_SLOT_READY;
8000832c:	800237b7          	lui	a5,0x80023
80008330:	fec42683          	lw	a3,-20(s0)
80008334:	00001737          	lui	a4,0x1
80008338:	98470713          	addi	a4,a4,-1660 # 984 <HEAP_SIZE-0xf67c>
8000833c:	02e68733          	mul	a4,a3,a4
80008340:	65878793          	addi	a5,a5,1624 # 80023658 <__stack_top+0xfffdc6c8>
80008344:	00f707b3          	add	a5,a4,a5
80008348:	00300713          	li	a4,3
8000834c:	00e7a023          	sw	a4,0(a5)
/casa/workspace/Chronos-RISCV6/FreeRTOS/Debug/../main.c:238
                    API_setFreqScale(1000);
80008350:	3e800513          	li	a0,1000
80008354:	e40fd0ef          	jal	ra,80005994 <API_setFreqScale>
/casa/workspace/Chronos-RISCV6/FreeRTOS/Debug/../main.c:239
                    printsvsv("Starting Task ", TaskList[aux].TaskID, " from app ", TaskList[aux].AppID);
80008358:	800237b7          	lui	a5,0x80023
8000835c:	fec42683          	lw	a3,-20(s0)
80008360:	00001737          	lui	a4,0x1
80008364:	98470713          	addi	a4,a4,-1660 # 984 <HEAP_SIZE-0xf67c>
80008368:	02e68733          	mul	a4,a3,a4
8000836c:	65878793          	addi	a5,a5,1624 # 80023658 <__stack_top+0xfffdc6c8>
80008370:	00f707b3          	add	a5,a4,a5
80008374:	0107a783          	lw	a5,16(a5)
80008378:	00078593          	mv	a1,a5
8000837c:	800237b7          	lui	a5,0x80023
80008380:	fec42683          	lw	a3,-20(s0)
80008384:	65878713          	addi	a4,a5,1624 # 80023658 <__stack_top+0xfffdc6c8>
80008388:	000017b7          	lui	a5,0x1
8000838c:	98478793          	addi	a5,a5,-1660 # 984 <HEAP_SIZE-0xf67c>
80008390:	02f687b3          	mul	a5,a3,a5
80008394:	00f707b3          	add	a5,a4,a5
80008398:	0147a783          	lw	a5,20(a5)
8000839c:	00078693          	mv	a3,a5
800083a0:	800097b7          	lui	a5,0x80009
800083a4:	33878613          	addi	a2,a5,824 # 80009338 <__stack_top+0xfffc23a8>
800083a8:	800097b7          	lui	a5,0x80009
800083ac:	34478513          	addi	a0,a5,836 # 80009344 <__stack_top+0xfffc23b4>
800083b0:	9bcfe0ef          	jal	ra,8000656c <printsvsv>
/casa/workspace/Chronos-RISCV6/FreeRTOS/Debug/../main.c:240
                    printsv("taskSlot run: ", aux);
800083b4:	fec42783          	lw	a5,-20(s0)
800083b8:	00078593          	mv	a1,a5
800083bc:	800097b7          	lui	a5,0x80009
800083c0:	35478513          	addi	a0,a5,852 # 80009354 <__stack_top+0xfffc23c4>
800083c4:	960fe0ef          	jal	ra,80006524 <printsv>
/casa/workspace/Chronos-RISCV6/FreeRTOS/Debug/../main.c:242
                    //HW_set_32bit_reg(NI_RX, DONE);
                    prints("7NI_RX DONE!\n");
800083c8:	800097b7          	lui	a5,0x80009
800083cc:	36478513          	addi	a0,a5,868 # 80009364 <__stack_top+0xfffc23d4>
800083d0:	8a8fe0ef          	jal	ra,80006478 <prints>
/casa/workspace/Chronos-RISCV6/FreeRTOS/Debug/../main.c:243
                    API_TaskStart(aux);
800083d4:	fec42503          	lw	a0,-20(s0)
800083d8:	c25fc0ef          	jal	ra,80004ffc <API_TaskStart>
/casa/workspace/Chronos-RISCV6/FreeRTOS/Debug/../main.c:244
                    break;
800083dc:	2d40006f          	j	800086b0 <vNI_RX_HandlerTask+0x814>
/casa/workspace/Chronos-RISCV6/FreeRTOS/Debug/../main.c:248

                case MESSAGE_REQUEST:
                    // check the pipe
                    printsvsv("Chegou um message request! App: ", incommingPacket.task_app_id, "Task: ", incommingPacket.task_id);
800083e0:	800237b7          	lui	a5,0x80023
800083e4:	ad478793          	addi	a5,a5,-1324 # 80022ad4 <__stack_top+0xfffdbb44>
800083e8:	01c7a783          	lw	a5,28(a5)
800083ec:	00078713          	mv	a4,a5
800083f0:	800237b7          	lui	a5,0x80023
800083f4:	ad478793          	addi	a5,a5,-1324 # 80022ad4 <__stack_top+0xfffdbb44>
800083f8:	00c7a783          	lw	a5,12(a5)
800083fc:	00078693          	mv	a3,a5
80008400:	800097b7          	lui	a5,0x80009
80008404:	37478613          	addi	a2,a5,884 # 80009374 <__stack_top+0xfffc23e4>
80008408:	00070593          	mv	a1,a4
8000840c:	800097b7          	lui	a5,0x80009
80008410:	37c78513          	addi	a0,a5,892 # 8000937c <__stack_top+0xfffc23ec>
80008414:	958fe0ef          	jal	ra,8000656c <printsvsv>
/casa/workspace/Chronos-RISCV6/FreeRTOS/Debug/../main.c:249
                    aux = API_CheckMessagePipe(incommingPacket.task_id, incommingPacket.task_app_id);
80008418:	800237b7          	lui	a5,0x80023
8000841c:	ad478793          	addi	a5,a5,-1324 # 80022ad4 <__stack_top+0xfffdbb44>
80008420:	00c7a703          	lw	a4,12(a5)
80008424:	800237b7          	lui	a5,0x80023
80008428:	ad478793          	addi	a5,a5,-1324 # 80022ad4 <__stack_top+0xfffdbb44>
8000842c:	01c7a783          	lw	a5,28(a5)
80008430:	00078593          	mv	a1,a5
80008434:	00070513          	mv	a0,a4
80008438:	d00ff0ef          	jal	ra,80007938 <API_CheckMessagePipe>
8000843c:	fea42623          	sw	a0,-20(s0)
/casa/workspace/Chronos-RISCV6/FreeRTOS/Debug/../main.c:250
                    if (aux == ERRO){
80008440:	fec42703          	lw	a4,-20(s0)
80008444:	fff00793          	li	a5,-1
80008448:	04f71463          	bne	a4,a5,80008490 <vNI_RX_HandlerTask+0x5f4>
/casa/workspace/Chronos-RISCV6/FreeRTOS/Debug/../main.c:252
                        // register an messagerequest
                        prints("Mensagem no encontrada, adicionando ao PendingReq!\n");
8000844c:	800097b7          	lui	a5,0x80009
80008450:	3a078513          	addi	a0,a5,928 # 800093a0 <__stack_top+0xfffc2410>
80008454:	824fe0ef          	jal	ra,80006478 <prints>
/casa/workspace/Chronos-RISCV6/FreeRTOS/Debug/../main.c:253
                        API_AddPendingReq(incommingPacket.task_id, incommingPacket.task_app_id, incommingPacket.producer_task_id);
80008458:	800237b7          	lui	a5,0x80023
8000845c:	ad478793          	addi	a5,a5,-1324 # 80022ad4 <__stack_top+0xfffdbb44>
80008460:	00c7a703          	lw	a4,12(a5)
80008464:	800237b7          	lui	a5,0x80023
80008468:	ad478793          	addi	a5,a5,-1324 # 80022ad4 <__stack_top+0xfffdbb44>
8000846c:	01c7a683          	lw	a3,28(a5)
80008470:	800237b7          	lui	a5,0x80023
80008474:	ad478793          	addi	a5,a5,-1324 # 80022ad4 <__stack_top+0xfffdbb44>
80008478:	0147a783          	lw	a5,20(a5)
8000847c:	00078613          	mv	a2,a5
80008480:	00068593          	mv	a1,a3
80008484:	00070513          	mv	a0,a4
80008488:	ed4ff0ef          	jal	ra,80007b5c <API_AddPendingReq>
8000848c:	01c0006f          	j	800084a8 <vNI_RX_HandlerTask+0x60c>
/casa/workspace/Chronos-RISCV6/FreeRTOS/Debug/../main.c:255
                    } else {
                        prints("Mensagem encontrada no pipe!\n");
80008490:	800097b7          	lui	a5,0x80009
80008494:	3d878513          	addi	a0,a5,984 # 800093d8 <__stack_top+0xfffc2448>
80008498:	fe1fd0ef          	jal	ra,80006478 <prints>
/casa/workspace/Chronos-RISCV6/FreeRTOS/Debug/../main.c:256
                        API_PushSendQueue(MESSAGE, aux);
8000849c:	fec42583          	lw	a1,-20(s0)
800084a0:	20200537          	lui	a0,0x20200
800084a4:	e1cfe0ef          	jal	ra,80006ac0 <API_PushSendQueue>
/casa/workspace/Chronos-RISCV6/FreeRTOS/Debug/../main.c:260
                        // API_Try2Send();
                    }
                    //HW_set_32bit_reg(NI_RX, DONE);
                    prints("8NI_RX DONE!\n");
800084a8:	800097b7          	lui	a5,0x80009
800084ac:	3f878513          	addi	a0,a5,1016 # 800093f8 <__stack_top+0xfffc2468>
800084b0:	fc9fd0ef          	jal	ra,80006478 <prints>
/casa/workspace/Chronos-RISCV6/FreeRTOS/Debug/../main.c:261
                    break;
800084b4:	1fc0006f          	j	800086b0 <vNI_RX_HandlerTask+0x814>
/casa/workspace/Chronos-RISCV6/FreeRTOS/Debug/../main.c:264
                
                case MESSAGE_DELIVERY:
                    prints("Tem uma mensagem chegando...\n");
800084b8:	800097b7          	lui	a5,0x80009
800084bc:	40878513          	addi	a0,a5,1032 # 80009408 <__stack_top+0xfffc2478>
800084c0:	fb9fd0ef          	jal	ra,80006478 <prints>
/casa/workspace/Chronos-RISCV6/FreeRTOS/Debug/../main.c:265
                    aux = API_GetTaskSlot(incommingPacket.destination_task, incommingPacket.application_id);
800084c4:	800237b7          	lui	a5,0x80023
800084c8:	ad478793          	addi	a5,a5,-1324 # 80022ad4 <__stack_top+0xfffdbb44>
800084cc:	0147a703          	lw	a4,20(a5)
800084d0:	800237b7          	lui	a5,0x80023
800084d4:	ad478793          	addi	a5,a5,-1324 # 80022ad4 <__stack_top+0xfffdbb44>
800084d8:	00c7a783          	lw	a5,12(a5)
800084dc:	00078593          	mv	a1,a5
800084e0:	00070513          	mv	a0,a4
800084e4:	a41fc0ef          	jal	ra,80004f24 <API_GetTaskSlot>
800084e8:	fea42623          	sw	a0,-20(s0)
/casa/workspace/Chronos-RISCV6/FreeRTOS/Debug/../main.c:267
                    //printsv("MESSAGE_DELIVERY addr: ", TaskList[aux].MsgToReceive);
                    HW_set_32bit_reg(NI_RX, TaskList[aux].MsgToReceive);
800084ec:	800237b7          	lui	a5,0x80023
800084f0:	fec42683          	lw	a3,-20(s0)
800084f4:	00001737          	lui	a4,0x1
800084f8:	98470713          	addi	a4,a4,-1660 # 984 <HEAP_SIZE-0xf67c>
800084fc:	02e68733          	mul	a4,a3,a4
80008500:	65878793          	addi	a5,a5,1624 # 80023658 <__stack_top+0xfffdc6c8>
80008504:	00f707b3          	add	a5,a4,a5
80008508:	0207a783          	lw	a5,32(a5)
8000850c:	00078593          	mv	a1,a5
80008510:	500007b7          	lui	a5,0x50000
80008514:	00c78513          	addi	a0,a5,12 # 5000000c <RAM_SIZE+0x4ff8000c>
80008518:	a3df80ef          	jal	ra,80000f54 <HW_set_32bit_reg>
/casa/workspace/Chronos-RISCV6/FreeRTOS/Debug/../main.c:268
                    incommingPacket.service = MESSAGE_DELIVERY_FINISH;
8000851c:	800237b7          	lui	a5,0x80023
80008520:	ad478793          	addi	a5,a5,-1324 # 80022ad4 <__stack_top+0xfffdbb44>
80008524:	02100713          	li	a4,33
80008528:	00e7a423          	sw	a4,8(a5)
/casa/workspace/Chronos-RISCV6/FreeRTOS/Debug/../main.c:271
                    //prints("done...\n----------\n");
                    //HW_set_32bit_reg(NI_RX, DONE);
                    prints("9NI_RX DONE!\n");
8000852c:	800097b7          	lui	a5,0x80009
80008530:	42878513          	addi	a0,a5,1064 # 80009428 <__stack_top+0xfffc2498>
80008534:	f45fd0ef          	jal	ra,80006478 <prints>
/casa/workspace/Chronos-RISCV6/FreeRTOS/Debug/../main.c:272
                    break;
80008538:	1780006f          	j	800086b0 <vNI_RX_HandlerTask+0x814>
/casa/workspace/Chronos-RISCV6/FreeRTOS/Debug/../main.c:276
                
                case MESSAGE_DELIVERY_FINISH:
                    //prints("Terminou de entregar a mensagem!!\n");
                    aux = API_GetTaskSlot(incommingPacket.destination_task, incommingPacket.application_id);
8000853c:	800237b7          	lui	a5,0x80023
80008540:	ad478793          	addi	a5,a5,-1324 # 80022ad4 <__stack_top+0xfffdbb44>
80008544:	0147a703          	lw	a4,20(a5)
80008548:	800237b7          	lui	a5,0x80023
8000854c:	ad478793          	addi	a5,a5,-1324 # 80022ad4 <__stack_top+0xfffdbb44>
80008550:	00c7a783          	lw	a5,12(a5)
80008554:	00078593          	mv	a1,a5
80008558:	00070513          	mv	a0,a4
8000855c:	9c9fc0ef          	jal	ra,80004f24 <API_GetTaskSlot>
80008560:	fea42623          	sw	a0,-20(s0)
/casa/workspace/Chronos-RISCV6/FreeRTOS/Debug/../main.c:277
                    TaskList[aux].waitingMsg = FALSE;
80008564:	800237b7          	lui	a5,0x80023
80008568:	fec42683          	lw	a3,-20(s0)
8000856c:	65878713          	addi	a4,a5,1624 # 80023658 <__stack_top+0xfffdc6c8>
80008570:	000017b7          	lui	a5,0x1
80008574:	98478793          	addi	a5,a5,-1660 # 984 <HEAP_SIZE-0xf67c>
80008578:	02f687b3          	mul	a5,a3,a5
8000857c:	00f707b3          	add	a5,a4,a5
80008580:	0007ae23          	sw	zero,28(a5)
/casa/workspace/Chronos-RISCV6/FreeRTOS/Debug/../main.c:279
                    //HW_set_32bit_reg(NI_RX, DONE);
                    prints("10NI_RX DONE!\n");
80008584:	800097b7          	lui	a5,0x80009
80008588:	43878513          	addi	a0,a5,1080 # 80009438 <__stack_top+0xfffc24a8>
8000858c:	eedfd0ef          	jal	ra,80006478 <prints>
/casa/workspace/Chronos-RISCV6/FreeRTOS/Debug/../main.c:281
                    //vTaskResume(TaskList[aux].TaskHandler);
                    xTaskResumeFromISR(TaskList[aux].TaskHandler);
80008590:	800237b7          	lui	a5,0x80023
80008594:	fec42683          	lw	a3,-20(s0)
80008598:	65878713          	addi	a4,a5,1624 # 80023658 <__stack_top+0xfffdc6c8>
8000859c:	000017b7          	lui	a5,0x1
800085a0:	98478793          	addi	a5,a5,-1660 # 984 <HEAP_SIZE-0xf67c>
800085a4:	02f687b3          	mul	a5,a3,a5
800085a8:	00f707b3          	add	a5,a4,a5
800085ac:	0187a783          	lw	a5,24(a5)
800085b0:	00078513          	mv	a0,a5
800085b4:	f69f90ef          	jal	ra,8000251c <xTaskResumeFromISR>
/casa/workspace/Chronos-RISCV6/FreeRTOS/Debug/../main.c:282
                    break;
800085b8:	0f80006f          	j	800086b0 <vNI_RX_HandlerTask+0x814>
/casa/workspace/Chronos-RISCV6/FreeRTOS/Debug/../main.c:285

                case TEMPERATURE_PACKET:
                    prints("Recebendo pacote de temperatura");
800085bc:	800097b7          	lui	a5,0x80009
800085c0:	44878513          	addi	a0,a5,1096 # 80009448 <__stack_top+0xfffc24b8>
800085c4:	eb5fd0ef          	jal	ra,80006478 <prints>
/casa/workspace/Chronos-RISCV6/FreeRTOS/Debug/../main.c:286
                    HW_set_32bit_reg(NI_RX, (unsigned int)&SystemTemperature);
800085c8:	800237b7          	lui	a5,0x80023
800085cc:	55478793          	addi	a5,a5,1364 # 80023554 <__stack_top+0xfffdc5c4>
800085d0:	00078593          	mv	a1,a5
800085d4:	500007b7          	lui	a5,0x50000
800085d8:	00c78513          	addi	a0,a5,12 # 5000000c <RAM_SIZE+0x4ff8000c>
800085dc:	979f80ef          	jal	ra,80000f54 <HW_set_32bit_reg>
/casa/workspace/Chronos-RISCV6/FreeRTOS/Debug/../main.c:287
                    incommingPacket.service = FINISH_TEMPERATURE_PACKET;
800085e0:	800237b7          	lui	a5,0x80023
800085e4:	ad478793          	addi	a5,a5,-1324 # 80022ad4 <__stack_top+0xfffdbb44>
800085e8:	05600713          	li	a4,86
800085ec:	00e7a423          	sw	a4,8(a5)
/casa/workspace/Chronos-RISCV6/FreeRTOS/Debug/../main.c:289
                    //HW_set_32bit_reg(NI_RX, DONE);
                    prints("11NI_RX DONE!\n");
800085f0:	800097b7          	lui	a5,0x80009
800085f4:	46878513          	addi	a0,a5,1128 # 80009468 <__stack_top+0xfffc24d8>
800085f8:	e81fd0ef          	jal	ra,80006478 <prints>
/casa/workspace/Chronos-RISCV6/FreeRTOS/Debug/../main.c:290
                    break;
800085fc:	0b40006f          	j	800086b0 <vNI_RX_HandlerTask+0x814>
/casa/workspace/Chronos-RISCV6/FreeRTOS/Debug/../main.c:293
                
                case FINISH_TEMPERATURE_PACKET:
                    temperatureUpdated = 1;
80008600:	800237b7          	lui	a5,0x80023
80008604:	00100713          	li	a4,1
80008608:	54e7a823          	sw	a4,1360(a5) # 80023550 <__stack_top+0xfffdc5c0>
/casa/workspace/Chronos-RISCV6/FreeRTOS/Debug/../main.c:294
                    for(aux = 0; aux < DIM_X*DIM_Y; aux++){ 
8000860c:	fe042623          	sw	zero,-20(s0)
80008610:	0440006f          	j	80008654 <vNI_RX_HandlerTask+0x7b8>
/casa/workspace/Chronos-RISCV6/FreeRTOS/Debug/../main.c:295 (discriminator 3)
                        printsvsv("pe", aux, "temp: ", SystemTemperature[aux]);
80008614:	fec42583          	lw	a1,-20(s0)
80008618:	800237b7          	lui	a5,0x80023
8000861c:	fec42703          	lw	a4,-20(s0)
80008620:	00271713          	slli	a4,a4,0x2
80008624:	55478793          	addi	a5,a5,1364 # 80023554 <__stack_top+0xfffdc5c4>
80008628:	00f707b3          	add	a5,a4,a5
8000862c:	0007a783          	lw	a5,0(a5)
80008630:	00078693          	mv	a3,a5
80008634:	800097b7          	lui	a5,0x80009
80008638:	47878613          	addi	a2,a5,1144 # 80009478 <__stack_top+0xfffc24e8>
8000863c:	800097b7          	lui	a5,0x80009
80008640:	48078513          	addi	a0,a5,1152 # 80009480 <__stack_top+0xfffc24f0>
80008644:	f29fd0ef          	jal	ra,8000656c <printsvsv>
/casa/workspace/Chronos-RISCV6/FreeRTOS/Debug/../main.c:294 (discriminator 3)
                    for(aux = 0; aux < DIM_X*DIM_Y; aux++){ 
80008648:	fec42783          	lw	a5,-20(s0)
8000864c:	00178793          	addi	a5,a5,1
80008650:	fef42623          	sw	a5,-20(s0)
/casa/workspace/Chronos-RISCV6/FreeRTOS/Debug/../main.c:294 (discriminator 1)
80008654:	fec42703          	lw	a4,-20(s0)
80008658:	00f00793          	li	a5,15
8000865c:	fae7fce3          	bleu	a4,a5,80008614 <vNI_RX_HandlerTask+0x778>
/casa/workspace/Chronos-RISCV6/FreeRTOS/Debug/../main.c:298
                    }
                    //HW_set_32bit_reg(NI_RX, DONE);
                    prints("12NI_RX DONE!\n");
80008660:	800097b7          	lui	a5,0x80009
80008664:	48478513          	addi	a0,a5,1156 # 80009484 <__stack_top+0xfffc24f4>
80008668:	e11fd0ef          	jal	ra,80006478 <prints>
/casa/workspace/Chronos-RISCV6/FreeRTOS/Debug/../main.c:299
                    break;
8000866c:	0440006f          	j	800086b0 <vNI_RX_HandlerTask+0x814>
/casa/workspace/Chronos-RISCV6/FreeRTOS/Debug/../main.c:303

                case SOLVED:
                    //HW_set_32bit_reg(NI_RX, HOLD);
                    prints("13NI_RX HOLD!\n");
80008670:	800097b7          	lui	a5,0x80009
80008674:	49478513          	addi	a0,a5,1172 # 80009494 <__stack_top+0xfffc2504>
80008678:	e01fd0ef          	jal	ra,80006478 <prints>
/casa/workspace/Chronos-RISCV6/FreeRTOS/Debug/../main.c:304
                    break;
8000867c:	0340006f          	j	800086b0 <vNI_RX_HandlerTask+0x814>
/casa/workspace/Chronos-RISCV6/FreeRTOS/Debug/../main.c:307
                    
                default:
                    printsv("ERROR External_2_IRQHandler Unknown-Service ", incommingPacket.service);
80008680:	800237b7          	lui	a5,0x80023
80008684:	ad478793          	addi	a5,a5,-1324 # 80022ad4 <__stack_top+0xfffdbb44>
80008688:	0087a783          	lw	a5,8(a5)
8000868c:	00078593          	mv	a1,a5
80008690:	800097b7          	lui	a5,0x80009
80008694:	4a478513          	addi	a0,a5,1188 # 800094a4 <__stack_top+0xfffc2514>
80008698:	e8dfd0ef          	jal	ra,80006524 <printsv>
/casa/workspace/Chronos-RISCV6/FreeRTOS/Debug/../main.c:309
                    //HW_set_32bit_reg(NI_RX, DONE);
                    prints("14NI_RX DONE!\n");
8000869c:	800097b7          	lui	a5,0x80009
800086a0:	4d478513          	addi	a0,a5,1236 # 800094d4 <__stack_top+0xfffc2544>
800086a4:	dd5fd0ef          	jal	ra,80006478 <prints>
/casa/workspace/Chronos-RISCV6/FreeRTOS/Debug/../main.c:310
                    break;
800086a8:	0080006f          	j	800086b0 <vNI_RX_HandlerTask+0x814>
/casa/workspace/Chronos-RISCV6/FreeRTOS/Debug/../main.c:312
            }
        }
800086ac:	00000013          	nop
/casa/workspace/Chronos-RISCV6/FreeRTOS/Debug/../main.c:313
		HW_set_32bit_reg(NI_RX, DONE);
800086b0:	800057b7          	lui	a5,0x80005
800086b4:	55578593          	addi	a1,a5,1365 # 80005555 <__stack_top+0xfffbe5c5>
800086b8:	500007b7          	lui	a5,0x50000
800086bc:	00c78513          	addi	a0,a5,12 # 5000000c <RAM_SIZE+0x4ff8000c>
800086c0:	895f80ef          	jal	ra,80000f54 <HW_set_32bit_reg>
/casa/workspace/Chronos-RISCV6/FreeRTOS/Debug/../main.c:314
        vTaskExitCritical();
800086c4:	9b1fa0ef          	jal	ra,80003074 <vTaskExitCritical>
/casa/workspace/Chronos-RISCV6/FreeRTOS/Debug/../main.c:156
    for( ;; ){
800086c8:	ff4ff06f          	j	80007ebc <vNI_RX_HandlerTask+0x20>

800086cc <vNI_TX_HandlerTask>:
vNI_TX_HandlerTask():
/casa/workspace/Chronos-RISCV6/FreeRTOS/Debug/../main.c:321
    }
}

/* A task that blocks waiting to be notified that the peripheral
needs servicing. */
void vNI_TX_HandlerTask( void *pvParameters ){
800086cc:	fd010113          	addi	sp,sp,-48
800086d0:	02112623          	sw	ra,44(sp)
800086d4:	02812423          	sw	s0,40(sp)
800086d8:	03010413          	addi	s0,sp,48
800086dc:	fca42e23          	sw	a0,-36(s0)
/casa/workspace/Chronos-RISCV6/FreeRTOS/Debug/../main.c:323
	BaseType_t xEvent;
	const TickType_t xBlockTime = 1000000;
800086e0:	000f47b7          	lui	a5,0xf4
800086e4:	24078793          	addi	a5,a5,576 # f4240 <RAM_SIZE+0x74240>
800086e8:	fef42623          	sw	a5,-20(s0)
/casa/workspace/Chronos-RISCV6/FreeRTOS/Debug/../main.c:328 (discriminator 1)
	uint32_t ulNotifiedValue;

    for( ;; ){
		/* Blocks the task until the NI interrupts it */
        ulNotifiedValue = ulTaskNotifyTake( pdFALSE,
800086ec:	fec42583          	lw	a1,-20(s0)
800086f0:	00000513          	li	a0,0
800086f4:	9d1fa0ef          	jal	ra,800030c4 <ulTaskNotifyTake>
800086f8:	fea42423          	sw	a0,-24(s0)
/casa/workspace/Chronos-RISCV6/FreeRTOS/Debug/../main.c:341 (discriminator 1)
        //     /* Did not receive a notification within the expected time. */
		// 	UART_polled_tx_string( &g_uart, (const uint8_t *)" Time out NI TX...\r\n" );
        // }

		// enters in critical mode
		vTaskEnterCritical();
800086fc:	93dfa0ef          	jal	ra,80003038 <vTaskEnterCritical>
/casa/workspace/Chronos-RISCV6/FreeRTOS/Debug/../main.c:343 (discriminator 1)
		
		prints("TX interruption catched\n");
80008700:	800097b7          	lui	a5,0x80009
80008704:	4e478513          	addi	a0,a5,1252 # 800094e4 <__stack_top+0xfffc2554>
80008708:	d71fd0ef          	jal	ra,80006478 <prints>
/casa/workspace/Chronos-RISCV6/FreeRTOS/Debug/../main.c:344 (discriminator 1)
		API_ClearPipeSlot(SendingSlot); // clear the pipe slot that was transmitted
8000870c:	800227b7          	lui	a5,0x80022
80008710:	7987a783          	lw	a5,1944(a5) # 80022798 <__stack_top+0xfffdb808>
80008714:	00078513          	mv	a0,a5
80008718:	82cfd0ef          	jal	ra,80005744 <API_ClearPipeSlot>
/casa/workspace/Chronos-RISCV6/FreeRTOS/Debug/../main.c:345 (discriminator 1)
		HW_set_32bit_reg(NI_TX, DONE);  // releases the interruption
8000871c:	800057b7          	lui	a5,0x80005
80008720:	55578593          	addi	a1,a5,1365 # 80005555 <__stack_top+0xfffbe5c5>
80008724:	500007b7          	lui	a5,0x50000
80008728:	00878513          	addi	a0,a5,8 # 50000008 <RAM_SIZE+0x4ff80008>
8000872c:	829f80ef          	jal	ra,80000f54 <HW_set_32bit_reg>
/casa/workspace/Chronos-RISCV6/FreeRTOS/Debug/../main.c:346 (discriminator 1)
		API_Try2Send();                 // tries to send another packet (if available)
80008730:	dd8fe0ef          	jal	ra,80006d08 <API_Try2Send>
/casa/workspace/Chronos-RISCV6/FreeRTOS/Debug/../main.c:349 (discriminator 1)
	
		// exits the criticla mode
		vTaskExitCritical();
80008734:	941fa0ef          	jal	ra,80003074 <vTaskExitCritical>
/casa/workspace/Chronos-RISCV6/FreeRTOS/Debug/../main.c:326 (discriminator 1)
    for( ;; ){
80008738:	fb5ff06f          	j	800086ec <vNI_TX_HandlerTask+0x20>

8000873c <vNI_TMR_HandlerTask>:
vNI_TMR_HandlerTask():
/casa/workspace/Chronos-RISCV6/FreeRTOS/Debug/../main.c:356
    }
}

/* A task that blocks waiting to be notified that the peripheral
needs servicing. */
void vNI_TMR_HandlerTask( void *pvParameters ){
8000873c:	fd010113          	addi	sp,sp,-48
80008740:	02112623          	sw	ra,44(sp)
80008744:	02812423          	sw	s0,40(sp)
80008748:	03010413          	addi	s0,sp,48
8000874c:	fca42e23          	sw	a0,-36(s0)
/casa/workspace/Chronos-RISCV6/FreeRTOS/Debug/../main.c:358
	BaseType_t xEvent;
	const TickType_t xBlockTime = 1000000;
80008750:	000f47b7          	lui	a5,0xf4
80008754:	24078793          	addi	a5,a5,576 # f4240 <RAM_SIZE+0x74240>
80008758:	fef42623          	sw	a5,-20(s0)
/casa/workspace/Chronos-RISCV6/FreeRTOS/Debug/../main.c:363 (discriminator 1)
	uint32_t ulNotifiedValue;

    for( ;; ){
		/* Blocks the task until the NI interrupts it */
        ulNotifiedValue = ulTaskNotifyTake( pdFALSE,
8000875c:	fec42583          	lw	a1,-20(s0)
80008760:	00000513          	li	a0,0
80008764:	961fa0ef          	jal	ra,800030c4 <ulTaskNotifyTake>
80008768:	fea42423          	sw	a0,-24(s0)
/casa/workspace/Chronos-RISCV6/FreeRTOS/Debug/../main.c:376 (discriminator 1)
        //     /* Did not receive a notification within the expected time. */
		// 	UART_polled_tx_string( &g_uart, (const uint8_t *)" Time out NI TIMER...\r\n" );
        // }

		// enters in critical mode 
		vTaskEnterCritical();
8000876c:	8cdfa0ef          	jal	ra,80003038 <vTaskEnterCritical>
/casa/workspace/Chronos-RISCV6/FreeRTOS/Debug/../main.c:378 (discriminator 1)
	
            powerEstimation(); // estimate the power consumed by this PE and send it to the TEA
80008770:	fa4fd0ef          	jal	ra,80005f14 <powerEstimation>
/casa/workspace/Chronos-RISCV6/FreeRTOS/Debug/../main.c:379 (discriminator 1)
            HW_set_32bit_reg(NI_TIMER, DONE);
80008774:	800057b7          	lui	a5,0x80005
80008778:	55578593          	addi	a1,a5,1365 # 80005555 <__stack_top+0xfffbe5c5>
8000877c:	500007b7          	lui	a5,0x50000
80008780:	01078513          	addi	a0,a5,16 # 50000010 <RAM_SIZE+0x4ff80010>
80008784:	fd0f80ef          	jal	ra,80000f54 <HW_set_32bit_reg>
/casa/workspace/Chronos-RISCV6/FreeRTOS/Debug/../main.c:382 (discriminator 1)

		// exit critical mode
        vTaskExitCritical();
80008788:	8edfa0ef          	jal	ra,80003074 <vTaskExitCritical>
/casa/workspace/Chronos-RISCV6/FreeRTOS/Debug/../main.c:361 (discriminator 1)
    for( ;; ){
8000878c:	fd1ff06f          	j	8000875c <vNI_TMR_HandlerTask+0x20>

80008790 <GlobalManagerTask>:
GlobalManagerTask():
/casa/workspace/Chronos-RISCV6/FreeRTOS/Debug/../main.c:389
    }
}

/*-----------------------------------------------------------*/

static void GlobalManagerTask( void *pvParameters ){
80008790:	fc010113          	addi	sp,sp,-64
80008794:	02112e23          	sw	ra,60(sp)
80008798:	02812c23          	sw	s0,56(sp)
8000879c:	04010413          	addi	s0,sp,64
800087a0:	fca42623          	sw	a0,-52(s0)
/casa/workspace/Chronos-RISCV6/FreeRTOS/Debug/../main.c:395
	( void ) pvParameters;
	int tick;
	char str[20];

	// Initialize the priority vector with the pattern policy
	GeneratePatternMatrix();
800087a4:	87cfb0ef          	jal	ra,80003820 <GeneratePatternMatrix>
/casa/workspace/Chronos-RISCV6/FreeRTOS/Debug/../main.c:398

	// Initialize the System Tiles Info
	API_TilesReset();
800087a8:	f51fa0ef          	jal	ra,800036f8 <API_TilesReset>
/casa/workspace/Chronos-RISCV6/FreeRTOS/Debug/../main.c:401

	// Initialize the applications vector
    API_ApplicationsReset();
800087ac:	eedfa0ef          	jal	ra,80003698 <API_ApplicationsReset>
/casa/workspace/Chronos-RISCV6/FreeRTOS/Debug/../main.c:404

	// Informs the Repository that the GLOBALMASTER is ready to receive the application info
	API_RepositoryWakeUp();
800087b0:	b61fa0ef          	jal	ra,80003310 <API_RepositoryWakeUp>
/casa/workspace/Chronos-RISCV6/FreeRTOS/Debug/../main.c:407

	for(;;){
		tick = xTaskGetTickCount();
800087b4:	898fa0ef          	jal	ra,8000284c <xTaskGetTickCount>
800087b8:	00050793          	mv	a5,a0
800087bc:	fef42623          	sw	a5,-20(s0)
/casa/workspace/Chronos-RISCV6/FreeRTOS/Debug/../main.c:408
		myItoa(tick, str, 10);
800087c0:	fd840793          	addi	a5,s0,-40
800087c4:	00a00613          	li	a2,10
800087c8:	00078593          	mv	a1,a5
800087cc:	fec42503          	lw	a0,-20(s0)
800087d0:	910fe0ef          	jal	ra,800068e0 <myItoa>
/casa/workspace/Chronos-RISCV6/FreeRTOS/Debug/../main.c:409
		UART_polled_tx_string( &g_uart, (const uint8_t *)str);
800087d4:	fd840793          	addi	a5,s0,-40
800087d8:	00078593          	mv	a1,a5
800087dc:	800277b7          	lui	a5,0x80027
800087e0:	f7878513          	addi	a0,a5,-136 # 80026f78 <__stack_top+0xfffdffe8>
800087e4:	a15f80ef          	jal	ra,800011f8 <UART_polled_tx_string>
/casa/workspace/Chronos-RISCV6/FreeRTOS/Debug/../main.c:410
		printsv("GlobalMasterActive", tick);
800087e8:	fec42583          	lw	a1,-20(s0)
800087ec:	800097b7          	lui	a5,0x80009
800087f0:	50078513          	addi	a0,a5,1280 # 80009500 <__stack_top+0xfffc2570>
800087f4:	d31fd0ef          	jal	ra,80006524 <printsv>
/casa/workspace/Chronos-RISCV6/FreeRTOS/Debug/../main.c:411
		UART_polled_tx_string( &g_uart, (const uint8_t *)" GlobalMasterRoutine...\r\n" );
800087f8:	800097b7          	lui	a5,0x80009
800087fc:	51478593          	addi	a1,a5,1300 # 80009514 <__stack_top+0xfffc2584>
80008800:	800277b7          	lui	a5,0x80027
80008804:	f7878513          	addi	a0,a5,-136 # 80026f78 <__stack_top+0xfffdffe8>
80008808:	9f1f80ef          	jal	ra,800011f8 <UART_polled_tx_string>
/casa/workspace/Chronos-RISCV6/FreeRTOS/Debug/../main.c:414

		// Checks if there is some task to allocate...
		API_AllocateTasks(tick);
8000880c:	fec42783          	lw	a5,-20(s0)
80008810:	00078513          	mv	a0,a5
80008814:	908fb0ef          	jal	ra,8000391c <API_AllocateTasks>
/casa/workspace/Chronos-RISCV6/FreeRTOS/Debug/../main.c:417
		
		// Checks if there is some task to start...
		API_StartTasks();
80008818:	8ccfc0ef          	jal	ra,800048e4 <API_StartTasks>
/casa/workspace/Chronos-RISCV6/FreeRTOS/Debug/../main.c:419

		if(API_SystemFinish){
8000881c:	9901a783          	lw	a5,-1648(gp) # 800096c0 <API_SystemFinish>
80008820:	00078c63          	beqz	a5,80008838 <GlobalManagerTask+0xa8>
/casa/workspace/Chronos-RISCV6/FreeRTOS/Debug/../main.c:420
			vTaskDelay(200); // to cool down the system
80008824:	0c800513          	li	a0,200
80008828:	9fdf90ef          	jal	ra,80002224 <vTaskDelay>
/casa/workspace/Chronos-RISCV6/FreeRTOS/Debug/../main.c:421
			_exit(0xfe10);
8000882c:	000107b7          	lui	a5,0x10
80008830:	e1078513          	addi	a0,a5,-496 # fe10 <HEAP_SIZE-0x1f0>
80008834:	d68f80ef          	jal	ra,80000d9c <_exit>
/casa/workspace/Chronos-RISCV6/FreeRTOS/Debug/../main.c:424
		}
		else{
			vTaskDelay(1);
80008838:	00100513          	li	a0,1
8000883c:	9e9f90ef          	jal	ra,80002224 <vTaskDelay>
/casa/workspace/Chronos-RISCV6/FreeRTOS/Debug/../main.c:407
		tick = xTaskGetTickCount();
80008840:	f75ff06f          	j	800087b4 <GlobalManagerTask+0x24>

80008844 <write>:
write():
80008844:	00001797          	auipc	a5,0x1
80008848:	cfc78793          	addi	a5,a5,-772 # 80009540 <_impure_ptr>
8000884c:	00060693          	mv	a3,a2
80008850:	00058613          	mv	a2,a1
80008854:	00050593          	mv	a1,a0
80008858:	0007a503          	lw	a0,0(a5)
8000885c:	0040006f          	j	80008860 <_write_r>

80008860 <_write_r>:
_write_r():
80008860:	ff010113          	addi	sp,sp,-16
80008864:	00812423          	sw	s0,8(sp)
80008868:	00050413          	mv	s0,a0
8000886c:	00058513          	mv	a0,a1
80008870:	00060593          	mv	a1,a2
80008874:	00068613          	mv	a2,a3
80008878:	0001a797          	auipc	a5,0x1a
8000887c:	5007aa23          	sw	zero,1300(a5) # 80022d8c <errno>
80008880:	00112623          	sw	ra,12(sp)
80008884:	de8f80ef          	jal	ra,80000e6c <_write>
80008888:	fff00793          	li	a5,-1
8000888c:	00f51c63          	bne	a0,a5,800088a4 <_write_r+0x44>
80008890:	0001a797          	auipc	a5,0x1a
80008894:	4fc78793          	addi	a5,a5,1276 # 80022d8c <errno>
80008898:	0007a783          	lw	a5,0(a5)
8000889c:	00078463          	beqz	a5,800088a4 <_write_r+0x44>
800088a0:	00f42023          	sw	a5,0(s0)
800088a4:	00c12083          	lw	ra,12(sp)
800088a8:	00812403          	lw	s0,8(sp)
800088ac:	01010113          	addi	sp,sp,16
800088b0:	00008067          	ret
	...
800088c0:	6568                	flw	fa0,76(a0)
800088c2:	6c6c                	flw	fa1,92(s0)
800088c4:	0000006f          	j	800088c4 <_write_r+0x64>
800088c8:	6544                	flw	fs1,12(a0)
800088ca:	6574                	flw	fa3,76(a0)
800088cc:	69657463          	bleu	s6,a0,80008f54 <loadStoreDyn+0x124>
800088d0:	7520                	flw	fs0,104(a0)
800088d2:	616d                	addi	sp,sp,240
800088d4:	6320                	flw	fs0,64(a4)
800088d6:	6168                	flw	fa0,68(a0)
800088d8:	616d                	addi	sp,sp,240
800088da:	6164                	flw	fs1,68(a0)
800088dc:	5420                	lw	s0,104(s0)
800088de:	5345                	li	t1,-15
800088e0:	4554                	lw	a3,12(a0)
800088e2:	6420                	flw	fs0,72(s0)
800088e4:	2065                	jal	8000898c <_write_r+0x12c>
800088e6:	74736973          	csrrsi	s2,0x747,6
800088ea:	6d65                	lui	s10,0x19
800088ec:	2161                	jal	80008d74 <_write_r+0x514>
800088ee:	000a                	c.slli	zero,0x2
800088f0:	7261                	lui	tp,0xffff8
800088f2:	00203067          	0x203067
800088f6:	0000                	unimp
800088f8:	7261                	lui	tp,0xffff8
800088fa:	00203167          	0x203167
800088fe:	0000                	unimp
80008900:	7261                	lui	tp,0xffff8
80008902:	00203267          	0x203267
80008906:	0000                	unimp
80008908:	7261                	lui	tp,0xffff8
8000890a:	00203367          	0x203367
8000890e:	0000                	unimp
80008910:	7261                	lui	tp,0xffff8
80008912:	00203467          	0x203467
80008916:	0000                	unimp
80008918:	7974                	flw	fa3,116(a0)
8000891a:	6570                	flw	fa2,76(a0)
8000891c:	0020                	addi	s0,sp,8
8000891e:	0000                	unimp
80008920:	74737953          	0x74737953
80008924:	6d65                	lui	s10,0x19
80008926:	6c6c6163          	bltu	s8,t1,80008fe8 <loadStoreDyn+0x1b8>
8000892a:	6e20                	flw	fs0,88(a2)
8000892c:	206fa3c3          	fmadd.s	ft7,ft11,ft6,ft4,rdn
80008930:	6469                	lui	s0,0x1a
80008932:	6e65                	lui	t3,0x19
80008934:	6974                	flw	fa3,84(a0)
80008936:	6966                	flw	fs2,88(sp)
80008938:	61646163          	bltu	s0,s6,80008f3a <loadStoreDyn+0x10a>
8000893c:	0a21                	addi	s4,s4,8
8000893e:	0000                	unimp
80008940:	7274                	flw	fa3,100(a2)
80008942:	7061                	c.lui	zero,0xffff8
80008944:	000a                	c.slli	zero,0x2
80008946:	0000                	unimp
80008948:	7065                	c.lui	zero,0xffff9
8000894a:	00203a63          	0x203a63
8000894e:	0000                	unimp
80008950:	636d                	lui	t1,0x1b
80008952:	7561                	lui	a0,0xffff8
80008954:	203a6573          	csrrsi	a0,hideleg,20
80008958:	0000                	unimp
8000895a:	0000                	unimp
8000895c:	0700                	addi	s0,sp,896
8000895e:	8000                	0x8000
80008960:	0708                	addi	a0,sp,896
80008962:	8000                	0x8000
80008964:	0708                	addi	a0,sp,896
80008966:	8000                	0x8000
80008968:	0708                	addi	a0,sp,896
8000896a:	8000                	0x8000
8000896c:	0708                	addi	a0,sp,896
8000896e:	8000                	0x8000
80008970:	0708                	addi	a0,sp,896
80008972:	8000                	0x8000
80008974:	0708                	addi	a0,sp,896
80008976:	8000                	0x8000
80008978:	0708                	addi	a0,sp,896
8000897a:	8000                	0x8000
8000897c:	0708                	addi	a0,sp,896
8000897e:	8000                	0x8000
80008980:	0708                	addi	a0,sp,896
80008982:	8000                	0x8000
80008984:	06e0                	addi	s0,sp,844
80008986:	8000                	0x8000
80008988:	0708                	addi	a0,sp,896
8000898a:	8000                	0x8000
8000898c:	0708                	addi	a0,sp,896
8000898e:	8000                	0x8000
80008990:	0708                	addi	a0,sp,896
80008992:	8000                	0x8000
80008994:	0708                	addi	a0,sp,896
80008996:	8000                	0x8000
80008998:	0708                	addi	a0,sp,896
8000899a:	8000                	0x8000
8000899c:	0708                	addi	a0,sp,896
8000899e:	8000                	0x8000
800089a0:	0708                	addi	a0,sp,896
800089a2:	8000                	0x8000
800089a4:	0708                	addi	a0,sp,896
800089a6:	8000                	0x8000
800089a8:	0708                	addi	a0,sp,896
800089aa:	8000                	0x8000
800089ac:	06f0                	addi	a2,sp,844
800089ae:	8000                	0x8000
800089b0:	0708                	addi	a0,sp,896
800089b2:	8000                	0x8000
800089b4:	0708                	addi	a0,sp,896
800089b6:	8000                	0x8000
800089b8:	0708                	addi	a0,sp,896
800089ba:	8000                	0x8000
800089bc:	0708                	addi	a0,sp,896
800089be:	8000                	0x8000
800089c0:	0708                	addi	a0,sp,896
800089c2:	8000                	0x8000
800089c4:	0708                	addi	a0,sp,896
800089c6:	8000                	0x8000
800089c8:	0708                	addi	a0,sp,896
800089ca:	8000                	0x8000
800089cc:	0708                	addi	a0,sp,896
800089ce:	8000                	0x8000
800089d0:	0708                	addi	a0,sp,896
800089d2:	8000                	0x8000
800089d4:	06a4                	addi	s1,sp,840
800089d6:	8000                	0x8000
800089d8:	0708                	addi	a0,sp,896
800089da:	8000                	0x8000
800089dc:	0708                	addi	a0,sp,896
800089de:	8000                	0x8000
800089e0:	0708                	addi	a0,sp,896
800089e2:	8000                	0x8000
800089e4:	0708                	addi	a0,sp,896
800089e6:	8000                	0x8000
800089e8:	0708                	addi	a0,sp,896
800089ea:	8000                	0x8000
800089ec:	0708                	addi	a0,sp,896
800089ee:	8000                	0x8000
800089f0:	0708                	addi	a0,sp,896
800089f2:	8000                	0x8000
800089f4:	0708                	addi	a0,sp,896
800089f6:	8000                	0x8000
800089f8:	0708                	addi	a0,sp,896
800089fa:	8000                	0x8000
800089fc:	0680                	addi	s0,sp,832
800089fe:	8000                	0x8000
80008a00:	0708                	addi	a0,sp,896
80008a02:	8000                	0x8000
80008a04:	0708                	addi	a0,sp,896
80008a06:	8000                	0x8000
80008a08:	0708                	addi	a0,sp,896
80008a0a:	8000                	0x8000
80008a0c:	0708                	addi	a0,sp,896
80008a0e:	8000                	0x8000
80008a10:	0708                	addi	a0,sp,896
80008a12:	8000                	0x8000
80008a14:	0708                	addi	a0,sp,896
80008a16:	8000                	0x8000
80008a18:	0708                	addi	a0,sp,896
80008a1a:	8000                	0x8000
80008a1c:	0708                	addi	a0,sp,896
80008a1e:	8000                	0x8000
80008a20:	0708                	addi	a0,sp,896
80008a22:	8000                	0x8000
80008a24:	0708                	addi	a0,sp,896
80008a26:	8000                	0x8000
80008a28:	0708                	addi	a0,sp,896
80008a2a:	8000                	0x8000
80008a2c:	0708                	addi	a0,sp,896
80008a2e:	8000                	0x8000
80008a30:	0708                	addi	a0,sp,896
80008a32:	8000                	0x8000
80008a34:	0708                	addi	a0,sp,896
80008a36:	8000                	0x8000
80008a38:	0708                	addi	a0,sp,896
80008a3a:	8000                	0x8000
80008a3c:	05f8                	addi	a4,sp,716
80008a3e:	8000                	0x8000
80008a40:	7830                	flw	fa2,112(s0)
80008a42:	0000                	unimp
80008a44:	500a                	0x500a
80008a46:	6f72                	flw	ft10,28(sp)
80008a48:	206d6167          	0x206d6167
80008a4c:	6168                	flw	fa0,68(a0)
80008a4e:	78652073          	csrs	0x786,a0
80008a52:	7469                	lui	s0,0xffffa
80008a54:	6465                	lui	s0,0x19
80008a56:	7720                	flw	fs0,104(a4)
80008a58:	7469                	lui	s0,0xffffa
80008a5a:	2068                	fld	fa0,192(s0)
80008a5c:	65646f63          	bltu	s0,s6,800090ba <loadStoreDyn+0x28a>
80008a60:	003a                	c.slli	zero,0xe
80008a62:	0000                	unimp
80008a64:	000d                	c.nop	3
80008a66:	0000                	unimp
80008a68:	4449                	li	s0,18
80008a6a:	454c                	lw	a1,12(a0)
80008a6c:	0000                	unimp
80008a6e:	0000                	unimp
80008a70:	7345                	lui	t1,0xffff1
80008a72:	6f74                	flw	fa3,92(a4)
80008a74:	2075                	jal	80008b20 <_write_r+0x2c0>
80008a76:	7270                	flw	fa2,100(a2)
80008a78:	7365                	lui	t1,0xffff9
80008a7a:	7161206f          	j	8001b190 <__global_pointer$+0x11460>
80008a7e:	6975                	lui	s2,0x1d
80008a80:	2e35                	jal	80008dbc <_write_r+0x55c>
80008a82:	2e2e                	fld	ft8,200(sp)
80008a84:	000a                	c.slli	zero,0x2
80008a86:	0000                	unimp
80008a88:	654e                	flw	fa0,208(sp)
80008a8a:	70612077          	0x70612077
80008a8e:	6c70                	flw	fa2,92(s0)
80008a90:	6369                	lui	t1,0x1a
80008a92:	7461                	lui	s0,0xffff8
80008a94:	6f69                	lui	t5,0x1a
80008a96:	206e                	fld	ft0,216(sp)
80008a98:	6572                	flw	fa0,28(sp)
80008a9a:	74736967          	0x74736967
80008a9e:	7265                	lui	tp,0xffff9
80008aa0:	6465                	lui	s0,0x19
80008aa2:	2d20                	fld	fs0,88(a0)
80008aa4:	4920                	lw	s0,80(a0)
80008aa6:	3a44                	fld	fs1,176(a2)
80008aa8:	0020                	addi	s0,sp,8
80008aaa:	0000                	unimp
80008aac:	6572                	flw	fa0,28(sp)
80008aae:	7574                	flw	fa3,108(a0)
80008ab0:	6e72                	flw	ft8,28(sp)
80008ab2:	6e69                	lui	t3,0x1a
80008ab4:	72652067          	0x72652067
80008ab8:	6f72                	flw	ft10,28(sp)
80008aba:	00000a33          	add	s4,zero,zero
80008abe:	0000                	unimp
80008ac0:	6572                	flw	fa0,28(sp)
80008ac2:	7574                	flw	fa3,108(a0)
80008ac4:	6e72                	flw	ft8,28(sp)
80008ac6:	6e69                	lui	t3,0x1a
80008ac8:	72652067          	0x72652067
80008acc:	6f72                	flw	ft10,28(sp)
80008ace:	0a34                	addi	a3,sp,280
80008ad0:	0000                	unimp
80008ad2:	0000                	unimp
80008ad4:	6174                	flw	fa3,68(a0)
80008ad6:	69206b73          	csrrsi	s6,0x692,0
80008ada:	00203a73          	csrrc	s4,frm,zero
80008ade:	0000                	unimp
80008ae0:	63656863          	bltu	a0,s6,80009110 <loadStoreDyn+0x2e0>
80008ae4:	676e696b          	0x676e696b
80008ae8:	0020                	addi	s0,sp,8
80008aea:	0000                	unimp
80008aec:	7266                	flw	ft4,120(sp)
80008aee:	61206d6f          	jal	s10,8000f100 <__global_pointer$+0x53d0>
80008af2:	7070                	flw	fa2,100(s0)
80008af4:	203a                	fld	ft0,392(sp)
80008af6:	0000                	unimp
80008af8:	20736177          	0x20736177
80008afc:	7865                	lui	a6,0xffff9
80008afe:	6365                	lui	t1,0x19
80008b00:	7475                	lui	s0,0xffffd
80008b02:	6465                	lui	s0,0x19
80008b04:	6920                	flw	fs0,80(a0)
80008b06:	206e                	fld	ft0,216(sp)
80008b08:	0000                	unimp
80008b0a:	0000                	unimp
80008b0c:	7041                	c.lui	zero,0xffff0
80008b0e:	6c70                	flw	fa2,92(s0)
80008b10:	6369                	lui	t1,0x1a
80008b12:	7461                	lui	s0,0xffff8
80008b14:	6f69                	lui	t5,0x1a
80008b16:	206e                	fld	ft0,216(sp)
80008b18:	0000                	unimp
80008b1a:	0000                	unimp
80008b1c:	0909                	addi	s2,s2,2
80008b1e:	6854                	flw	fa3,20(s0)
80008b20:	7369                	lui	t1,0xffffa
80008b22:	6120                	flw	fs0,64(a0)
80008b24:	7070                	flw	fa2,100(s0)
80008b26:	696c                	flw	fa1,84(a0)
80008b28:	69746163          	bltu	s0,s7,800091aa <loadStoreDyn+0x37a>
80008b2c:	73206e6f          	jal	t3,8000f25e <__global_pointer$+0x552e>
80008b30:	6974                	flw	fa3,84(a0)
80008b32:	6c6c                	flw	fa1,92(s0)
80008b34:	6e20                	flw	fs0,88(a2)
80008b36:	6565                	lui	a0,0x19
80008b38:	2064                	fld	fs1,192(s0)
80008b3a:	6f74                	flw	fa3,92(a4)
80008b3c:	7220                	flw	fs0,96(a2)
80008b3e:	6e75                	lui	t3,0x1d
80008b40:	203a                	fld	ft0,392(sp)
80008b42:	0000                	unimp
80008b44:	0909                	addi	s2,s2,2
80008b46:	6854                	flw	fa3,20(s0)
80008b48:	7369                	lui	t1,0xffffa
80008b4a:	6120                	flw	fs0,64(a0)
80008b4c:	7070                	flw	fa2,100(s0)
80008b4e:	696c                	flw	fa1,84(a0)
80008b50:	69746163          	bltu	s0,s7,800091d2 <loadStoreDyn+0x3a2>
80008b54:	69206e6f          	jal	t3,8000f1e6 <__global_pointer$+0x54b6>
80008b58:	4f442073          	csrs	0x4f4,s0
80008b5c:	454e                	lw	a0,208(sp)
80008b5e:	0a21                	addi	s4,s4,8
80008b60:	0000                	unimp
80008b62:	0000                	unimp
80008b64:	6572                	flw	fa0,28(sp)
80008b66:	7574                	flw	fa3,108(a0)
80008b68:	6e72                	flw	ft8,28(sp)
80008b6a:	6e69                	lui	t3,0x1a
80008b6c:	72652067          	0x72652067
80008b70:	6f72                	flw	ft10,28(sp)
80008b72:	0a35                	addi	s4,s4,13
80008b74:	0000                	unimp
80008b76:	0000                	unimp
80008b78:	6572                	flw	fa0,28(sp)
80008b7a:	7574                	flw	fa3,108(a0)
80008b7c:	6e72                	flw	ft8,28(sp)
80008b7e:	6e69                	lui	t3,0x1a
80008b80:	72652067          	0x72652067
80008b84:	6f72                	flw	ft10,28(sp)
80008b86:	0a36                	slli	s4,s4,0xd
80008b88:	0000                	unimp
80008b8a:	0000                	unimp
80008b8c:	7345                	lui	t1,0xffff1
80008b8e:	6f74                	flw	fa3,92(a4)
80008b90:	2075                	jal	80008c3c <_write_r+0x3dc>
80008b92:	7270                	flw	fa2,100(a2)
80008b94:	7365                	lui	t1,0xffff9
80008b96:	7161206f          	j	8001b2ac <__global_pointer$+0x1157c>
80008b9a:	6975                	lui	s2,0x1d
80008b9c:	2e36                	fld	ft8,328(sp)
80008b9e:	2e2e                	fld	ft8,200(sp)
80008ba0:	000a                	c.slli	zero,0x2
80008ba2:	0000                	unimp
80008ba4:	2049                	jal	80008c26 <_write_r+0x3c6>
80008ba6:	20746f67          	0x20746f67
80008baa:	2061                	jal	80008c32 <_write_r+0x3d2>
80008bac:	7266                	flw	ft4,120(sp)
80008bae:	6565                	lui	a0,0x19
80008bb0:	7320                	flw	fs0,96(a4)
80008bb2:	7265                	lui	tp,0xffff9
80008bb4:	6976                	flw	fs2,92(sp)
80008bb6:	73206563          	bltu	zero,s2,800092e0 <loadStoreDyn+0x4b0>
80008bba:	6f6c                	flw	fa1,92(a4)
80008bbc:	212d                	jal	80008fe6 <loadStoreDyn+0x1b6>
80008bbe:	2021                	jal	80008bc6 <_write_r+0x366>
80008bc0:	3e2d                	jal	800086fa <vNI_TX_HandlerTask+0x2e>
80008bc2:	0020                	addi	s0,sp,8
80008bc4:	72617453          	0x72617453
80008bc8:	6974                	flw	fa3,84(a0)
80008bca:	676e                	flw	fa4,216(sp)
80008bcc:	4120                	lw	s0,64(a0)
80008bce:	7070                	flw	fa2,100(s0)
80008bd0:	696c                	flw	fa1,84(a0)
80008bd2:	69746163          	bltu	s0,s7,80009254 <loadStoreDyn+0x424>
80008bd6:	203a6e6f          	jal	t3,800af5d8 <__stack_top+0x68648>
80008bda:	0000                	unimp
80008bdc:	7345                	lui	t1,0xffff1
80008bde:	6f74                	flw	fa3,92(a4)
80008be0:	2075                	jal	80008c8c <_write_r+0x42c>
80008be2:	7270                	flw	fa2,100(a2)
80008be4:	7365                	lui	t1,0xffff9
80008be6:	7161206f          	j	8001b2fc <__global_pointer$+0x115cc>
80008bea:	6975                	lui	s2,0x1d
80008bec:	2e2e2e37          	lui	t3,0x2e2e2
80008bf0:	000a                	c.slli	zero,0x2
80008bf2:	0000                	unimp
80008bf4:	646e6553          	0x646e6553
80008bf8:	6e69                	lui	t3,0x1a
80008bfa:	41542067          	0x41542067
80008bfe:	535f4b53          	0x535f4b53
80008c02:	4154                	lw	a3,4(a0)
80008c04:	5452                	lw	s0,52(sp)
80008c06:	7420                	flw	fs0,104(s0)
80008c08:	6174206f          	j	8004ba1e <__stack_top+0x4a8e>
80008c0c:	00206b73          	csrrsi	s6,frm,0
80008c10:	7041                	c.lui	zero,0xffff0
80008c12:	6c70                	flw	fa2,92(s0)
80008c14:	6369                	lui	t1,0x1a
80008c16:	7461                	lui	s0,0xffff8
80008c18:	6f69                	lui	t5,0x1a
80008c1a:	206e                	fld	ft0,216(sp)
80008c1c:	7369                	lui	t1,0xffffa
80008c1e:	6120                	flw	fs0,64(a0)
80008c20:	6c6c                	flw	fa1,92(s0)
80008c22:	7461636f          	jal	t1,8001f368 <__global_pointer$+0x15638>
80008c26:	6465                	lui	s0,0x19
80008c28:	203a                	fld	ft0,392(sp)
80008c2a:	0000                	unimp
80008c2c:	72617453          	0x72617453
80008c30:	2074                	fld	fa3,192(s0)
80008c32:	6d6d6f63          	bltu	s10,s6,80009310 <loadStoreDyn+0x4e0>
80008c36:	6e61                	lui	t3,0x18
80008c38:	2064                	fld	fs1,192(s0)
80008c3a:	746e6573          	csrrsi	a0,0x746,28
80008c3e:	7420                	flw	fs0,104(s0)
80008c40:	7665206f          	j	8005b3a6 <__stack_top+0x14416>
80008c44:	7265                	lui	tp,0xffff9
80008c46:	2079                	jal	80008cd4 <_write_r+0x474>
80008c48:	6174                	flw	fa3,68(a0)
80008c4a:	2e2e6b73          	csrrsi	s6,0x2e2,28
80008c4e:	0a2e                	slli	s4,s4,0xb
80008c50:	0000                	unimp
80008c52:	0000                	unimp
80008c54:	6572                	flw	fa0,28(sp)
80008c56:	7574                	flw	fa3,108(a0)
80008c58:	6e72                	flw	ft8,28(sp)
80008c5a:	6e69                	lui	t3,0x1a
80008c5c:	72652067          	0x72652067
80008c60:	6f72                	flw	ft10,28(sp)
80008c62:	0a30                	addi	a2,sp,280
80008c64:	0000                	unimp
80008c66:	0000                	unimp
80008c68:	6572                	flw	fa0,28(sp)
80008c6a:	7574                	flw	fa3,108(a0)
80008c6c:	6e72                	flw	ft8,28(sp)
80008c6e:	6e69                	lui	t3,0x1a
80008c70:	72652067          	0x72652067
80008c74:	6f72                	flw	ft10,28(sp)
80008c76:	0a31                	addi	s4,s4,12
80008c78:	0000                	unimp
80008c7a:	0000                	unimp
80008c7c:	4544                	lw	s1,12(a0)
80008c7e:	2055                	jal	80008d22 <_write_r+0x4c2>
80008c80:	5552                	lw	a0,52(sp)
80008c82:	4d49                	li	s10,18
80008c84:	4e20                	lw	s0,88(a2)
80008c86:	5041204f          	fnmadd.s	ft0,ft2,ft4,fa0,rdn
80008c8a:	5f49                	li	t5,-14
80008c8c:	46746547          	fmsub.q	fa0,fs0,ft7,fs0,unknown
80008c90:	6572                	flw	fa0,28(sp)
80008c92:	5465                	li	s0,-7
80008c94:	7361                	lui	t1,0xffff8
80008c96:	6f6c536b          	0x6f6c536b
80008c9a:	2874                	fld	fa3,208(s0)
80008c9c:	0a29                	addi	s4,s4,10
80008c9e:	0000                	unimp
80008ca0:	20746f47          	fmsub.s	ft10,fs0,ft7,ft4,unknown
80008ca4:	746f6c73          	csrrsi	s8,0x746,30
80008ca8:	203a                	fld	ft0,392(sp)
80008caa:	0000                	unimp
80008cac:	6154                	flw	fa3,4(a0)
80008cae:	74206b73          	csrrsi	s6,0x742,0
80008cb2:	6c61746f          	jal	s0,80020378 <__global_pointer$+0x16648>
80008cb6:	7320                	flw	fs0,96(a4)
80008cb8:	7a69                	lui	s4,0xffffa
80008cba:	2065                	jal	80008d62 <_write_r+0x502>
80008cbc:	7428                	flw	fa0,104(s0)
80008cbe:	7478                	flw	fa4,108(s0)
80008cc0:	7373622b          	0x7373622b
80008cc4:	3a29                	jal	800085de <vNI_RX_HandlerTask+0x742>
80008cc6:	0020                	addi	s0,sp,8
80008cc8:	6154                	flw	fa3,4(a0)
80008cca:	61206b73          	csrrsi	s6,0x612,0
80008cce:	6464                	flw	fs1,76(s0)
80008cd0:	3a72                	fld	fs4,312(sp)
80008cd2:	0020                	addi	s0,sp,8
80008cd4:	6572                	flw	fa0,28(sp)
80008cd6:	7574                	flw	fa3,108(a0)
80008cd8:	6e72                	flw	ft8,28(sp)
80008cda:	6e69                	lui	t3,0x1a
80008cdc:	72652067          	0x72652067
80008ce0:	6f72                	flw	ft10,28(sp)
80008ce2:	0a32                	slli	s4,s4,0xc
80008ce4:	0000                	unimp
80008ce6:	0000                	unimp
80008ce8:	614c                	flw	fa1,4(a0)
80008cea:	6154                	flw	fa3,4(a0)
80008cec:	00006b73          	csrrsi	s6,ustatus,0
80008cf0:	5245                	li	tp,-15
80008cf2:	4f52                	lw	t5,20(sp)
80008cf4:	2052                	fld	ft0,272(sp)
80008cf6:	202d                	jal	80008d20 <_write_r+0x4c0>
80008cf8:	5041                	c.li	zero,-16
80008cfa:	5f49                	li	t5,-14
80008cfc:	6154                	flw	fa3,4(a0)
80008cfe:	74536b73          	csrrsi	s6,0x745,6
80008d02:	7261                	lui	tp,0xffff8
80008d04:	2174                	fld	fa3,192(a0)
80008d06:	2121                	jal	8000910e <loadStoreDyn+0x2de>
80008d08:	000a                	c.slli	zero,0x2
80008d0a:	0000                	unimp
80008d0c:	7061                	c.lui	zero,0xffff8
80008d0e:	3a70                	fld	fa2,240(a2)
80008d10:	0020                	addi	s0,sp,8
80008d12:	0000                	unimp
80008d14:	6946                	flw	fs2,80(sp)
80008d16:	696e                	flw	fs2,216(sp)
80008d18:	6e696873          	csrrsi	a6,0x6e6,18
80008d1c:	61742067          	0x61742067
80008d20:	003a6b73          	csrrsi	s6,fcsr,20
80008d24:	7246                	flw	ft4,112(sp)
80008d26:	73206d6f          	jal	s10,8000f458 <__global_pointer$+0x5728>
80008d2a:	6f6c                	flw	fa1,92(a4)
80008d2c:	3a74                	fld	fa3,240(a2)
80008d2e:	0020                	addi	s0,sp,8
80008d30:	6564                	flw	fs1,76(a0)
80008d32:	656c                	flw	fa1,76(a0)
80008d34:	6574                	flw	fa3,76(a0)
80008d36:	2064                	fld	fs1,192(s0)
80008d38:	68746977          	0x68746977
80008d3c:	7320                	flw	fs0,96(a4)
80008d3e:	6375                	lui	t1,0x1d
80008d40:	73736573          	csrrsi	a0,0x737,6
80008d44:	2021                	jal	80008d4c <_write_r+0x4ec>
80008d46:	7246                	flw	ft4,112(sp)
80008d48:	61206d6f          	jal	s10,8000f35a <__global_pointer$+0x562a>
80008d4c:	7070                	flw	fa2,100(s0)
80008d4e:	696c                	flw	fa1,84(a0)
80008d50:	69746163          	bltu	s0,s7,800093d2 <loadStoreDyn+0x5a2>
80008d54:	00206e6f          	jal	t3,8000ed56 <__global_pointer$+0x5026>
80008d58:	6154                	flw	fa3,4(a0)
80008d5a:	00206b73          	csrrsi	s6,frm,0
80008d5e:	0000                	unimp
80008d60:	735d                	lui	t1,0xffff7
80008d62:	6174                	flw	fa3,68(a0)
80008d64:	7574                	flw	fa3,108(a0)
80008d66:	00203a73          	csrrc	s4,frm,zero
80008d6a:	0000                	unimp
80008d6c:	6154                	flw	fa3,4(a0)
80008d6e:	694c6b73          	csrrsi	s6,0x694,24
80008d72:	005b7473          	csrrci	s0,utvec,22
80008d76:	0000                	unimp
80008d78:	6154                	flw	fa3,4(a0)
80008d7a:	694c6b73          	csrrsi	s6,0x694,24
80008d7e:	695b7473          	csrrci	s0,0x695,22
80008d82:	2e5d                	jal	80009138 <loadStoreDyn+0x308>
80008d84:	74617473          	csrrci	s0,0x746,2
80008d88:	7375                	lui	t1,0xffffd
80008d8a:	0020                	addi	s0,sp,8
80008d8c:	6552                	flw	fa0,20(sp)
80008d8e:	7574                	flw	fa3,108(a0)
80008d90:	6e72                	flw	ft8,28(sp)
80008d92:	6e69                	lui	t3,0x1a
80008d94:	65622067          	0x65622067
80008d98:	73756163          	bltu	a0,s7,800094ba <loadStoreDyn+0x68a>
80008d9c:	2065                	jal	80008e44 <loadStoreDyn+0x14>
80008d9e:	203a666f          	jal	a2,800af7a0 <__stack_top+0x68810>
80008da2:	0000                	unimp
80008da4:	63656843          	fmadd.d	fa6,fa0,fs6,fa2,unknown
80008da8:	676e696b          	0x676e696b
80008dac:	7420                	flw	fs0,104(s0)
80008dae:	6568                	flw	fa0,76(a0)
80008db0:	5020                	lw	s0,96(s0)
80008db2:	5049                	c.li	zero,-14
80008db4:	2045                	jal	80008e54 <loadStoreDyn+0x24>
80008db6:	7420666f          	jal	a2,8000f4f8 <__global_pointer$+0x57c8>
80008dba:	7361                	lui	t1,0xffff8
80008dbc:	6f6c536b          	0x6f6c536b
80008dc0:	3a74                	fld	fa3,240(a2)
80008dc2:	0020                	addi	s0,sp,8
80008dc4:	3a69                	jal	8000875e <vNI_TMR_HandlerTask+0x22>
80008dc6:	0020                	addi	s0,sp,8
80008dc8:	74617473          	csrrci	s0,0x746,2
80008dcc:	7375                	lui	t1,0xffffd
80008dce:	203a                	fld	ft0,392(sp)
80008dd0:	0000                	unimp
80008dd2:	0000                	unimp
80008dd4:	2d2d                	jal	8000940e <loadStoreDyn+0x5de>
80008dd6:	0a2d                	addi	s4,s4,11
80008dd8:	0000                	unimp
	...

80008ddc <powerAvgBufferIdle>:
80008ddc:	0031 0000 003e 0000 004d 0000               1...>...M...

80008de8 <powerSwitchControlIdle>:
80008de8:	000e 0000 0012 0000 0016 0000               ............

80008df4 <powerAvgBufferActive>:
80008df4:	0076 0000 0097 0000 00bc 0000               v...........

80008e00 <powerSwitchControlActive>:
80008e00:	0029 0000 0034 0000 0041 0000               )...4...A...

80008e0c <readEnergyMemory>:
80008e0c:	18cf 0000 1e74 0000 0340 0000               ....t...@...

80008e18 <writeEnergyMemory>:
80008e18:	228b 0000 2b23 0000 0240 0000               ."..#+..@...

80008e24 <arithDyn>:
80008e24:	035b 0000 0449 0000 086e 0000               [...I...n...

80008e30 <loadStoreDyn>:
80008e30:	0622 0000 07d1 0000 09d9 0000 2d2d 2d2d     "...........----
80008e40:	2d2d 2d2d 2d2d 2d2d 2d2d 2d2d 2d2d 2d2d     ----------------
80008e50:	2d2d 2d2d 2d2d 000a 6f4c 6461 3a73 0909     ------..Loads:..
80008e60:	0000 0000 7453 726f 7365 093a 0009 0000     ....Stores:.....
80008e70:	744f 6568 7372 093a 0009 0000 7964 616e     Others:.....dyna
80008e80:	696d 4563 656e 6772 5f79 6f52 7475 7265     micEnergy_Router
80008e90:	3e20 203e 0000 0000 6f74 6174 206c 6e69      >> ....total in
80008ea0:	7473 7572 7463 6f69 736e 7e7e 3e7e 0020     structions~~~> .
80008eb0:	6f54 6174 456c 656e 6772 3a79 0020 0000     TotalEnergy: ...
80008ec0:	6e45 7265 7967 6350 746b 7320 6e65 0a74     EnergyPckt sent.
80008ed0:	0000 0000 000a 0000 4e45 5254 4945 4e20     ........ENTREI N
80008ee0:	2041 4e49 4554 5252 5055 4143 204f 5852     A INTERRUPCAO RX
80008ef0:	000a 0000 4e45 5254 4945 4e20 2041 4e49     ....ENTREI NA IN
80008f00:	4554 5252 5055 4143 204f 5854 000a 0000     TERRUPCAO TX....
80008f10:	4e45 5254 4945 4e20 2041 4e49 4554 5252     ENTREI NA INTERR
80008f20:	5055 4143 204f 4d54 0a52 0000 7266 6d6f     UPCAO TMR...from
80008f30:	203a 0000 736d 2067 6f70 6e69 6574 3a72     : ..msg pointer:
80008f40:	0020 0000 694d 686e 2061 6174 6b73 4920      ...Minha task I
80008f50:	3a44 0020 6553 646e 6e69 5167 6575 6575     D: .SendingQueue
80008f60:	665f 6f72 746e 203a 0000 0000 6552 7473     _front: ....Rest
80008f70:	7561 6172 646e 206f 6174 6b73 6c53 746f     aurando taskSlot
80008f80:	0020 0000 5245 4f52 2152 6420 7365 6f63      ...ERROR! desco
80008f90:	686e 6365 6469 216f 2021 0000 5041 5f49     nhecido!! ..API_
80008fa0:	7254 3279 6553 646e 7320 6375 6563 7373     Try2Send success
80008fb0:	0a21 0000 5041 5f49 7254 3279 6553 646e     !...API_Try2Send
80008fc0:	6620 6961 656c 2064 202d 6d65 7470 2079      failed - empty 
80008fd0:	6553 646e 7551 7565 2165 000a 5041 5f49     SendQueue!..API_
80008fe0:	7254 3279 6553 646e 6620 6961 656c 2064     Try2Send failed 
80008ff0:	202d 494e 545f 2058 636f 7563 6970 6465     - NI_TX occupied
80009000:	0a21 0000 7345 6f74 2075 7270 7365 206f     !...Estou preso 
80009010:	7161 6975 2e31 2e2e 000a 0000 7345 6f74     aqui1.......Esto
80009020:	2075 7270 7365 206f 7161 6975 2e32 2e2e     u preso aqui2...
80009030:	000a 0000 6174 6b73 6c53 746f 203a 0000     ....taskSlot: ..
80009040:	6920 206e 6874 2065 4950 4550 7320 6f6c      in the PIPE slo
80009050:	2074 0000 6441 6964 676e 6120 6d20 6773     t ..Adding a msg
80009060:	7420 206f 6174 6b73 0020 0000 7266 6d6f      to task ...from
80009070:	6120 7070 203a 0000 3e3e 3e3e 413e 6863      app: ..>>>>>Ach
80009080:	6965 6120 7571 2069 6f6e 7020 6e65 6964     ei aqui no pendi
80009090:	676e 0a21 0000 0000 7345 6f74 2075 7270     ng!.....Estou pr
800090a0:	7365 206f 7161 6975 2e33 2e2e 000a 0000     eso aqui3.......
800090b0:	7345 6f74 2075 7270 7365 206f 7161 6975     Estou preso aqui
800090c0:	2e34 2e2e 000a 0000 7345 6570 6172 646e     4.......Esperand
800090d0:	206f 654d 736e 6761 6d65 0a21 0000 0000     o Mensagem!.....
800090e0:	654d 736e 6761 6d65 5220 6365 6265 6469     Mensagem Recebid
800090f0:	2161 000a 0a0d 7246 6565 5452 534f 4520     a!....FreeRTOS E
80009100:	6178 706d 656c 0a0d 0000 0000 200a 6843     xample....... Ch
80009110:	6f72 6f6e 2073 6c70 7461 6f66 6d72 6920     ronos platform i
80009120:	696e 6974 6c61 7a69 6e69 2e67 2e2e 0a20     nitializing... .
80009130:	0000 0000 200a 6854 7369 7420 7265 696d     ..... This termi
80009140:	616e 206c 6562 6f6c 676e 2073 6f74 7420     nal belongs to t
80009150:	6568 6120 6464 6572 7373 203a 0000 0000     he address: ....
80009160:	000a 0000 5852 545f 5341 004b 5854 545f     ....RX_TASK.TX_T
80009170:	5341 004b 4d54 5f52 4154 4b53 0000 0000     ASK.TMR_TASK....
80009180:	200a 6854 7369 7020 6f72 6563 7373 726f     . This processor
80009190:	6920 2073 6874 2065 6c47 626f 6c61 4d20      is the Global M
800091a0:	7361 6574 3a72 0a20 0000 0000 6c47 626f     aster: .....Glob
800091b0:	6c61 614d 7473 7265 0000 0000 200a 6854     alMaster..... Th
800091c0:	7369 7020 6f72 6563 7373 726f 6920 2073     is processor is 
800091d0:	2061 6c53 7661 3a65 0a20 0000 5852 6920     a Slave: ...RX i
800091e0:	746e 7265 7572 7470 6f69 206e 6163 6374     nterruption catc
800091f0:	6568 0a64 0000 0000 4552 4f50 4953 4f54     hed.....REPOSITO
80009200:	5952 415f 5050 495f 464e 0a4f 0000 0000     RY_APP_INFO.....
80009210:	4e31 5f49 5852 4420 4e4f 2145 000a 0000     1NI_RX DONE!....
80009220:	4154 4b53 415f 4c4c 434f 5441 4f49 5f4e     TASK_ALLOCATION_
80009230:	4553 444e 000a 0000 6154 6b73 7320 6f6c     SEND....Task slo
80009240:	3a74 0020 6154 6b73 7320 6f6c 2074 6154     t: .Task slot Ta
80009250:	6b73 6441 7264 203a 0000 0000 4e32 5f49     skAddr: ....2NI_
80009260:	5852 4420 4e4f 2145 000a 0000 7266 6d6f     RX DONE!....from
80009270:	6120 7070 696c 6163 6974 6e6f 0020 0000      application ...
80009280:	4946 494e 4853 4445 203a 6154 6b73 0020     FINISHED: Task .
80009290:	4e33 5f49 5852 4420 4e4f 2145 000a 0000     3NI_RX DONE!....
800092a0:	4154 4b53 415f 4c4c 434f 5441 4f49 5f4e     TASK_ALLOCATION_
800092b0:	4946 494e 4853 4445 000a 0000 4e34 5f49     FINISHED....4NI_
800092c0:	5852 4420 4e4f 2145 000a 0000 4154 4b53     RX DONE!....TASK
800092d0:	415f 4c4c 434f 5441 4f49 5f4e 5553 4343     _ALLOCATION_SUCC
800092e0:	5345 0a53 0000 0000 4e35 5f49 5852 4420     ESS.....5NI_RX D
800092f0:	4e4f 2145 000a 0000 6843 6765 756f 7520     ONE!....Chegou u
80009300:	206d 4154 4b53 535f 4154 5452 0a21 0000     m TASK_START!...
80009310:	4e36 5f49 5852 4420 4e4f 2145 000a 0000     6NI_RX DONE!....
80009320:	6843 6765 756f 7520 206d 4154 4b53 525f     Chegou um TASK_R
80009330:	4e55 0a21 0000 0000 6620 6f72 206d 7061     UN!..... from ap
80009340:	2070 0000 7453 7261 6974 676e 5420 7361     p ..Starting Tas
80009350:	206b 0000 6174 6b73 6c53 746f 7220 6e75     k ..taskSlot run
80009360:	203a 0000 4e37 5f49 5852 4420 4e4f 2145     : ..7NI_RX DONE!
80009370:	000a 0000 6154 6b73 203a 0000 6843 6765     ....Task: ..Cheg
80009380:	756f 7520 206d 656d 7373 6761 2065 6572     ou um message re
80009390:	7571 7365 2174 4120 7070 203a 0000 0000     quest! App: ....
800093a0:	654d 736e 6761 6d65 6e20 a3c3 206f 6e65     Mensagem n..o en
800093b0:	6f63 746e 6172 6164 202c 6461 6369 6f69     contrada, adicio
800093c0:	616e 646e 206f 6f61 5020 6e65 6964 676e     nando ao Pending
800093d0:	6552 2171 000a 0000 654d 736e 6761 6d65     Req!....Mensagem
800093e0:	6520 636e 6e6f 7274 6461 2061 6f6e 7020      encontrada no p
800093f0:	7069 2165 000a 0000 4e38 5f49 5852 4420     ipe!....8NI_RX D
80009400:	4e4f 2145 000a 0000 6554 206d 6d75 2061     ONE!....Tem uma 
80009410:	656d 736e 6761 6d65 6320 6568 6167 646e     mensagem chegand
80009420:	2e6f 2e2e 000a 0000 4e39 5f49 5852 4420     o.......9NI_RX D
80009430:	4e4f 2145 000a 0000 3031 494e 525f 2058     ONE!....10NI_RX 
80009440:	4f44 454e 0a21 0000 6552 6563 6562 646e     DONE!...Recebend
80009450:	206f 6170 6f63 6574 6420 2065 6574 706d     o pacote de temp
80009460:	7265 7461 7275 0061 3131 494e 525f 2058     eratura.11NI_RX 
80009470:	4f44 454e 0a21 0000 6574 706d 203a 0000     DONE!...temp: ..
80009480:	6570 0000 3231 494e 525f 2058 4f44 454e     pe..12NI_RX DONE
80009490:	0a21 0000 3331 494e 525f 2058 4f48 444c     !...13NI_RX HOLD
800094a0:	0a21 0000 5245 4f52 2052 7845 6574 6e72     !...ERROR Extern
800094b0:	6c61 325f 495f 5152 6148 646e 656c 2072     al_2_IRQHandler 
800094c0:	6e55 6e6b 776f 2d6e 6553 7672 6369 2065     Unknown-Service 
800094d0:	0000 0000 3431 494e 525f 2058 4f44 454e     ....14NI_RX DONE
800094e0:	0a21 0000 5854 6920 746e 7265 7572 7470     !...TX interrupt
800094f0:	6f69 206e 6163 6374 6568 0a64 0000 0000     ion catched.....
80009500:	6c47 626f 6c61 614d 7473 7265 6341 6974     GlobalMasterActi
80009510:	6576 0000 4720 6f6c 6162 4d6c 7361 6574     ve.. GlobalMaste
80009520:	5272 756f 6974 656e 2e2e 0d2e 000a 0000     rRoutine........
