
Debug/miv-rv32im-freertos-port-test.elf:     file format elf32-littleriscv


Disassembly of section .text:

80000000 <_start>:
80000000:	00c0006f          	j	8000000c <handle_reset>

80000004 <nmi_vector>:
80000004:	0000006f          	j	80000004 <nmi_vector>

80000008 <trap_vector>:
80000008:	0280006f          	j	80000030 <trap_entry>

8000000c <handle_reset>:
8000000c:	00000297          	auipc	t0,0x0
80000010:	02428293          	addi	t0,t0,36 # 80000030 <trap_entry>
80000014:	30529073          	csrw	mtvec,t0
80000018:	30005073          	csrwi	mstatus,0
8000001c:	30405073          	csrwi	mie,0
80000020:	00018193          	mv	gp,gp
80000024:	0003e117          	auipc	sp,0x3e
80000028:	bac10113          	addi	sp,sp,-1108 # 8003dbd0 <__stack_top>
8000002c:	1840006f          	j	800001b0 <_init>

80000030 <trap_entry>:
80000030:	f8010113          	addi	sp,sp,-128
80000034:	00112023          	sw	ra,0(sp)
80000038:	00212223          	sw	sp,4(sp)
8000003c:	00312423          	sw	gp,8(sp)
80000040:	00412623          	sw	tp,12(sp)
80000044:	00512823          	sw	t0,16(sp)
80000048:	00612a23          	sw	t1,20(sp)
8000004c:	00712c23          	sw	t2,24(sp)
80000050:	00812e23          	sw	s0,28(sp)
80000054:	02912023          	sw	s1,32(sp)
80000058:	02a12223          	sw	a0,36(sp)
8000005c:	02b12423          	sw	a1,40(sp)
80000060:	02c12623          	sw	a2,44(sp)
80000064:	02d12823          	sw	a3,48(sp)
80000068:	02e12a23          	sw	a4,52(sp)
8000006c:	02f12c23          	sw	a5,56(sp)
80000070:	03012e23          	sw	a6,60(sp)
80000074:	05112023          	sw	a7,64(sp)
80000078:	05212223          	sw	s2,68(sp)
8000007c:	05312423          	sw	s3,72(sp)
80000080:	05412623          	sw	s4,76(sp)
80000084:	05512823          	sw	s5,80(sp)
80000088:	05612a23          	sw	s6,84(sp)
8000008c:	05712c23          	sw	s7,88(sp)
80000090:	05812e23          	sw	s8,92(sp)
80000094:	07912023          	sw	s9,96(sp)
80000098:	07a12223          	sw	s10,100(sp)
8000009c:	07b12423          	sw	s11,104(sp)
800000a0:	07c12623          	sw	t3,108(sp)
800000a4:	07d12823          	sw	t4,112(sp)
800000a8:	07e12a23          	sw	t5,116(sp)
800000ac:	07f12c23          	sw	t6,120(sp)
800000b0:	341022f3          	csrr	t0,mepc
800000b4:	06512e23          	sw	t0,124(sp)
800000b8:	34202573          	csrr	a0,mcause
800000bc:	341025f3          	csrr	a1,mepc
800000c0:	00010613          	mv	a2,sp
800000c4:	428000ef          	jal	ra,800004ec <handle_trap>
800000c8:	34151073          	csrw	mepc,a0
800000cc:	000022b7          	lui	t0,0x2
800000d0:	80028293          	addi	t0,t0,-2048 # 1800 <HEAP_SIZE-0xe800>
800000d4:	3002a073          	csrs	mstatus,t0
800000d8:	00012083          	lw	ra,0(sp)
800000dc:	00412103          	lw	sp,4(sp)
800000e0:	00812183          	lw	gp,8(sp)
800000e4:	00c12203          	lw	tp,12(sp)
800000e8:	01012283          	lw	t0,16(sp)
800000ec:	01412303          	lw	t1,20(sp)
800000f0:	01812383          	lw	t2,24(sp)
800000f4:	01c12403          	lw	s0,28(sp)
800000f8:	02012483          	lw	s1,32(sp)
800000fc:	02412503          	lw	a0,36(sp)
80000100:	02812583          	lw	a1,40(sp)
80000104:	02c12603          	lw	a2,44(sp)
80000108:	03012683          	lw	a3,48(sp)
8000010c:	03412703          	lw	a4,52(sp)
80000110:	03812783          	lw	a5,56(sp)
80000114:	03c12803          	lw	a6,60(sp)
80000118:	04012883          	lw	a7,64(sp)
8000011c:	04412903          	lw	s2,68(sp)
80000120:	04812983          	lw	s3,72(sp)
80000124:	04c12a03          	lw	s4,76(sp)
80000128:	05012a83          	lw	s5,80(sp)
8000012c:	05412b03          	lw	s6,84(sp)
80000130:	05812b83          	lw	s7,88(sp)
80000134:	05c12c03          	lw	s8,92(sp)
80000138:	06012c83          	lw	s9,96(sp)
8000013c:	06412d03          	lw	s10,100(sp)
80000140:	06812d83          	lw	s11,104(sp)
80000144:	06c12e03          	lw	t3,108(sp)
80000148:	07012e83          	lw	t4,112(sp)
8000014c:	07412f03          	lw	t5,116(sp)
80000150:	07812f83          	lw	t6,120(sp)
80000154:	08010113          	addi	sp,sp,128
80000158:	30200073          	mret
8000015c:	0000                	unimp
	...

80000160 <zero_section>:
80000160:	fd010113          	addi	sp,sp,-48
80000164:	02812623          	sw	s0,44(sp)
80000168:	03010413          	addi	s0,sp,48
8000016c:	fca42e23          	sw	a0,-36(s0)
80000170:	fcb42c23          	sw	a1,-40(s0)
80000174:	fdc42783          	lw	a5,-36(s0)
80000178:	fef42623          	sw	a5,-20(s0)
8000017c:	0180006f          	j	80000194 <zero_section+0x34>
80000180:	fec42783          	lw	a5,-20(s0)
80000184:	0007a023          	sw	zero,0(a5)
80000188:	fec42783          	lw	a5,-20(s0)
8000018c:	00478793          	addi	a5,a5,4
80000190:	fef42623          	sw	a5,-20(s0)
80000194:	fec42703          	lw	a4,-20(s0)
80000198:	fd842783          	lw	a5,-40(s0)
8000019c:	fee7f2e3          	bleu	a4,a5,80000180 <zero_section+0x20>
800001a0:	00000013          	nop
800001a4:	02c12403          	lw	s0,44(sp)
800001a8:	03010113          	addi	sp,sp,48
800001ac:	00008067          	ret

800001b0 <_init>:
800001b0:	fe010113          	addi	sp,sp,-32
800001b4:	00112e23          	sw	ra,28(sp)
800001b8:	00812c23          	sw	s0,24(sp)
800001bc:	02010413          	addi	s0,sp,32
800001c0:	800047b7          	lui	a5,0x80004
800001c4:	7c078793          	addi	a5,a5,1984 # 800047c0 <__stack_top+0xfffc6bf0>
800001c8:	fef42623          	sw	a5,-20(s0)
800001cc:	fec42783          	lw	a5,-20(s0)
800001d0:	fef42023          	sw	a5,-32(s0)
800001d4:	fe042223          	sw	zero,-28(s0)
800001d8:	fe042423          	sw	zero,-24(s0)
800001dc:	97018593          	addi	a1,gp,-1680 # 80004af0 <__sbss_end>
800001e0:	90018513          	addi	a0,gp,-1792 # 80004a80 <__data_end>
800001e4:	f7dff0ef          	jal	ra,80000160 <zero_section>
800001e8:	8001e7b7          	lui	a5,0x8001e
800001ec:	bd078593          	addi	a1,a5,-1072 # 8001dbd0 <__stack_top+0xfffe0000>
800001f0:	97018513          	addi	a0,gp,-1680 # 80004af0 <__sbss_end>
800001f4:	f6dff0ef          	jal	ra,80000160 <zero_section>
800001f8:	fe040793          	addi	a5,s0,-32
800001fc:	00078593          	mv	a1,a5
80000200:	00100513          	li	a0,1
80000204:	1e5020ef          	jal	ra,80002be8 <main>
80000208:	00000013          	nop
8000020c:	01c12083          	lw	ra,28(sp)
80000210:	01812403          	lw	s0,24(sp)
80000214:	02010113          	addi	sp,sp,32
80000218:	00008067          	ret

8000021c <_fini>:
8000021c:	ff010113          	addi	sp,sp,-16
80000220:	00812623          	sw	s0,12(sp)
80000224:	01010413          	addi	s0,sp,16
80000228:	00000013          	nop
8000022c:	00c12403          	lw	s0,12(sp)
80000230:	01010113          	addi	sp,sp,16
80000234:	00008067          	ret

80000238 <PLIC_DisableIRQ>:
80000238:	fd010113          	addi	sp,sp,-48
8000023c:	02812623          	sw	s0,44(sp)
80000240:	03010413          	addi	s0,sp,48
80000244:	fca42e23          	sw	a0,-36(s0)
80000248:	f14027f3          	csrr	a5,mhartid
8000024c:	fef42623          	sw	a5,-20(s0)
80000250:	fec42783          	lw	a5,-20(s0)
80000254:	fef42423          	sw	a5,-24(s0)
80000258:	40000737          	lui	a4,0x40000
8000025c:	fdc42783          	lw	a5,-36(s0)
80000260:	0057d793          	srli	a5,a5,0x5
80000264:	fe842683          	lw	a3,-24(s0)
80000268:	00569693          	slli	a3,a3,0x5
8000026c:	00f686b3          	add	a3,a3,a5
80000270:	000017b7          	lui	a5,0x1
80000274:	80078793          	addi	a5,a5,-2048 # 800 <HEAP_SIZE-0xf800>
80000278:	00f687b3          	add	a5,a3,a5
8000027c:	00279793          	slli	a5,a5,0x2
80000280:	00f707b3          	add	a5,a4,a5
80000284:	0007a783          	lw	a5,0(a5)
80000288:	fef42223          	sw	a5,-28(s0)
8000028c:	fdc42783          	lw	a5,-36(s0)
80000290:	01f7f793          	andi	a5,a5,31
80000294:	00100713          	li	a4,1
80000298:	00f717b3          	sll	a5,a4,a5
8000029c:	fff7c793          	not	a5,a5
800002a0:	fe442703          	lw	a4,-28(s0)
800002a4:	00f777b3          	and	a5,a4,a5
800002a8:	fef42223          	sw	a5,-28(s0)
800002ac:	40000737          	lui	a4,0x40000
800002b0:	fdc42783          	lw	a5,-36(s0)
800002b4:	0057d793          	srli	a5,a5,0x5
800002b8:	fe842683          	lw	a3,-24(s0)
800002bc:	00569693          	slli	a3,a3,0x5
800002c0:	00f686b3          	add	a3,a3,a5
800002c4:	000017b7          	lui	a5,0x1
800002c8:	80078793          	addi	a5,a5,-2048 # 800 <HEAP_SIZE-0xf800>
800002cc:	00f687b3          	add	a5,a3,a5
800002d0:	00279793          	slli	a5,a5,0x2
800002d4:	00f707b3          	add	a5,a4,a5
800002d8:	fe442703          	lw	a4,-28(s0)
800002dc:	00e7a023          	sw	a4,0(a5)
800002e0:	00000013          	nop
800002e4:	02c12403          	lw	s0,44(sp)
800002e8:	03010113          	addi	sp,sp,48
800002ec:	00008067          	ret

800002f0 <PLIC_ClaimIRQ>:
800002f0:	fe010113          	addi	sp,sp,-32
800002f4:	00812e23          	sw	s0,28(sp)
800002f8:	02010413          	addi	s0,sp,32
800002fc:	f14027f3          	csrr	a5,mhartid
80000300:	fef42623          	sw	a5,-20(s0)
80000304:	fec42783          	lw	a5,-20(s0)
80000308:	fef42423          	sw	a5,-24(s0)
8000030c:	40000737          	lui	a4,0x40000
80000310:	fe842783          	lw	a5,-24(s0)
80000314:	20078793          	addi	a5,a5,512
80000318:	00c79793          	slli	a5,a5,0xc
8000031c:	00f707b3          	add	a5,a4,a5
80000320:	0047a783          	lw	a5,4(a5)
80000324:	00078513          	mv	a0,a5
80000328:	01c12403          	lw	s0,28(sp)
8000032c:	02010113          	addi	sp,sp,32
80000330:	00008067          	ret

80000334 <PLIC_CompleteIRQ>:
80000334:	fd010113          	addi	sp,sp,-48
80000338:	02812623          	sw	s0,44(sp)
8000033c:	03010413          	addi	s0,sp,48
80000340:	fca42e23          	sw	a0,-36(s0)
80000344:	f14027f3          	csrr	a5,mhartid
80000348:	fef42623          	sw	a5,-20(s0)
8000034c:	fec42783          	lw	a5,-20(s0)
80000350:	fef42423          	sw	a5,-24(s0)
80000354:	40000737          	lui	a4,0x40000
80000358:	fe842783          	lw	a5,-24(s0)
8000035c:	20078793          	addi	a5,a5,512
80000360:	00c79793          	slli	a5,a5,0xc
80000364:	00f707b3          	add	a5,a4,a5
80000368:	fdc42703          	lw	a4,-36(s0)
8000036c:	00e7a223          	sw	a4,4(a5)
80000370:	00000013          	nop
80000374:	02c12403          	lw	s0,44(sp)
80000378:	03010113          	addi	sp,sp,48
8000037c:	00008067          	ret

80000380 <__enable_irq>:
80000380:	fe010113          	addi	sp,sp,-32
80000384:	00812e23          	sw	s0,28(sp)
80000388:	02010413          	addi	s0,sp,32
8000038c:	300467f3          	csrrsi	a5,mstatus,8
80000390:	fef42623          	sw	a5,-20(s0)
80000394:	00000013          	nop
80000398:	01c12403          	lw	s0,28(sp)
8000039c:	02010113          	addi	sp,sp,32
800003a0:	00008067          	ret

800003a4 <handle_m_timer_interrupt>:
800003a4:	fe010113          	addi	sp,sp,-32
800003a8:	00112e23          	sw	ra,28(sp)
800003ac:	00812c23          	sw	s0,24(sp)
800003b0:	02010413          	addi	s0,sp,32
800003b4:	08000793          	li	a5,128
800003b8:	3047b7f3          	csrrc	a5,mie,a5
800003bc:	fef42623          	sw	a5,-20(s0)
800003c0:	548010ef          	jal	ra,80001908 <SysTick_Handler>
800003c4:	44000737          	lui	a4,0x44000
800003c8:	0000c7b7          	lui	a5,0xc
800003cc:	00f707b3          	add	a5,a4,a5
800003d0:	ffc7a803          	lw	a6,-4(a5) # bffc <HEAP_SIZE-0x4004>
800003d4:	ff87a783          	lw	a5,-8(a5)
800003d8:	9001a583          	lw	a1,-1792(gp) # 80004a80 <__data_end>
800003dc:	9041a603          	lw	a2,-1788(gp) # 80004a84 <__data_end+0x4>
800003e0:	44000537          	lui	a0,0x44000
800003e4:	f1402773          	csrr	a4,mhartid
800003e8:	fee42423          	sw	a4,-24(s0)
800003ec:	fe842883          	lw	a7,-24(s0)
800003f0:	00b786b3          	add	a3,a5,a1
800003f4:	00068313          	mv	t1,a3
800003f8:	00f33333          	sltu	t1,t1,a5
800003fc:	00c80733          	add	a4,a6,a2
80000400:	00e307b3          	add	a5,t1,a4
80000404:	00078713          	mv	a4,a5
80000408:	00068793          	mv	a5,a3
8000040c:	00070813          	mv	a6,a4
80000410:	00001737          	lui	a4,0x1
80000414:	80070713          	addi	a4,a4,-2048 # 800 <HEAP_SIZE-0xf800>
80000418:	00e88733          	add	a4,a7,a4
8000041c:	00371713          	slli	a4,a4,0x3
80000420:	00e50733          	add	a4,a0,a4
80000424:	00f72023          	sw	a5,0(a4)
80000428:	01072223          	sw	a6,4(a4)
8000042c:	08000793          	li	a5,128
80000430:	3047a7f3          	csrrs	a5,mie,a5
80000434:	fef42223          	sw	a5,-28(s0)
80000438:	00000013          	nop
8000043c:	01c12083          	lw	ra,28(sp)
80000440:	01812403          	lw	s0,24(sp)
80000444:	02010113          	addi	sp,sp,32
80000448:	00008067          	ret

8000044c <handle_m_ext_interrupt>:
8000044c:	fe010113          	addi	sp,sp,-32
80000450:	00112e23          	sw	ra,28(sp)
80000454:	00812c23          	sw	s0,24(sp)
80000458:	02010413          	addi	s0,sp,32
8000045c:	e95ff0ef          	jal	ra,800002f0 <PLIC_ClaimIRQ>
80000460:	fea42623          	sw	a0,-20(s0)
80000464:	fe0405a3          	sb	zero,-21(s0)
80000468:	800057b7          	lui	a5,0x80005
8000046c:	fec42703          	lw	a4,-20(s0)
80000470:	00271713          	slli	a4,a4,0x2
80000474:	9a078793          	addi	a5,a5,-1632 # 800049a0 <__stack_top+0xfffc6dd0>
80000478:	00f707b3          	add	a5,a4,a5
8000047c:	0007a783          	lw	a5,0(a5)
80000480:	000780e7          	jalr	a5
80000484:	00050793          	mv	a5,a0
80000488:	fef405a3          	sb	a5,-21(s0)
8000048c:	fec42503          	lw	a0,-20(s0)
80000490:	ea5ff0ef          	jal	ra,80000334 <PLIC_CompleteIRQ>
80000494:	feb44703          	lbu	a4,-21(s0)
80000498:	00100793          	li	a5,1
8000049c:	00f71663          	bne	a4,a5,800004a8 <handle_m_ext_interrupt+0x5c>
800004a0:	fec42503          	lw	a0,-20(s0)
800004a4:	d95ff0ef          	jal	ra,80000238 <PLIC_DisableIRQ>
800004a8:	00000013          	nop
800004ac:	01c12083          	lw	ra,28(sp)
800004b0:	01812403          	lw	s0,24(sp)
800004b4:	02010113          	addi	sp,sp,32
800004b8:	00008067          	ret

800004bc <handle_m_soft_interrupt>:
800004bc:	ff010113          	addi	sp,sp,-16
800004c0:	00112623          	sw	ra,12(sp)
800004c4:	00812423          	sw	s0,8(sp)
800004c8:	01010413          	addi	s0,sp,16
800004cc:	54c010ef          	jal	ra,80001a18 <Software_IRQHandler>
800004d0:	440007b7          	lui	a5,0x44000
800004d4:	0007a023          	sw	zero,0(a5) # 44000000 <RAM_SIZE+0x43f80000>
800004d8:	00000013          	nop
800004dc:	00c12083          	lw	ra,12(sp)
800004e0:	00812403          	lw	s0,8(sp)
800004e4:	01010113          	addi	sp,sp,16
800004e8:	00008067          	ret

800004ec <handle_trap>:
800004ec:	fe010113          	addi	sp,sp,-32
800004f0:	00112e23          	sw	ra,28(sp)
800004f4:	00812c23          	sw	s0,24(sp)
800004f8:	02010413          	addi	s0,sp,32
800004fc:	fea42623          	sw	a0,-20(s0)
80000500:	feb42423          	sw	a1,-24(s0)
80000504:	fec42783          	lw	a5,-20(s0)
80000508:	0207d263          	bgez	a5,8000052c <handle_trap+0x40>
8000050c:	fec42703          	lw	a4,-20(s0)
80000510:	800007b7          	lui	a5,0x80000
80000514:	fff7c793          	not	a5,a5
80000518:	00f77733          	and	a4,a4,a5
8000051c:	00b00793          	li	a5,11
80000520:	00f71663          	bne	a4,a5,8000052c <handle_trap+0x40>
80000524:	f29ff0ef          	jal	ra,8000044c <handle_m_ext_interrupt>
80000528:	0780006f          	j	800005a0 <handle_trap+0xb4>
8000052c:	fec42783          	lw	a5,-20(s0)
80000530:	0207d263          	bgez	a5,80000554 <handle_trap+0x68>
80000534:	fec42703          	lw	a4,-20(s0)
80000538:	800007b7          	lui	a5,0x80000
8000053c:	fff7c793          	not	a5,a5
80000540:	00f77733          	and	a4,a4,a5
80000544:	00700793          	li	a5,7
80000548:	00f71663          	bne	a4,a5,80000554 <handle_trap+0x68>
8000054c:	e59ff0ef          	jal	ra,800003a4 <handle_m_timer_interrupt>
80000550:	0500006f          	j	800005a0 <handle_trap+0xb4>
80000554:	fec42783          	lw	a5,-20(s0)
80000558:	0207d263          	bgez	a5,8000057c <handle_trap+0x90>
8000055c:	fec42703          	lw	a4,-20(s0)
80000560:	800007b7          	lui	a5,0x80000
80000564:	fff7c793          	not	a5,a5
80000568:	00f77733          	and	a4,a4,a5
8000056c:	00300793          	li	a5,3
80000570:	00f71663          	bne	a4,a5,8000057c <handle_trap+0x90>
80000574:	f49ff0ef          	jal	ra,800004bc <handle_m_soft_interrupt>
80000578:	0280006f          	j	800005a0 <handle_trap+0xb4>
8000057c:	00500613          	li	a2,5
80000580:	800047b7          	lui	a5,0x80004
80000584:	7c878593          	addi	a1,a5,1992 # 800047c8 <__stack_top+0xfffc6bf8>
80000588:	00100513          	li	a0,1
8000058c:	045020ef          	jal	ra,80002dd0 <write>
80000590:	fec42783          	lw	a5,-20(s0)
80000594:	00178793          	addi	a5,a5,1
80000598:	00078513          	mv	a0,a5
8000059c:	504000ef          	jal	ra,80000aa0 <_exit>
800005a0:	fe842783          	lw	a5,-24(s0)
800005a4:	00078513          	mv	a0,a5
800005a8:	01c12083          	lw	ra,28(sp)
800005ac:	01812403          	lw	s0,24(sp)
800005b0:	02010113          	addi	sp,sp,32
800005b4:	00008067          	ret

800005b8 <Invalid_IRQHandler>:
800005b8:	ff010113          	addi	sp,sp,-16
800005bc:	00812623          	sw	s0,12(sp)
800005c0:	01010413          	addi	s0,sp,16
800005c4:	00000793          	li	a5,0
800005c8:	00078513          	mv	a0,a5
800005cc:	00c12403          	lw	s0,12(sp)
800005d0:	01010113          	addi	sp,sp,16
800005d4:	00008067          	ret

800005d8 <External_1_IRQHandler>:
800005d8:	ff010113          	addi	sp,sp,-16
800005dc:	00812623          	sw	s0,12(sp)
800005e0:	01010413          	addi	s0,sp,16
800005e4:	00000793          	li	a5,0
800005e8:	00078513          	mv	a0,a5
800005ec:	00c12403          	lw	s0,12(sp)
800005f0:	01010113          	addi	sp,sp,16
800005f4:	00008067          	ret

800005f8 <External_2_IRQHandler>:
800005f8:	ff010113          	addi	sp,sp,-16
800005fc:	00812623          	sw	s0,12(sp)
80000600:	01010413          	addi	s0,sp,16
80000604:	00000793          	li	a5,0
80000608:	00078513          	mv	a0,a5
8000060c:	00c12403          	lw	s0,12(sp)
80000610:	01010113          	addi	sp,sp,16
80000614:	00008067          	ret

80000618 <External_3_IRQHandler>:
80000618:	ff010113          	addi	sp,sp,-16
8000061c:	00812623          	sw	s0,12(sp)
80000620:	01010413          	addi	s0,sp,16
80000624:	00000793          	li	a5,0
80000628:	00078513          	mv	a0,a5
8000062c:	00c12403          	lw	s0,12(sp)
80000630:	01010113          	addi	sp,sp,16
80000634:	00008067          	ret

80000638 <External_4_IRQHandler>:
80000638:	ff010113          	addi	sp,sp,-16
8000063c:	00812623          	sw	s0,12(sp)
80000640:	01010413          	addi	s0,sp,16
80000644:	00000793          	li	a5,0
80000648:	00078513          	mv	a0,a5
8000064c:	00c12403          	lw	s0,12(sp)
80000650:	01010113          	addi	sp,sp,16
80000654:	00008067          	ret

80000658 <External_5_IRQHandler>:
80000658:	ff010113          	addi	sp,sp,-16
8000065c:	00812623          	sw	s0,12(sp)
80000660:	01010413          	addi	s0,sp,16
80000664:	00000793          	li	a5,0
80000668:	00078513          	mv	a0,a5
8000066c:	00c12403          	lw	s0,12(sp)
80000670:	01010113          	addi	sp,sp,16
80000674:	00008067          	ret

80000678 <External_6_IRQHandler>:
80000678:	ff010113          	addi	sp,sp,-16
8000067c:	00812623          	sw	s0,12(sp)
80000680:	01010413          	addi	s0,sp,16
80000684:	00000793          	li	a5,0
80000688:	00078513          	mv	a0,a5
8000068c:	00c12403          	lw	s0,12(sp)
80000690:	01010113          	addi	sp,sp,16
80000694:	00008067          	ret

80000698 <External_7_IRQHandler>:
80000698:	ff010113          	addi	sp,sp,-16
8000069c:	00812623          	sw	s0,12(sp)
800006a0:	01010413          	addi	s0,sp,16
800006a4:	00000793          	li	a5,0
800006a8:	00078513          	mv	a0,a5
800006ac:	00c12403          	lw	s0,12(sp)
800006b0:	01010113          	addi	sp,sp,16
800006b4:	00008067          	ret

800006b8 <External_8_IRQHandler>:
800006b8:	ff010113          	addi	sp,sp,-16
800006bc:	00812623          	sw	s0,12(sp)
800006c0:	01010413          	addi	s0,sp,16
800006c4:	00000793          	li	a5,0
800006c8:	00078513          	mv	a0,a5
800006cc:	00c12403          	lw	s0,12(sp)
800006d0:	01010113          	addi	sp,sp,16
800006d4:	00008067          	ret

800006d8 <External_9_IRQHandler>:
800006d8:	ff010113          	addi	sp,sp,-16
800006dc:	00812623          	sw	s0,12(sp)
800006e0:	01010413          	addi	s0,sp,16
800006e4:	00000793          	li	a5,0
800006e8:	00078513          	mv	a0,a5
800006ec:	00c12403          	lw	s0,12(sp)
800006f0:	01010113          	addi	sp,sp,16
800006f4:	00008067          	ret

800006f8 <External_10_IRQHandler>:
800006f8:	ff010113          	addi	sp,sp,-16
800006fc:	00812623          	sw	s0,12(sp)
80000700:	01010413          	addi	s0,sp,16
80000704:	00000793          	li	a5,0
80000708:	00078513          	mv	a0,a5
8000070c:	00c12403          	lw	s0,12(sp)
80000710:	01010113          	addi	sp,sp,16
80000714:	00008067          	ret

80000718 <External_11_IRQHandler>:
80000718:	ff010113          	addi	sp,sp,-16
8000071c:	00812623          	sw	s0,12(sp)
80000720:	01010413          	addi	s0,sp,16
80000724:	00000793          	li	a5,0
80000728:	00078513          	mv	a0,a5
8000072c:	00c12403          	lw	s0,12(sp)
80000730:	01010113          	addi	sp,sp,16
80000734:	00008067          	ret

80000738 <External_12_IRQHandler>:
80000738:	ff010113          	addi	sp,sp,-16
8000073c:	00812623          	sw	s0,12(sp)
80000740:	01010413          	addi	s0,sp,16
80000744:	00000793          	li	a5,0
80000748:	00078513          	mv	a0,a5
8000074c:	00c12403          	lw	s0,12(sp)
80000750:	01010113          	addi	sp,sp,16
80000754:	00008067          	ret

80000758 <External_13_IRQHandler>:
80000758:	ff010113          	addi	sp,sp,-16
8000075c:	00812623          	sw	s0,12(sp)
80000760:	01010413          	addi	s0,sp,16
80000764:	00000793          	li	a5,0
80000768:	00078513          	mv	a0,a5
8000076c:	00c12403          	lw	s0,12(sp)
80000770:	01010113          	addi	sp,sp,16
80000774:	00008067          	ret

80000778 <External_14_IRQHandler>:
80000778:	ff010113          	addi	sp,sp,-16
8000077c:	00812623          	sw	s0,12(sp)
80000780:	01010413          	addi	s0,sp,16
80000784:	00000793          	li	a5,0
80000788:	00078513          	mv	a0,a5
8000078c:	00c12403          	lw	s0,12(sp)
80000790:	01010113          	addi	sp,sp,16
80000794:	00008067          	ret

80000798 <External_15_IRQHandler>:
80000798:	ff010113          	addi	sp,sp,-16
8000079c:	00812623          	sw	s0,12(sp)
800007a0:	01010413          	addi	s0,sp,16
800007a4:	00000793          	li	a5,0
800007a8:	00078513          	mv	a0,a5
800007ac:	00c12403          	lw	s0,12(sp)
800007b0:	01010113          	addi	sp,sp,16
800007b4:	00008067          	ret

800007b8 <External_16_IRQHandler>:
800007b8:	ff010113          	addi	sp,sp,-16
800007bc:	00812623          	sw	s0,12(sp)
800007c0:	01010413          	addi	s0,sp,16
800007c4:	00000793          	li	a5,0
800007c8:	00078513          	mv	a0,a5
800007cc:	00c12403          	lw	s0,12(sp)
800007d0:	01010113          	addi	sp,sp,16
800007d4:	00008067          	ret

800007d8 <External_17_IRQHandler>:
800007d8:	ff010113          	addi	sp,sp,-16
800007dc:	00812623          	sw	s0,12(sp)
800007e0:	01010413          	addi	s0,sp,16
800007e4:	00000793          	li	a5,0
800007e8:	00078513          	mv	a0,a5
800007ec:	00c12403          	lw	s0,12(sp)
800007f0:	01010113          	addi	sp,sp,16
800007f4:	00008067          	ret

800007f8 <External_18_IRQHandler>:
800007f8:	ff010113          	addi	sp,sp,-16
800007fc:	00812623          	sw	s0,12(sp)
80000800:	01010413          	addi	s0,sp,16
80000804:	00000793          	li	a5,0
80000808:	00078513          	mv	a0,a5
8000080c:	00c12403          	lw	s0,12(sp)
80000810:	01010113          	addi	sp,sp,16
80000814:	00008067          	ret

80000818 <External_19_IRQHandler>:
80000818:	ff010113          	addi	sp,sp,-16
8000081c:	00812623          	sw	s0,12(sp)
80000820:	01010413          	addi	s0,sp,16
80000824:	00000793          	li	a5,0
80000828:	00078513          	mv	a0,a5
8000082c:	00c12403          	lw	s0,12(sp)
80000830:	01010113          	addi	sp,sp,16
80000834:	00008067          	ret

80000838 <External_20_IRQHandler>:
80000838:	ff010113          	addi	sp,sp,-16
8000083c:	00812623          	sw	s0,12(sp)
80000840:	01010413          	addi	s0,sp,16
80000844:	00000793          	li	a5,0
80000848:	00078513          	mv	a0,a5
8000084c:	00c12403          	lw	s0,12(sp)
80000850:	01010113          	addi	sp,sp,16
80000854:	00008067          	ret

80000858 <External_21_IRQHandler>:
80000858:	ff010113          	addi	sp,sp,-16
8000085c:	00812623          	sw	s0,12(sp)
80000860:	01010413          	addi	s0,sp,16
80000864:	00000793          	li	a5,0
80000868:	00078513          	mv	a0,a5
8000086c:	00c12403          	lw	s0,12(sp)
80000870:	01010113          	addi	sp,sp,16
80000874:	00008067          	ret

80000878 <External_22_IRQHandler>:
80000878:	ff010113          	addi	sp,sp,-16
8000087c:	00812623          	sw	s0,12(sp)
80000880:	01010413          	addi	s0,sp,16
80000884:	00000793          	li	a5,0
80000888:	00078513          	mv	a0,a5
8000088c:	00c12403          	lw	s0,12(sp)
80000890:	01010113          	addi	sp,sp,16
80000894:	00008067          	ret

80000898 <External_23_IRQHandler>:
80000898:	ff010113          	addi	sp,sp,-16
8000089c:	00812623          	sw	s0,12(sp)
800008a0:	01010413          	addi	s0,sp,16
800008a4:	00000793          	li	a5,0
800008a8:	00078513          	mv	a0,a5
800008ac:	00c12403          	lw	s0,12(sp)
800008b0:	01010113          	addi	sp,sp,16
800008b4:	00008067          	ret

800008b8 <External_24_IRQHandler>:
800008b8:	ff010113          	addi	sp,sp,-16
800008bc:	00812623          	sw	s0,12(sp)
800008c0:	01010413          	addi	s0,sp,16
800008c4:	00000793          	li	a5,0
800008c8:	00078513          	mv	a0,a5
800008cc:	00c12403          	lw	s0,12(sp)
800008d0:	01010113          	addi	sp,sp,16
800008d4:	00008067          	ret

800008d8 <External_25_IRQHandler>:
800008d8:	ff010113          	addi	sp,sp,-16
800008dc:	00812623          	sw	s0,12(sp)
800008e0:	01010413          	addi	s0,sp,16
800008e4:	00000793          	li	a5,0
800008e8:	00078513          	mv	a0,a5
800008ec:	00c12403          	lw	s0,12(sp)
800008f0:	01010113          	addi	sp,sp,16
800008f4:	00008067          	ret

800008f8 <External_26_IRQHandler>:
800008f8:	ff010113          	addi	sp,sp,-16
800008fc:	00812623          	sw	s0,12(sp)
80000900:	01010413          	addi	s0,sp,16
80000904:	00000793          	li	a5,0
80000908:	00078513          	mv	a0,a5
8000090c:	00c12403          	lw	s0,12(sp)
80000910:	01010113          	addi	sp,sp,16
80000914:	00008067          	ret

80000918 <External_27_IRQHandler>:
80000918:	ff010113          	addi	sp,sp,-16
8000091c:	00812623          	sw	s0,12(sp)
80000920:	01010413          	addi	s0,sp,16
80000924:	00000793          	li	a5,0
80000928:	00078513          	mv	a0,a5
8000092c:	00c12403          	lw	s0,12(sp)
80000930:	01010113          	addi	sp,sp,16
80000934:	00008067          	ret

80000938 <External_28_IRQHandler>:
80000938:	ff010113          	addi	sp,sp,-16
8000093c:	00812623          	sw	s0,12(sp)
80000940:	01010413          	addi	s0,sp,16
80000944:	00000793          	li	a5,0
80000948:	00078513          	mv	a0,a5
8000094c:	00c12403          	lw	s0,12(sp)
80000950:	01010113          	addi	sp,sp,16
80000954:	00008067          	ret

80000958 <External_29_IRQHandler>:
80000958:	ff010113          	addi	sp,sp,-16
8000095c:	00812623          	sw	s0,12(sp)
80000960:	01010413          	addi	s0,sp,16
80000964:	00000793          	li	a5,0
80000968:	00078513          	mv	a0,a5
8000096c:	00c12403          	lw	s0,12(sp)
80000970:	01010113          	addi	sp,sp,16
80000974:	00008067          	ret

80000978 <External_30_IRQHandler>:
80000978:	ff010113          	addi	sp,sp,-16
8000097c:	00812623          	sw	s0,12(sp)
80000980:	01010413          	addi	s0,sp,16
80000984:	00000793          	li	a5,0
80000988:	00078513          	mv	a0,a5
8000098c:	00c12403          	lw	s0,12(sp)
80000990:	01010113          	addi	sp,sp,16
80000994:	00008067          	ret

80000998 <External_31_IRQHandler>:
80000998:	ff010113          	addi	sp,sp,-16
8000099c:	00812623          	sw	s0,12(sp)
800009a0:	01010413          	addi	s0,sp,16
800009a4:	00000793          	li	a5,0
800009a8:	00078513          	mv	a0,a5
800009ac:	00c12403          	lw	s0,12(sp)
800009b0:	01010113          	addi	sp,sp,16
800009b4:	00008067          	ret

800009b8 <write_hex>:
800009b8:	fd010113          	addi	sp,sp,-48
800009bc:	02112623          	sw	ra,44(sp)
800009c0:	02812423          	sw	s0,40(sp)
800009c4:	03010413          	addi	s0,sp,48
800009c8:	fca42e23          	sw	a0,-36(s0)
800009cc:	fcb42c23          	sw	a1,-40(s0)
800009d0:	00200613          	li	a2,2
800009d4:	800047b7          	lui	a5,0x80004
800009d8:	7d078593          	addi	a1,a5,2000 # 800047d0 <__stack_top+0xfffc6c00>
800009dc:	fdc42503          	lw	a0,-36(s0)
800009e0:	3f0020ef          	jal	ra,80002dd0 <write>
800009e4:	00800793          	li	a5,8
800009e8:	fef407a3          	sb	a5,-17(s0)
800009ec:	0980006f          	j	80000a84 <write_hex+0xcc>
800009f0:	fef44783          	lbu	a5,-17(s0)
800009f4:	fff78793          	addi	a5,a5,-1
800009f8:	fef40723          	sb	a5,-18(s0)
800009fc:	fee44783          	lbu	a5,-18(s0)
80000a00:	00279793          	slli	a5,a5,0x2
80000a04:	00f00713          	li	a4,15
80000a08:	00f717b3          	sll	a5,a4,a5
80000a0c:	00078713          	mv	a4,a5
80000a10:	fd842783          	lw	a5,-40(s0)
80000a14:	00f77733          	and	a4,a4,a5
80000a18:	fee44783          	lbu	a5,-18(s0)
80000a1c:	00279793          	slli	a5,a5,0x2
80000a20:	00f757b3          	srl	a5,a4,a5
80000a24:	fef406a3          	sb	a5,-19(s0)
80000a28:	fed44703          	lbu	a4,-19(s0)
80000a2c:	00900793          	li	a5,9
80000a30:	00e7ee63          	bltu	a5,a4,80000a4c <write_hex+0x94>
80000a34:	fed44783          	lbu	a5,-19(s0)
80000a38:	03078793          	addi	a5,a5,48
80000a3c:	0ff7f793          	andi	a5,a5,255
80000a40:	01879793          	slli	a5,a5,0x18
80000a44:	4187d793          	srai	a5,a5,0x18
80000a48:	0180006f          	j	80000a60 <write_hex+0xa8>
80000a4c:	fed44783          	lbu	a5,-19(s0)
80000a50:	03778793          	addi	a5,a5,55
80000a54:	0ff7f793          	andi	a5,a5,255
80000a58:	01879793          	slli	a5,a5,0x18
80000a5c:	4187d793          	srai	a5,a5,0x18
80000a60:	fef40623          	sb	a5,-20(s0)
80000a64:	fec40793          	addi	a5,s0,-20
80000a68:	00100613          	li	a2,1
80000a6c:	00078593          	mv	a1,a5
80000a70:	fdc42503          	lw	a0,-36(s0)
80000a74:	35c020ef          	jal	ra,80002dd0 <write>
80000a78:	fef44783          	lbu	a5,-17(s0)
80000a7c:	fff78793          	addi	a5,a5,-1
80000a80:	fef407a3          	sb	a5,-17(s0)
80000a84:	fef44783          	lbu	a5,-17(s0)
80000a88:	f60794e3          	bnez	a5,800009f0 <write_hex+0x38>
80000a8c:	00000013          	nop
80000a90:	02c12083          	lw	ra,44(sp)
80000a94:	02812403          	lw	s0,40(sp)
80000a98:	03010113          	addi	sp,sp,48
80000a9c:	00008067          	ret

80000aa0 <_exit>:
80000aa0:	fd010113          	addi	sp,sp,-48
80000aa4:	02112623          	sw	ra,44(sp)
80000aa8:	02812423          	sw	s0,40(sp)
80000aac:	03010413          	addi	s0,sp,48
80000ab0:	fca42e23          	sw	a0,-36(s0)
80000ab4:	800047b7          	lui	a5,0x80004
80000ab8:	7d478793          	addi	a5,a5,2004 # 800047d4 <__stack_top+0xfffc6c04>
80000abc:	fef42623          	sw	a5,-20(s0)
80000ac0:	fec42503          	lw	a0,-20(s0)
80000ac4:	3c0010ef          	jal	ra,80001e84 <strlen>
80000ac8:	00050793          	mv	a5,a0
80000acc:	00078613          	mv	a2,a5
80000ad0:	fec42583          	lw	a1,-20(s0)
80000ad4:	00200513          	li	a0,2
80000ad8:	2f8020ef          	jal	ra,80002dd0 <write>
80000adc:	fdc42783          	lw	a5,-36(s0)
80000ae0:	00078593          	mv	a1,a5
80000ae4:	00200513          	li	a0,2
80000ae8:	ed1ff0ef          	jal	ra,800009b8 <write_hex>
80000aec:	0000006f          	j	80000aec <_exit+0x4c>

80000af0 <_sbrk>:
80000af0:	fe010113          	addi	sp,sp,-32
80000af4:	00812e23          	sw	s0,28(sp)
80000af8:	02010413          	addi	s0,sp,32
80000afc:	fea42623          	sw	a0,-20(s0)
80000b00:	800057b7          	lui	a5,0x80005
80000b04:	9807a703          	lw	a4,-1664(a5) # 80004980 <__stack_top+0xfffc6db0>
80000b08:	fec42783          	lw	a5,-20(s0)
80000b0c:	00f70733          	add	a4,a4,a5
80000b10:	8001e7b7          	lui	a5,0x8001e
80000b14:	bd078793          	addi	a5,a5,-1072 # 8001dbd0 <__stack_top+0xfffe0000>
80000b18:	02f76063          	bltu	a4,a5,80000b38 <_sbrk+0x48>
80000b1c:	800057b7          	lui	a5,0x80005
80000b20:	9807a703          	lw	a4,-1664(a5) # 80004980 <__stack_top+0xfffc6db0>
80000b24:	fec42783          	lw	a5,-20(s0)
80000b28:	00f70733          	add	a4,a4,a5
80000b2c:	8002e7b7          	lui	a5,0x8002e
80000b30:	bd078793          	addi	a5,a5,-1072 # 8002dbd0 <__stack_top+0xffff0000>
80000b34:	00e7f663          	bleu	a4,a5,80000b40 <_sbrk+0x50>
80000b38:	fff00793          	li	a5,-1
80000b3c:	0300006f          	j	80000b6c <_sbrk+0x7c>
80000b40:	800057b7          	lui	a5,0x80005
80000b44:	9807a703          	lw	a4,-1664(a5) # 80004980 <__stack_top+0xfffc6db0>
80000b48:	fec42783          	lw	a5,-20(s0)
80000b4c:	00f70733          	add	a4,a4,a5
80000b50:	800057b7          	lui	a5,0x80005
80000b54:	98e7a023          	sw	a4,-1664(a5) # 80004980 <__stack_top+0xfffc6db0>
80000b58:	800057b7          	lui	a5,0x80005
80000b5c:	9807a703          	lw	a4,-1664(a5) # 80004980 <__stack_top+0xfffc6db0>
80000b60:	fec42783          	lw	a5,-20(s0)
80000b64:	40f007b3          	neg	a5,a5
80000b68:	00f707b3          	add	a5,a4,a5
80000b6c:	00078513          	mv	a0,a5
80000b70:	01c12403          	lw	s0,28(sp)
80000b74:	02010113          	addi	sp,sp,32
80000b78:	00008067          	ret

80000b7c <_isatty>:
80000b7c:	fe010113          	addi	sp,sp,-32
80000b80:	00812e23          	sw	s0,28(sp)
80000b84:	02010413          	addi	s0,sp,32
80000b88:	fea42623          	sw	a0,-20(s0)
80000b8c:	fec42703          	lw	a4,-20(s0)
80000b90:	00100793          	li	a5,1
80000b94:	00f70863          	beq	a4,a5,80000ba4 <_isatty+0x28>
80000b98:	fec42703          	lw	a4,-20(s0)
80000b9c:	00200793          	li	a5,2
80000ba0:	00f71663          	bne	a4,a5,80000bac <_isatty+0x30>
80000ba4:	00100793          	li	a5,1
80000ba8:	0140006f          	j	80000bbc <_isatty+0x40>
80000bac:	8001e7b7          	lui	a5,0x8001e
80000bb0:	00900713          	li	a4,9
80000bb4:	bae7ac23          	sw	a4,-1096(a5) # 8001dbb8 <__stack_top+0xfffdffe8>
80000bb8:	00000793          	li	a5,0
80000bbc:	00078513          	mv	a0,a5
80000bc0:	01c12403          	lw	s0,28(sp)
80000bc4:	02010113          	addi	sp,sp,32
80000bc8:	00008067          	ret

80000bcc <stub>:
80000bcc:	fe010113          	addi	sp,sp,-32
80000bd0:	00812e23          	sw	s0,28(sp)
80000bd4:	02010413          	addi	s0,sp,32
80000bd8:	fea42623          	sw	a0,-20(s0)
80000bdc:	8001e7b7          	lui	a5,0x8001e
80000be0:	fec42703          	lw	a4,-20(s0)
80000be4:	bae7ac23          	sw	a4,-1096(a5) # 8001dbb8 <__stack_top+0xfffdffe8>
80000be8:	fff00793          	li	a5,-1
80000bec:	00078513          	mv	a0,a5
80000bf0:	01c12403          	lw	s0,28(sp)
80000bf4:	02010113          	addi	sp,sp,32
80000bf8:	00008067          	ret

80000bfc <_close>:
80000bfc:	fe010113          	addi	sp,sp,-32
80000c00:	00112e23          	sw	ra,28(sp)
80000c04:	00812c23          	sw	s0,24(sp)
80000c08:	02010413          	addi	s0,sp,32
80000c0c:	fea42623          	sw	a0,-20(s0)
80000c10:	00900513          	li	a0,9
80000c14:	fb9ff0ef          	jal	ra,80000bcc <stub>
80000c18:	00050793          	mv	a5,a0
80000c1c:	00078513          	mv	a0,a5
80000c20:	01c12083          	lw	ra,28(sp)
80000c24:	01812403          	lw	s0,24(sp)
80000c28:	02010113          	addi	sp,sp,32
80000c2c:	00008067          	ret

80000c30 <_fstat>:
80000c30:	fe010113          	addi	sp,sp,-32
80000c34:	00112e23          	sw	ra,28(sp)
80000c38:	00812c23          	sw	s0,24(sp)
80000c3c:	02010413          	addi	s0,sp,32
80000c40:	fea42623          	sw	a0,-20(s0)
80000c44:	feb42423          	sw	a1,-24(s0)
80000c48:	fec42503          	lw	a0,-20(s0)
80000c4c:	180020ef          	jal	ra,80002dcc <isatty>
80000c50:	00050793          	mv	a5,a0
80000c54:	00078c63          	beqz	a5,80000c6c <_fstat+0x3c>
80000c58:	fe842783          	lw	a5,-24(s0)
80000c5c:	00002737          	lui	a4,0x2
80000c60:	00e7a223          	sw	a4,4(a5)
80000c64:	00000793          	li	a5,0
80000c68:	0100006f          	j	80000c78 <_fstat+0x48>
80000c6c:	00900513          	li	a0,9
80000c70:	f5dff0ef          	jal	ra,80000bcc <stub>
80000c74:	00050793          	mv	a5,a0
80000c78:	00078513          	mv	a0,a5
80000c7c:	01c12083          	lw	ra,28(sp)
80000c80:	01812403          	lw	s0,24(sp)
80000c84:	02010113          	addi	sp,sp,32
80000c88:	00008067          	ret

80000c8c <_lseek>:
80000c8c:	fe010113          	addi	sp,sp,-32
80000c90:	00112e23          	sw	ra,28(sp)
80000c94:	00812c23          	sw	s0,24(sp)
80000c98:	02010413          	addi	s0,sp,32
80000c9c:	fea42623          	sw	a0,-20(s0)
80000ca0:	feb42423          	sw	a1,-24(s0)
80000ca4:	fec42223          	sw	a2,-28(s0)
80000ca8:	fec42503          	lw	a0,-20(s0)
80000cac:	ed1ff0ef          	jal	ra,80000b7c <_isatty>
80000cb0:	00050793          	mv	a5,a0
80000cb4:	00078663          	beqz	a5,80000cc0 <_lseek+0x34>
80000cb8:	00000793          	li	a5,0
80000cbc:	0100006f          	j	80000ccc <_lseek+0x40>
80000cc0:	00900513          	li	a0,9
80000cc4:	f09ff0ef          	jal	ra,80000bcc <stub>
80000cc8:	00050793          	mv	a5,a0
80000ccc:	00078513          	mv	a0,a5
80000cd0:	01c12083          	lw	ra,28(sp)
80000cd4:	01812403          	lw	s0,24(sp)
80000cd8:	02010113          	addi	sp,sp,32
80000cdc:	00008067          	ret

80000ce0 <_read>:
80000ce0:	fe010113          	addi	sp,sp,-32
80000ce4:	00112e23          	sw	ra,28(sp)
80000ce8:	00812c23          	sw	s0,24(sp)
80000cec:	02010413          	addi	s0,sp,32
80000cf0:	fea42623          	sw	a0,-20(s0)
80000cf4:	feb42423          	sw	a1,-24(s0)
80000cf8:	fec42223          	sw	a2,-28(s0)
80000cfc:	fec42503          	lw	a0,-20(s0)
80000d00:	e7dff0ef          	jal	ra,80000b7c <_isatty>
80000d04:	00050793          	mv	a5,a0
80000d08:	04078063          	beqz	a5,80000d48 <_read+0x68>
80000d0c:	9101a783          	lw	a5,-1776(gp) # 80004a90 <g_stdio_uart_init_done>
80000d10:	02079063          	bnez	a5,80000d30 <_read+0x50>
80000d14:	00100693          	li	a3,1
80000d18:	02c00613          	li	a2,44
80000d1c:	700015b7          	lui	a1,0x70001
80000d20:	90818513          	addi	a0,gp,-1784 # 80004a88 <g_stdio_uart>
80000d24:	204000ef          	jal	ra,80000f28 <UART_init>
80000d28:	00100713          	li	a4,1
80000d2c:	90e1a823          	sw	a4,-1776(gp) # 80004a90 <g_stdio_uart_init_done>
80000d30:	fe442603          	lw	a2,-28(s0)
80000d34:	fe842583          	lw	a1,-24(s0)
80000d38:	90818513          	addi	a0,gp,-1784 # 80004a88 <g_stdio_uart>
80000d3c:	3b8000ef          	jal	ra,800010f4 <UART_get_rx>
80000d40:	00050793          	mv	a5,a0
80000d44:	0100006f          	j	80000d54 <_read+0x74>
80000d48:	00900513          	li	a0,9
80000d4c:	e81ff0ef          	jal	ra,80000bcc <stub>
80000d50:	00050793          	mv	a5,a0
80000d54:	00078513          	mv	a0,a5
80000d58:	01c12083          	lw	ra,28(sp)
80000d5c:	01812403          	lw	s0,24(sp)
80000d60:	02010113          	addi	sp,sp,32
80000d64:	00008067          	ret

80000d68 <_write>:
80000d68:	fd010113          	addi	sp,sp,-48
80000d6c:	02112623          	sw	ra,44(sp)
80000d70:	02812423          	sw	s0,40(sp)
80000d74:	03010413          	addi	s0,sp,48
80000d78:	fca42e23          	sw	a0,-36(s0)
80000d7c:	fcb42c23          	sw	a1,-40(s0)
80000d80:	fcc42a23          	sw	a2,-44(s0)
80000d84:	fd842783          	lw	a5,-40(s0)
80000d88:	fef42423          	sw	a5,-24(s0)
80000d8c:	fdc42503          	lw	a0,-36(s0)
80000d90:	dedff0ef          	jal	ra,80000b7c <_isatty>
80000d94:	00050793          	mv	a5,a0
80000d98:	08078c63          	beqz	a5,80000e30 <_write+0xc8>
80000d9c:	9101a783          	lw	a5,-1776(gp) # 80004a90 <g_stdio_uart_init_done>
80000da0:	02079063          	bnez	a5,80000dc0 <_write+0x58>
80000da4:	00100693          	li	a3,1
80000da8:	02c00613          	li	a2,44
80000dac:	700015b7          	lui	a1,0x70001
80000db0:	90818513          	addi	a0,gp,-1784 # 80004a88 <g_stdio_uart>
80000db4:	174000ef          	jal	ra,80000f28 <UART_init>
80000db8:	00100713          	li	a4,1
80000dbc:	90e1a823          	sw	a4,-1776(gp) # 80004a90 <g_stdio_uart_init_done>
80000dc0:	fe042623          	sw	zero,-20(s0)
80000dc4:	0580006f          	j	80000e1c <_write+0xb4>
80000dc8:	fe842703          	lw	a4,-24(s0)
80000dcc:	fec42783          	lw	a5,-20(s0)
80000dd0:	00f707b3          	add	a5,a4,a5
80000dd4:	00100613          	li	a2,1
80000dd8:	00078593          	mv	a1,a5
80000ddc:	90818513          	addi	a0,gp,-1784 # 80004a88 <g_stdio_uart>
80000de0:	260000ef          	jal	ra,80001040 <UART_send>
80000de4:	fe842703          	lw	a4,-24(s0)
80000de8:	fec42783          	lw	a5,-20(s0)
80000dec:	00f707b3          	add	a5,a4,a5
80000df0:	0007c703          	lbu	a4,0(a5)
80000df4:	00a00793          	li	a5,10
80000df8:	00f71c63          	bne	a4,a5,80000e10 <_write+0xa8>
80000dfc:	00100613          	li	a2,1
80000e00:	800047b7          	lui	a5,0x80004
80000e04:	7f478593          	addi	a1,a5,2036 # 800047f4 <__stack_top+0xfffc6c24>
80000e08:	90818513          	addi	a0,gp,-1784 # 80004a88 <g_stdio_uart>
80000e0c:	234000ef          	jal	ra,80001040 <UART_send>
80000e10:	fec42783          	lw	a5,-20(s0)
80000e14:	00178793          	addi	a5,a5,1
80000e18:	fef42623          	sw	a5,-20(s0)
80000e1c:	fec42703          	lw	a4,-20(s0)
80000e20:	fd442783          	lw	a5,-44(s0)
80000e24:	faf762e3          	bltu	a4,a5,80000dc8 <_write+0x60>
80000e28:	fd442783          	lw	a5,-44(s0)
80000e2c:	0100006f          	j	80000e3c <_write+0xd4>
80000e30:	00900513          	li	a0,9
80000e34:	d99ff0ef          	jal	ra,80000bcc <stub>
80000e38:	00050793          	mv	a5,a0
80000e3c:	00078513          	mv	a0,a5
80000e40:	02c12083          	lw	ra,44(sp)
80000e44:	02812403          	lw	s0,40(sp)
80000e48:	03010113          	addi	sp,sp,48
80000e4c:	00008067          	ret

80000e50 <HW_set_32bit_reg>:
80000e50:	00b52023          	sw	a1,0(a0) # 44000000 <RAM_SIZE+0x43f80000>
80000e54:	00008067          	ret

80000e58 <HW_get_32bit_reg>:
80000e58:	00052503          	lw	a0,0(a0)
80000e5c:	00008067          	ret

80000e60 <HW_set_32bit_reg_field>:
80000e60:	00068e13          	mv	t3,a3
80000e64:	00be1e33          	sll	t3,t3,a1
80000e68:	00ce7e33          	and	t3,t3,a2
80000e6c:	00052303          	lw	t1,0(a0)
80000e70:	00060393          	mv	t2,a2
80000e74:	fff3c393          	not	t2,t2
80000e78:	00737333          	and	t1,t1,t2
80000e7c:	01c36333          	or	t1,t1,t3
80000e80:	00652023          	sw	t1,0(a0)
80000e84:	00008067          	ret

80000e88 <HW_get_32bit_reg_field>:
80000e88:	00052503          	lw	a0,0(a0)
80000e8c:	00c57533          	and	a0,a0,a2
80000e90:	00b55533          	srl	a0,a0,a1
80000e94:	00008067          	ret

80000e98 <HW_set_16bit_reg>:
80000e98:	00b51023          	sh	a1,0(a0)
80000e9c:	00008067          	ret

80000ea0 <HW_get_16bit_reg>:
80000ea0:	00051503          	lh	a0,0(a0)
80000ea4:	00008067          	ret

80000ea8 <HW_set_16bit_reg_field>:
80000ea8:	00068e13          	mv	t3,a3
80000eac:	00be1e33          	sll	t3,t3,a1
80000eb0:	00ce7e33          	and	t3,t3,a2
80000eb4:	00051303          	lh	t1,0(a0)
80000eb8:	00060393          	mv	t2,a2
80000ebc:	fff3c393          	not	t2,t2
80000ec0:	00737333          	and	t1,t1,t2
80000ec4:	01c36333          	or	t1,t1,t3
80000ec8:	00651023          	sh	t1,0(a0)
80000ecc:	00008067          	ret

80000ed0 <HW_get_16bit_reg_field>:
80000ed0:	00051503          	lh	a0,0(a0)
80000ed4:	00c57533          	and	a0,a0,a2
80000ed8:	00b55533          	srl	a0,a0,a1
80000edc:	00008067          	ret

80000ee0 <HW_set_8bit_reg>:
80000ee0:	00b50023          	sb	a1,0(a0)
80000ee4:	00008067          	ret

80000ee8 <HW_get_8bit_reg>:
80000ee8:	00050503          	lb	a0,0(a0)
80000eec:	00008067          	ret

80000ef0 <HW_set_8bit_reg_field>:
80000ef0:	00068e13          	mv	t3,a3
80000ef4:	00be1e33          	sll	t3,t3,a1
80000ef8:	00ce7e33          	and	t3,t3,a2
80000efc:	00050303          	lb	t1,0(a0)
80000f00:	00060393          	mv	t2,a2
80000f04:	fff3c393          	not	t2,t2
80000f08:	00737333          	and	t1,t1,t2
80000f0c:	01c36333          	or	t1,t1,t3
80000f10:	00650023          	sb	t1,0(a0)
80000f14:	00008067          	ret

80000f18 <HW_get_8bit_reg_field>:
80000f18:	00050503          	lb	a0,0(a0)
80000f1c:	00c57533          	and	a0,a0,a2
80000f20:	00b55533          	srl	a0,a0,a1
80000f24:	00008067          	ret

80000f28 <UART_init>:
80000f28:	fd010113          	addi	sp,sp,-48
80000f2c:	02112623          	sw	ra,44(sp)
80000f30:	02812423          	sw	s0,40(sp)
80000f34:	03010413          	addi	s0,sp,48
80000f38:	fca42e23          	sw	a0,-36(s0)
80000f3c:	fcb42c23          	sw	a1,-40(s0)
80000f40:	00060793          	mv	a5,a2
80000f44:	00068713          	mv	a4,a3
80000f48:	fcf41b23          	sh	a5,-42(s0)
80000f4c:	00070793          	mv	a5,a4
80000f50:	fcf40aa3          	sb	a5,-43(s0)
80000f54:	fdc42783          	lw	a5,-36(s0)
80000f58:	0c078a63          	beqz	a5,8000102c <UART_init+0x104>
80000f5c:	fd544703          	lbu	a4,-43(s0)
80000f60:	00700793          	li	a5,7
80000f64:	0ce7e463          	bltu	a5,a4,8000102c <UART_init+0x104>
80000f68:	fd645703          	lhu	a4,-42(s0)
80000f6c:	000027b7          	lui	a5,0x2
80000f70:	0af77e63          	bleu	a5,a4,8000102c <UART_init+0x104>
80000f74:	fd842783          	lw	a5,-40(s0)
80000f78:	00878713          	addi	a4,a5,8 # 2008 <HEAP_SIZE-0xdff8>
80000f7c:	fd645783          	lhu	a5,-42(s0)
80000f80:	0ff7f793          	andi	a5,a5,255
80000f84:	00078593          	mv	a1,a5
80000f88:	00070513          	mv	a0,a4
80000f8c:	f55ff0ef          	jal	ra,80000ee0 <HW_set_8bit_reg>
80000f90:	fd842783          	lw	a5,-40(s0)
80000f94:	00c78693          	addi	a3,a5,12
80000f98:	fd544703          	lbu	a4,-43(s0)
80000f9c:	fd645783          	lhu	a5,-42(s0)
80000fa0:	4057d793          	srai	a5,a5,0x5
80000fa4:	7f87f793          	andi	a5,a5,2040
80000fa8:	00f767b3          	or	a5,a4,a5
80000fac:	00078593          	mv	a1,a5
80000fb0:	00068513          	mv	a0,a3
80000fb4:	f2dff0ef          	jal	ra,80000ee0 <HW_set_8bit_reg>
80000fb8:	fdc42783          	lw	a5,-36(s0)
80000fbc:	fd842703          	lw	a4,-40(s0)
80000fc0:	00e7a023          	sw	a4,0(a5)
80000fc4:	fdc42783          	lw	a5,-36(s0)
80000fc8:	0007a783          	lw	a5,0(a5)
80000fcc:	01078793          	addi	a5,a5,16
80000fd0:	00078513          	mv	a0,a5
80000fd4:	f15ff0ef          	jal	ra,80000ee8 <HW_get_8bit_reg>
80000fd8:	00050793          	mv	a5,a0
80000fdc:	0027f793          	andi	a5,a5,2
80000fe0:	fef407a3          	sb	a5,-17(s0)
80000fe4:	0380006f          	j	8000101c <UART_init+0xf4>
80000fe8:	fdc42783          	lw	a5,-36(s0)
80000fec:	0007a783          	lw	a5,0(a5)
80000ff0:	00478793          	addi	a5,a5,4
80000ff4:	00078513          	mv	a0,a5
80000ff8:	ef1ff0ef          	jal	ra,80000ee8 <HW_get_8bit_reg>
80000ffc:	fdc42783          	lw	a5,-36(s0)
80001000:	0007a783          	lw	a5,0(a5)
80001004:	01078793          	addi	a5,a5,16
80001008:	00078513          	mv	a0,a5
8000100c:	eddff0ef          	jal	ra,80000ee8 <HW_get_8bit_reg>
80001010:	00050793          	mv	a5,a0
80001014:	0027f793          	andi	a5,a5,2
80001018:	fef407a3          	sb	a5,-17(s0)
8000101c:	fef44783          	lbu	a5,-17(s0)
80001020:	fc0794e3          	bnez	a5,80000fe8 <UART_init+0xc0>
80001024:	fdc42783          	lw	a5,-36(s0)
80001028:	00078223          	sb	zero,4(a5)
8000102c:	00000013          	nop
80001030:	02c12083          	lw	ra,44(sp)
80001034:	02812403          	lw	s0,40(sp)
80001038:	03010113          	addi	sp,sp,48
8000103c:	00008067          	ret

80001040 <UART_send>:
80001040:	fd010113          	addi	sp,sp,-48
80001044:	02112623          	sw	ra,44(sp)
80001048:	02812423          	sw	s0,40(sp)
8000104c:	03010413          	addi	s0,sp,48
80001050:	fca42e23          	sw	a0,-36(s0)
80001054:	fcb42c23          	sw	a1,-40(s0)
80001058:	fcc42a23          	sw	a2,-44(s0)
8000105c:	fdc42783          	lw	a5,-36(s0)
80001060:	08078063          	beqz	a5,800010e0 <UART_send+0xa0>
80001064:	fd842783          	lw	a5,-40(s0)
80001068:	06078c63          	beqz	a5,800010e0 <UART_send+0xa0>
8000106c:	fd442783          	lw	a5,-44(s0)
80001070:	06078863          	beqz	a5,800010e0 <UART_send+0xa0>
80001074:	fe042623          	sw	zero,-20(s0)
80001078:	05c0006f          	j	800010d4 <UART_send+0x94>
8000107c:	fdc42783          	lw	a5,-36(s0)
80001080:	0007a783          	lw	a5,0(a5)
80001084:	01078793          	addi	a5,a5,16
80001088:	00078513          	mv	a0,a5
8000108c:	e5dff0ef          	jal	ra,80000ee8 <HW_get_8bit_reg>
80001090:	00050793          	mv	a5,a0
80001094:	0017f793          	andi	a5,a5,1
80001098:	fef405a3          	sb	a5,-21(s0)
8000109c:	feb44783          	lbu	a5,-21(s0)
800010a0:	fc078ee3          	beqz	a5,8000107c <UART_send+0x3c>
800010a4:	fdc42783          	lw	a5,-36(s0)
800010a8:	0007a683          	lw	a3,0(a5)
800010ac:	fd842703          	lw	a4,-40(s0)
800010b0:	fec42783          	lw	a5,-20(s0)
800010b4:	00f707b3          	add	a5,a4,a5
800010b8:	0007c783          	lbu	a5,0(a5)
800010bc:	00078593          	mv	a1,a5
800010c0:	00068513          	mv	a0,a3
800010c4:	e1dff0ef          	jal	ra,80000ee0 <HW_set_8bit_reg>
800010c8:	fec42783          	lw	a5,-20(s0)
800010cc:	00178793          	addi	a5,a5,1
800010d0:	fef42623          	sw	a5,-20(s0)
800010d4:	fec42703          	lw	a4,-20(s0)
800010d8:	fd442783          	lw	a5,-44(s0)
800010dc:	faf760e3          	bltu	a4,a5,8000107c <UART_send+0x3c>
800010e0:	00000013          	nop
800010e4:	02c12083          	lw	ra,44(sp)
800010e8:	02812403          	lw	s0,40(sp)
800010ec:	03010113          	addi	sp,sp,48
800010f0:	00008067          	ret

800010f4 <UART_get_rx>:
800010f4:	fd010113          	addi	sp,sp,-48
800010f8:	02112623          	sw	ra,44(sp)
800010fc:	02812423          	sw	s0,40(sp)
80001100:	02912223          	sw	s1,36(sp)
80001104:	03010413          	addi	s0,sp,48
80001108:	fca42e23          	sw	a0,-36(s0)
8000110c:	fcb42c23          	sw	a1,-40(s0)
80001110:	fcc42a23          	sw	a2,-44(s0)
80001114:	fe042423          	sw	zero,-24(s0)
80001118:	fdc42783          	lw	a5,-36(s0)
8000111c:	0e078663          	beqz	a5,80001208 <UART_get_rx+0x114>
80001120:	fd842783          	lw	a5,-40(s0)
80001124:	0e078263          	beqz	a5,80001208 <UART_get_rx+0x114>
80001128:	fd442783          	lw	a5,-44(s0)
8000112c:	0c078e63          	beqz	a5,80001208 <UART_get_rx+0x114>
80001130:	fe042423          	sw	zero,-24(s0)
80001134:	fdc42783          	lw	a5,-36(s0)
80001138:	0007a783          	lw	a5,0(a5)
8000113c:	01078793          	addi	a5,a5,16
80001140:	00078513          	mv	a0,a5
80001144:	da5ff0ef          	jal	ra,80000ee8 <HW_get_8bit_reg>
80001148:	00050793          	mv	a5,a0
8000114c:	fef403a3          	sb	a5,-25(s0)
80001150:	fdc42783          	lw	a5,-36(s0)
80001154:	0047c703          	lbu	a4,4(a5)
80001158:	fe744783          	lbu	a5,-25(s0)
8000115c:	00f767b3          	or	a5,a4,a5
80001160:	0ff7f713          	andi	a4,a5,255
80001164:	fdc42783          	lw	a5,-36(s0)
80001168:	00e78223          	sb	a4,4(a5)
8000116c:	fe744783          	lbu	a5,-25(s0)
80001170:	0027f793          	andi	a5,a5,2
80001174:	fef407a3          	sb	a5,-17(s0)
80001178:	07c0006f          	j	800011f4 <UART_get_rx+0x100>
8000117c:	fdc42783          	lw	a5,-36(s0)
80001180:	0007a783          	lw	a5,0(a5)
80001184:	00478693          	addi	a3,a5,4
80001188:	fd842703          	lw	a4,-40(s0)
8000118c:	fe842783          	lw	a5,-24(s0)
80001190:	00f704b3          	add	s1,a4,a5
80001194:	00068513          	mv	a0,a3
80001198:	d51ff0ef          	jal	ra,80000ee8 <HW_get_8bit_reg>
8000119c:	00050793          	mv	a5,a0
800011a0:	00f48023          	sb	a5,0(s1)
800011a4:	fe842783          	lw	a5,-24(s0)
800011a8:	00178793          	addi	a5,a5,1
800011ac:	fef42423          	sw	a5,-24(s0)
800011b0:	fdc42783          	lw	a5,-36(s0)
800011b4:	0007a783          	lw	a5,0(a5)
800011b8:	01078793          	addi	a5,a5,16
800011bc:	00078513          	mv	a0,a5
800011c0:	d29ff0ef          	jal	ra,80000ee8 <HW_get_8bit_reg>
800011c4:	00050793          	mv	a5,a0
800011c8:	fef403a3          	sb	a5,-25(s0)
800011cc:	fdc42783          	lw	a5,-36(s0)
800011d0:	0047c703          	lbu	a4,4(a5)
800011d4:	fe744783          	lbu	a5,-25(s0)
800011d8:	00f767b3          	or	a5,a4,a5
800011dc:	0ff7f713          	andi	a4,a5,255
800011e0:	fdc42783          	lw	a5,-36(s0)
800011e4:	00e78223          	sb	a4,4(a5)
800011e8:	fe744783          	lbu	a5,-25(s0)
800011ec:	0027f793          	andi	a5,a5,2
800011f0:	fef407a3          	sb	a5,-17(s0)
800011f4:	fef44783          	lbu	a5,-17(s0)
800011f8:	00078863          	beqz	a5,80001208 <UART_get_rx+0x114>
800011fc:	fe842703          	lw	a4,-24(s0)
80001200:	fd442783          	lw	a5,-44(s0)
80001204:	f6f76ce3          	bltu	a4,a5,8000117c <UART_get_rx+0x88>
80001208:	fe842783          	lw	a5,-24(s0)
8000120c:	00078513          	mv	a0,a5
80001210:	02c12083          	lw	ra,44(sp)
80001214:	02812403          	lw	s0,40(sp)
80001218:	02412483          	lw	s1,36(sp)
8000121c:	03010113          	addi	sp,sp,48
80001220:	00008067          	ret

80001224 <UART_polled_tx_string>:
80001224:	fd010113          	addi	sp,sp,-48
80001228:	02112623          	sw	ra,44(sp)
8000122c:	02812423          	sw	s0,40(sp)
80001230:	03010413          	addi	s0,sp,48
80001234:	fca42e23          	sw	a0,-36(s0)
80001238:	fcb42c23          	sw	a1,-40(s0)
8000123c:	fdc42783          	lw	a5,-36(s0)
80001240:	08078063          	beqz	a5,800012c0 <UART_polled_tx_string+0x9c>
80001244:	fd842783          	lw	a5,-40(s0)
80001248:	06078c63          	beqz	a5,800012c0 <UART_polled_tx_string+0x9c>
8000124c:	fe042623          	sw	zero,-20(s0)
80001250:	05c0006f          	j	800012ac <UART_polled_tx_string+0x88>
80001254:	fdc42783          	lw	a5,-36(s0)
80001258:	0007a783          	lw	a5,0(a5)
8000125c:	01078793          	addi	a5,a5,16
80001260:	00078513          	mv	a0,a5
80001264:	c85ff0ef          	jal	ra,80000ee8 <HW_get_8bit_reg>
80001268:	00050793          	mv	a5,a0
8000126c:	0017f793          	andi	a5,a5,1
80001270:	fef405a3          	sb	a5,-21(s0)
80001274:	feb44783          	lbu	a5,-21(s0)
80001278:	fc078ee3          	beqz	a5,80001254 <UART_polled_tx_string+0x30>
8000127c:	fdc42783          	lw	a5,-36(s0)
80001280:	0007a683          	lw	a3,0(a5)
80001284:	fd842703          	lw	a4,-40(s0)
80001288:	fec42783          	lw	a5,-20(s0)
8000128c:	00f707b3          	add	a5,a4,a5
80001290:	0007c783          	lbu	a5,0(a5)
80001294:	00078593          	mv	a1,a5
80001298:	00068513          	mv	a0,a3
8000129c:	c45ff0ef          	jal	ra,80000ee0 <HW_set_8bit_reg>
800012a0:	fec42783          	lw	a5,-20(s0)
800012a4:	00178793          	addi	a5,a5,1
800012a8:	fef42623          	sw	a5,-20(s0)
800012ac:	fd842703          	lw	a4,-40(s0)
800012b0:	fec42783          	lw	a5,-20(s0)
800012b4:	00f707b3          	add	a5,a4,a5
800012b8:	0007c783          	lbu	a5,0(a5)
800012bc:	f8079ce3          	bnez	a5,80001254 <UART_polled_tx_string+0x30>
800012c0:	00000013          	nop
800012c4:	02c12083          	lw	ra,44(sp)
800012c8:	02812403          	lw	s0,40(sp)
800012cc:	03010113          	addi	sp,sp,48
800012d0:	00008067          	ret

800012d4 <pvPortMalloc>:
800012d4:	fc010113          	addi	sp,sp,-64
800012d8:	02112e23          	sw	ra,60(sp)
800012dc:	02812c23          	sw	s0,56(sp)
800012e0:	04010413          	addi	s0,sp,64
800012e4:	fca42623          	sw	a0,-52(s0)
800012e8:	fe042223          	sw	zero,-28(s0)
800012ec:	719000ef          	jal	ra,80002204 <vTaskSuspendAll>
800012f0:	9241a783          	lw	a5,-1756(gp) # 80004aa4 <xHeapHasBeenInitialised.2777>
800012f4:	00079863          	bnez	a5,80001304 <pvPortMalloc+0x30>
800012f8:	284000ef          	jal	ra,8000157c <prvHeapInit>
800012fc:	00100713          	li	a4,1
80001300:	92e1a223          	sw	a4,-1756(gp) # 80004aa4 <xHeapHasBeenInitialised.2777>
80001304:	fcc42783          	lw	a5,-52(s0)
80001308:	02078a63          	beqz	a5,8000133c <pvPortMalloc+0x68>
8000130c:	00800793          	li	a5,8
80001310:	00078713          	mv	a4,a5
80001314:	fcc42783          	lw	a5,-52(s0)
80001318:	00e787b3          	add	a5,a5,a4
8000131c:	fcf42623          	sw	a5,-52(s0)
80001320:	fcc42783          	lw	a5,-52(s0)
80001324:	0037f793          	andi	a5,a5,3
80001328:	00078a63          	beqz	a5,8000133c <pvPortMalloc+0x68>
8000132c:	fcc42783          	lw	a5,-52(s0)
80001330:	ffc7f793          	andi	a5,a5,-4
80001334:	00478793          	addi	a5,a5,4
80001338:	fcf42623          	sw	a5,-52(s0)
8000133c:	fcc42783          	lw	a5,-52(s0)
80001340:	14078463          	beqz	a5,80001488 <pvPortMalloc+0x1b4>
80001344:	fcc42703          	lw	a4,-52(s0)
80001348:	000197b7          	lui	a5,0x19
8000134c:	ffb78793          	addi	a5,a5,-5 # 18ffb <HEAP_SIZE+0x8ffb>
80001350:	12e7ec63          	bltu	a5,a4,80001488 <pvPortMalloc+0x1b4>
80001354:	91418793          	addi	a5,gp,-1772 # 80004a94 <xStart>
80001358:	fef42423          	sw	a5,-24(s0)
8000135c:	9141a783          	lw	a5,-1772(gp) # 80004a94 <xStart>
80001360:	fef42623          	sw	a5,-20(s0)
80001364:	0180006f          	j	8000137c <pvPortMalloc+0xa8>
80001368:	fec42783          	lw	a5,-20(s0)
8000136c:	fef42423          	sw	a5,-24(s0)
80001370:	fec42783          	lw	a5,-20(s0)
80001374:	0007a783          	lw	a5,0(a5)
80001378:	fef42623          	sw	a5,-20(s0)
8000137c:	fec42783          	lw	a5,-20(s0)
80001380:	0047a783          	lw	a5,4(a5)
80001384:	fcc42703          	lw	a4,-52(s0)
80001388:	00e7f863          	bleu	a4,a5,80001398 <pvPortMalloc+0xc4>
8000138c:	fec42783          	lw	a5,-20(s0)
80001390:	0007a783          	lw	a5,0(a5)
80001394:	fc079ae3          	bnez	a5,80001368 <pvPortMalloc+0x94>
80001398:	fec42703          	lw	a4,-20(s0)
8000139c:	91c18793          	addi	a5,gp,-1764 # 80004a9c <xEnd>
800013a0:	0ef70463          	beq	a4,a5,80001488 <pvPortMalloc+0x1b4>
800013a4:	fe842783          	lw	a5,-24(s0)
800013a8:	0007a783          	lw	a5,0(a5)
800013ac:	00800713          	li	a4,8
800013b0:	00e787b3          	add	a5,a5,a4
800013b4:	fef42223          	sw	a5,-28(s0)
800013b8:	fec42783          	lw	a5,-20(s0)
800013bc:	0007a703          	lw	a4,0(a5)
800013c0:	fe842783          	lw	a5,-24(s0)
800013c4:	00e7a023          	sw	a4,0(a5)
800013c8:	fec42783          	lw	a5,-20(s0)
800013cc:	0047a703          	lw	a4,4(a5)
800013d0:	fcc42783          	lw	a5,-52(s0)
800013d4:	40f707b3          	sub	a5,a4,a5
800013d8:	00800713          	li	a4,8
800013dc:	00171713          	slli	a4,a4,0x1
800013e0:	08f77663          	bleu	a5,a4,8000146c <pvPortMalloc+0x198>
800013e4:	fec42703          	lw	a4,-20(s0)
800013e8:	fcc42783          	lw	a5,-52(s0)
800013ec:	00f707b3          	add	a5,a4,a5
800013f0:	fcf42e23          	sw	a5,-36(s0)
800013f4:	fec42783          	lw	a5,-20(s0)
800013f8:	0047a703          	lw	a4,4(a5)
800013fc:	fcc42783          	lw	a5,-52(s0)
80001400:	40f70733          	sub	a4,a4,a5
80001404:	fdc42783          	lw	a5,-36(s0)
80001408:	00e7a223          	sw	a4,4(a5)
8000140c:	fec42783          	lw	a5,-20(s0)
80001410:	fcc42703          	lw	a4,-52(s0)
80001414:	00e7a223          	sw	a4,4(a5)
80001418:	fdc42783          	lw	a5,-36(s0)
8000141c:	0047a783          	lw	a5,4(a5)
80001420:	fcf42c23          	sw	a5,-40(s0)
80001424:	91418793          	addi	a5,gp,-1772 # 80004a94 <xStart>
80001428:	fef42023          	sw	a5,-32(s0)
8000142c:	0100006f          	j	8000143c <pvPortMalloc+0x168>
80001430:	fe042783          	lw	a5,-32(s0)
80001434:	0007a783          	lw	a5,0(a5)
80001438:	fef42023          	sw	a5,-32(s0)
8000143c:	fe042783          	lw	a5,-32(s0)
80001440:	0007a783          	lw	a5,0(a5)
80001444:	0047a783          	lw	a5,4(a5)
80001448:	fd842703          	lw	a4,-40(s0)
8000144c:	fee7e2e3          	bltu	a5,a4,80001430 <pvPortMalloc+0x15c>
80001450:	fe042783          	lw	a5,-32(s0)
80001454:	0007a703          	lw	a4,0(a5)
80001458:	fdc42783          	lw	a5,-36(s0)
8000145c:	00e7a023          	sw	a4,0(a5)
80001460:	fe042783          	lw	a5,-32(s0)
80001464:	fdc42703          	lw	a4,-36(s0)
80001468:	00e7a023          	sw	a4,0(a5)
8000146c:	800057b7          	lui	a5,0x80005
80001470:	9847a703          	lw	a4,-1660(a5) # 80004984 <__stack_top+0xfffc6db4>
80001474:	fec42783          	lw	a5,-20(s0)
80001478:	0047a783          	lw	a5,4(a5)
8000147c:	40f70733          	sub	a4,a4,a5
80001480:	800057b7          	lui	a5,0x80005
80001484:	98e7a223          	sw	a4,-1660(a5) # 80004984 <__stack_top+0xfffc6db4>
80001488:	5a5000ef          	jal	ra,8000222c <xTaskResumeAll>
8000148c:	fe442783          	lw	a5,-28(s0)
80001490:	00079463          	bnez	a5,80001498 <pvPortMalloc+0x1c4>
80001494:	01d010ef          	jal	ra,80002cb0 <vApplicationMallocFailedHook>
80001498:	fe442783          	lw	a5,-28(s0)
8000149c:	00078513          	mv	a0,a5
800014a0:	03c12083          	lw	ra,60(sp)
800014a4:	03812403          	lw	s0,56(sp)
800014a8:	04010113          	addi	sp,sp,64
800014ac:	00008067          	ret

800014b0 <vPortFree>:
800014b0:	fd010113          	addi	sp,sp,-48
800014b4:	02112623          	sw	ra,44(sp)
800014b8:	02812423          	sw	s0,40(sp)
800014bc:	03010413          	addi	s0,sp,48
800014c0:	fca42e23          	sw	a0,-36(s0)
800014c4:	fdc42783          	lw	a5,-36(s0)
800014c8:	fef42423          	sw	a5,-24(s0)
800014cc:	fdc42783          	lw	a5,-36(s0)
800014d0:	08078c63          	beqz	a5,80001568 <vPortFree+0xb8>
800014d4:	00800793          	li	a5,8
800014d8:	40f007b3          	neg	a5,a5
800014dc:	fe842703          	lw	a4,-24(s0)
800014e0:	00f707b3          	add	a5,a4,a5
800014e4:	fef42423          	sw	a5,-24(s0)
800014e8:	fe842783          	lw	a5,-24(s0)
800014ec:	fef42223          	sw	a5,-28(s0)
800014f0:	515000ef          	jal	ra,80002204 <vTaskSuspendAll>
800014f4:	fe442783          	lw	a5,-28(s0)
800014f8:	0047a783          	lw	a5,4(a5)
800014fc:	fef42023          	sw	a5,-32(s0)
80001500:	91418793          	addi	a5,gp,-1772 # 80004a94 <xStart>
80001504:	fef42623          	sw	a5,-20(s0)
80001508:	0100006f          	j	80001518 <vPortFree+0x68>
8000150c:	fec42783          	lw	a5,-20(s0)
80001510:	0007a783          	lw	a5,0(a5)
80001514:	fef42623          	sw	a5,-20(s0)
80001518:	fec42783          	lw	a5,-20(s0)
8000151c:	0007a783          	lw	a5,0(a5)
80001520:	0047a783          	lw	a5,4(a5)
80001524:	fe042703          	lw	a4,-32(s0)
80001528:	fee7e2e3          	bltu	a5,a4,8000150c <vPortFree+0x5c>
8000152c:	fec42783          	lw	a5,-20(s0)
80001530:	0007a703          	lw	a4,0(a5)
80001534:	fe442783          	lw	a5,-28(s0)
80001538:	00e7a023          	sw	a4,0(a5)
8000153c:	fec42783          	lw	a5,-20(s0)
80001540:	fe442703          	lw	a4,-28(s0)
80001544:	00e7a023          	sw	a4,0(a5)
80001548:	fe442783          	lw	a5,-28(s0)
8000154c:	0047a703          	lw	a4,4(a5)
80001550:	800057b7          	lui	a5,0x80005
80001554:	9847a783          	lw	a5,-1660(a5) # 80004984 <__stack_top+0xfffc6db4>
80001558:	00f70733          	add	a4,a4,a5
8000155c:	800057b7          	lui	a5,0x80005
80001560:	98e7a223          	sw	a4,-1660(a5) # 80004984 <__stack_top+0xfffc6db4>
80001564:	4c9000ef          	jal	ra,8000222c <xTaskResumeAll>
80001568:	00000013          	nop
8000156c:	02c12083          	lw	ra,44(sp)
80001570:	02812403          	lw	s0,40(sp)
80001574:	03010113          	addi	sp,sp,48
80001578:	00008067          	ret

8000157c <prvHeapInit>:
8000157c:	fe010113          	addi	sp,sp,-32
80001580:	00812e23          	sw	s0,28(sp)
80001584:	02010413          	addi	s0,sp,32
80001588:	800057b7          	lui	a5,0x80005
8000158c:	af478793          	addi	a5,a5,-1292 # 80004af4 <__stack_top+0xfffc6f24>
80001590:	ffc7f793          	andi	a5,a5,-4
80001594:	fef42623          	sw	a5,-20(s0)
80001598:	fec42703          	lw	a4,-20(s0)
8000159c:	90e1aa23          	sw	a4,-1772(gp) # 80004a94 <xStart>
800015a0:	91418793          	addi	a5,gp,-1772 # 80004a94 <xStart>
800015a4:	0007a223          	sw	zero,4(a5)
800015a8:	91c18793          	addi	a5,gp,-1764 # 80004a9c <xEnd>
800015ac:	00019737          	lui	a4,0x19
800015b0:	ffc70713          	addi	a4,a4,-4 # 18ffc <HEAP_SIZE+0x8ffc>
800015b4:	00e7a223          	sw	a4,4(a5)
800015b8:	9001ae23          	sw	zero,-1764(gp) # 80004a9c <xEnd>
800015bc:	fec42783          	lw	a5,-20(s0)
800015c0:	fef42423          	sw	a5,-24(s0)
800015c4:	fe842783          	lw	a5,-24(s0)
800015c8:	00019737          	lui	a4,0x19
800015cc:	ffc70713          	addi	a4,a4,-4 # 18ffc <HEAP_SIZE+0x8ffc>
800015d0:	00e7a223          	sw	a4,4(a5)
800015d4:	fe842783          	lw	a5,-24(s0)
800015d8:	91c18713          	addi	a4,gp,-1764 # 80004a9c <xEnd>
800015dc:	00e7a023          	sw	a4,0(a5)
800015e0:	00000013          	nop
800015e4:	01c12403          	lw	s0,28(sp)
800015e8:	02010113          	addi	sp,sp,32
800015ec:	00008067          	ret

800015f0 <raise_soft_interrupt>:
800015f0:	fe010113          	addi	sp,sp,-32
800015f4:	00812e23          	sw	s0,28(sp)
800015f8:	02010413          	addi	s0,sp,32
800015fc:	f14027f3          	csrr	a5,mhartid
80001600:	fef42623          	sw	a5,-20(s0)
80001604:	fec42783          	lw	a5,-20(s0)
80001608:	fef42423          	sw	a5,-24(s0)
8000160c:	304467f3          	csrrsi	a5,mie,8
80001610:	fef42223          	sw	a5,-28(s0)
80001614:	44000737          	lui	a4,0x44000
80001618:	fe842783          	lw	a5,-24(s0)
8000161c:	00279793          	slli	a5,a5,0x2
80001620:	00f707b3          	add	a5,a4,a5
80001624:	00100713          	li	a4,1
80001628:	00e7a023          	sw	a4,0(a5)
8000162c:	00000013          	nop
80001630:	01c12403          	lw	s0,28(sp)
80001634:	02010113          	addi	sp,sp,32
80001638:	00008067          	ret

8000163c <vPortEnterCritical>:
8000163c:	ff010113          	addi	sp,sp,-16
80001640:	00812623          	sw	s0,12(sp)
80001644:	01010413          	addi	s0,sp,16
80001648:	30047073          	csrci	mstatus,8
8000164c:	800057b7          	lui	a5,0x80005
80001650:	9887a783          	lw	a5,-1656(a5) # 80004988 <__stack_top+0xfffc6db8>
80001654:	00178713          	addi	a4,a5,1
80001658:	800057b7          	lui	a5,0x80005
8000165c:	98e7a423          	sw	a4,-1656(a5) # 80004988 <__stack_top+0xfffc6db8>
80001660:	00000013          	nop
80001664:	00c12403          	lw	s0,12(sp)
80001668:	01010113          	addi	sp,sp,16
8000166c:	00008067          	ret

80001670 <vPortExitCritical>:
80001670:	ff010113          	addi	sp,sp,-16
80001674:	00812623          	sw	s0,12(sp)
80001678:	01010413          	addi	s0,sp,16
8000167c:	800057b7          	lui	a5,0x80005
80001680:	9887a783          	lw	a5,-1656(a5) # 80004988 <__stack_top+0xfffc6db8>
80001684:	fff78713          	addi	a4,a5,-1
80001688:	800057b7          	lui	a5,0x80005
8000168c:	98e7a423          	sw	a4,-1656(a5) # 80004988 <__stack_top+0xfffc6db8>
80001690:	800057b7          	lui	a5,0x80005
80001694:	9887a783          	lw	a5,-1656(a5) # 80004988 <__stack_top+0xfffc6db8>
80001698:	00079463          	bnez	a5,800016a0 <vPortExitCritical+0x30>
8000169c:	30046073          	csrsi	mstatus,8
800016a0:	00000013          	nop
800016a4:	00c12403          	lw	s0,12(sp)
800016a8:	01010113          	addi	sp,sp,16
800016ac:	00008067          	ret

800016b0 <prvSetNextTimerInterrupt>:
800016b0:	fe010113          	addi	sp,sp,-32
800016b4:	00812e23          	sw	s0,28(sp)
800016b8:	02010413          	addi	s0,sp,32
800016bc:	80005637          	lui	a2,0x80005
800016c0:	98c62603          	lw	a2,-1652(a2) # 8000498c <__stack_top+0xfffc6dbc>
800016c4:	00062603          	lw	a2,0(a2)
800016c8:	fec42423          	sw	a2,-24(s0)
800016cc:	fe042623          	sw	zero,-20(s0)
800016d0:	80005637          	lui	a2,0x80005
800016d4:	98c62603          	lw	a2,-1652(a2) # 8000498c <__stack_top+0xfffc6dbc>
800016d8:	00462603          	lw	a2,4(a2)
800016dc:	00060693          	mv	a3,a2
800016e0:	00000713          	li	a4,0
800016e4:	00069813          	slli	a6,a3,0x0
800016e8:	00000793          	li	a5,0
800016ec:	fe842703          	lw	a4,-24(s0)
800016f0:	00f76733          	or	a4,a4,a5
800016f4:	fee42423          	sw	a4,-24(s0)
800016f8:	fec42703          	lw	a4,-20(s0)
800016fc:	010767b3          	or	a5,a4,a6
80001700:	fef42623          	sw	a5,-20(s0)
80001704:	fe842683          	lw	a3,-24(s0)
80001708:	fec42703          	lw	a4,-20(s0)
8000170c:	000145b7          	lui	a1,0x14
80001710:	43858593          	addi	a1,a1,1080 # 14438 <HEAP_SIZE+0x4438>
80001714:	00000613          	li	a2,0
80001718:	00b687b3          	add	a5,a3,a1
8000171c:	00078513          	mv	a0,a5
80001720:	00d53533          	sltu	a0,a0,a3
80001724:	00c70833          	add	a6,a4,a2
80001728:	01050733          	add	a4,a0,a6
8000172c:	00070813          	mv	a6,a4
80001730:	fef42423          	sw	a5,-24(s0)
80001734:	ff042623          	sw	a6,-20(s0)
80001738:	800057b7          	lui	a5,0x80005
8000173c:	9907a783          	lw	a5,-1648(a5) # 80004990 <__stack_top+0xfffc6dc0>
80001740:	fe842703          	lw	a4,-24(s0)
80001744:	00e7a023          	sw	a4,0(a5)
80001748:	fec42783          	lw	a5,-20(s0)
8000174c:	0007d313          	srli	t1,a5,0x0
80001750:	00000393          	li	t2,0
80001754:	800057b7          	lui	a5,0x80005
80001758:	9907a783          	lw	a5,-1648(a5) # 80004990 <__stack_top+0xfffc6dc0>
8000175c:	00030713          	mv	a4,t1
80001760:	00e7a223          	sw	a4,4(a5)
80001764:	08000793          	li	a5,128
80001768:	3047a073          	csrs	mie,a5
8000176c:	00000013          	nop
80001770:	01c12403          	lw	s0,28(sp)
80001774:	02010113          	addi	sp,sp,32
80001778:	00008067          	ret

8000177c <vPortSetupTimer>:
8000177c:	fe010113          	addi	sp,sp,-32
80001780:	00812e23          	sw	s0,28(sp)
80001784:	02010413          	addi	s0,sp,32
80001788:	80005637          	lui	a2,0x80005
8000178c:	98c62603          	lw	a2,-1652(a2) # 8000498c <__stack_top+0xfffc6dbc>
80001790:	00062603          	lw	a2,0(a2)
80001794:	fec42423          	sw	a2,-24(s0)
80001798:	fe042623          	sw	zero,-20(s0)
8000179c:	80005637          	lui	a2,0x80005
800017a0:	98c62603          	lw	a2,-1652(a2) # 8000498c <__stack_top+0xfffc6dbc>
800017a4:	00462603          	lw	a2,4(a2)
800017a8:	00060693          	mv	a3,a2
800017ac:	00000713          	li	a4,0
800017b0:	00069813          	slli	a6,a3,0x0
800017b4:	00000793          	li	a5,0
800017b8:	fe842703          	lw	a4,-24(s0)
800017bc:	00f76733          	or	a4,a4,a5
800017c0:	fee42423          	sw	a4,-24(s0)
800017c4:	fec42703          	lw	a4,-20(s0)
800017c8:	010767b3          	or	a5,a4,a6
800017cc:	fef42623          	sw	a5,-20(s0)
800017d0:	fe842683          	lw	a3,-24(s0)
800017d4:	fec42703          	lw	a4,-20(s0)
800017d8:	000145b7          	lui	a1,0x14
800017dc:	43858593          	addi	a1,a1,1080 # 14438 <HEAP_SIZE+0x4438>
800017e0:	00000613          	li	a2,0
800017e4:	00b687b3          	add	a5,a3,a1
800017e8:	00078513          	mv	a0,a5
800017ec:	00d53533          	sltu	a0,a0,a3
800017f0:	00c70833          	add	a6,a4,a2
800017f4:	01050733          	add	a4,a0,a6
800017f8:	00070813          	mv	a6,a4
800017fc:	fef42423          	sw	a5,-24(s0)
80001800:	ff042623          	sw	a6,-20(s0)
80001804:	800057b7          	lui	a5,0x80005
80001808:	9907a783          	lw	a5,-1648(a5) # 80004990 <__stack_top+0xfffc6dc0>
8000180c:	fe842703          	lw	a4,-24(s0)
80001810:	00e7a023          	sw	a4,0(a5)
80001814:	fec42783          	lw	a5,-20(s0)
80001818:	0007d313          	srli	t1,a5,0x0
8000181c:	00000393          	li	t2,0
80001820:	800057b7          	lui	a5,0x80005
80001824:	9907a783          	lw	a5,-1648(a5) # 80004990 <__stack_top+0xfffc6dc0>
80001828:	00030713          	mv	a4,t1
8000182c:	00e7a223          	sw	a4,4(a5)
80001830:	08000793          	li	a5,128
80001834:	3047a073          	csrs	mie,a5
80001838:	00000013          	nop
8000183c:	01c12403          	lw	s0,28(sp)
80001840:	02010113          	addi	sp,sp,32
80001844:	00008067          	ret

80001848 <prvTaskExitError>:
80001848:	ff010113          	addi	sp,sp,-16
8000184c:	00812623          	sw	s0,12(sp)
80001850:	01010413          	addi	s0,sp,16
80001854:	800057b7          	lui	a5,0x80005
80001858:	9887a703          	lw	a4,-1656(a5) # 80004988 <__stack_top+0xfffc6db8>
8000185c:	fff00793          	li	a5,-1
80001860:	00f70663          	beq	a4,a5,8000186c <prvTaskExitError+0x24>
80001864:	30047073          	csrci	mstatus,8
80001868:	0000006f          	j	80001868 <prvTaskExitError+0x20>
8000186c:	30047073          	csrci	mstatus,8
80001870:	0000006f          	j	80001870 <prvTaskExitError+0x28>

80001874 <pxPortInitialiseStack>:
80001874:	fe010113          	addi	sp,sp,-32
80001878:	00812e23          	sw	s0,28(sp)
8000187c:	02010413          	addi	s0,sp,32
80001880:	fea42623          	sw	a0,-20(s0)
80001884:	feb42423          	sw	a1,-24(s0)
80001888:	fec42223          	sw	a2,-28(s0)
8000188c:	fec42783          	lw	a5,-20(s0)
80001890:	ffc78793          	addi	a5,a5,-4
80001894:	fef42623          	sw	a5,-20(s0)
80001898:	fe842703          	lw	a4,-24(s0)
8000189c:	fec42783          	lw	a5,-20(s0)
800018a0:	00e7a023          	sw	a4,0(a5)
800018a4:	fec42783          	lw	a5,-20(s0)
800018a8:	fa878793          	addi	a5,a5,-88
800018ac:	fef42623          	sw	a5,-20(s0)
800018b0:	fe442703          	lw	a4,-28(s0)
800018b4:	fec42783          	lw	a5,-20(s0)
800018b8:	00e7a023          	sw	a4,0(a5)
800018bc:	fec42783          	lw	a5,-20(s0)
800018c0:	fe878793          	addi	a5,a5,-24
800018c4:	fef42623          	sw	a5,-20(s0)
800018c8:	00018793          	mv	a5,gp
800018cc:	00078713          	mv	a4,a5
800018d0:	fec42783          	lw	a5,-20(s0)
800018d4:	00e7a023          	sw	a4,0(a5)
800018d8:	fec42783          	lw	a5,-20(s0)
800018dc:	ff478793          	addi	a5,a5,-12
800018e0:	fef42623          	sw	a5,-20(s0)
800018e4:	800027b7          	lui	a5,0x80002
800018e8:	84878713          	addi	a4,a5,-1976 # 80001848 <__stack_top+0xfffc3c78>
800018ec:	fec42783          	lw	a5,-20(s0)
800018f0:	00e7a023          	sw	a4,0(a5)
800018f4:	fec42783          	lw	a5,-20(s0)
800018f8:	00078513          	mv	a0,a5
800018fc:	01c12403          	lw	s0,28(sp)
80001900:	02010113          	addi	sp,sp,32
80001904:	00008067          	ret

80001908 <SysTick_Handler>:
80001908:	ff010113          	addi	sp,sp,-16
8000190c:	00112623          	sw	ra,12(sp)
80001910:	00812423          	sw	s0,8(sp)
80001914:	01010413          	addi	s0,sp,16
80001918:	92c1a283          	lw	t0,-1748(gp) # 80004aac <pxCurrentTCB>
8000191c:	00c2a023          	sw	a2,0(t0)
80001920:	d91ff0ef          	jal	ra,800016b0 <prvSetNextTimerInterrupt>
80001924:	269000ef          	jal	ra,8000238c <xTaskIncrementTick>
80001928:	00050793          	mv	a5,a0
8000192c:	00078463          	beqz	a5,80001934 <SysTick_Handler+0x2c>
80001930:	449000ef          	jal	ra,80002578 <vTaskSwitchContext>
80001934:	92c1a103          	lw	sp,-1748(gp) # 80004aac <pxCurrentTCB>
80001938:	00012103          	lw	sp,0(sp)
8000193c:	07c12283          	lw	t0,124(sp)
80001940:	34129073          	csrw	mepc,t0
80001944:	00012083          	lw	ra,0(sp)
80001948:	00c12203          	lw	tp,12(sp)
8000194c:	01012283          	lw	t0,16(sp)
80001950:	01412303          	lw	t1,20(sp)
80001954:	01812383          	lw	t2,24(sp)
80001958:	01c12403          	lw	s0,28(sp)
8000195c:	02012483          	lw	s1,32(sp)
80001960:	02412503          	lw	a0,36(sp)
80001964:	02812583          	lw	a1,40(sp)
80001968:	02c12603          	lw	a2,44(sp)
8000196c:	03012683          	lw	a3,48(sp)
80001970:	03412703          	lw	a4,52(sp)
80001974:	03812783          	lw	a5,56(sp)
80001978:	03c12803          	lw	a6,60(sp)
8000197c:	04012883          	lw	a7,64(sp)
80001980:	04412903          	lw	s2,68(sp)
80001984:	04812983          	lw	s3,72(sp)
80001988:	04c12a03          	lw	s4,76(sp)
8000198c:	05012a83          	lw	s5,80(sp)
80001990:	05412b03          	lw	s6,84(sp)
80001994:	05812b83          	lw	s7,88(sp)
80001998:	05c12c03          	lw	s8,92(sp)
8000199c:	06012c83          	lw	s9,96(sp)
800019a0:	06412d03          	lw	s10,100(sp)
800019a4:	06812d83          	lw	s11,104(sp)
800019a8:	06c12e03          	lw	t3,108(sp)
800019ac:	07012e83          	lw	t4,112(sp)
800019b0:	07412f03          	lw	t5,116(sp)
800019b4:	07812f83          	lw	t6,120(sp)
800019b8:	08010113          	addi	sp,sp,128
800019bc:	30200073          	mret
800019c0:	00000013          	nop
800019c4:	00c12083          	lw	ra,12(sp)
800019c8:	00812403          	lw	s0,8(sp)
800019cc:	01010113          	addi	sp,sp,16
800019d0:	00008067          	ret

800019d4 <xPortStartScheduler>:
800019d4:	ff010113          	addi	sp,sp,-16
800019d8:	00112623          	sw	ra,12(sp)
800019dc:	00812423          	sw	s0,8(sp)
800019e0:	01010413          	addi	s0,sp,16
800019e4:	d99ff0ef          	jal	ra,8000177c <vPortSetupTimer>
800019e8:	800057b7          	lui	a5,0x80005
800019ec:	9807a423          	sw	zero,-1656(a5) # 80004988 <__stack_top+0xfffc6db8>
800019f0:	00100713          	li	a4,1
800019f4:	92e1a423          	sw	a4,-1752(gp) # 80004aa8 <g_startscheduler>
800019f8:	989fe0ef          	jal	ra,80000380 <__enable_irq>
800019fc:	bf5ff0ef          	jal	ra,800015f0 <raise_soft_interrupt>
80001a00:	00000793          	li	a5,0
80001a04:	00078513          	mv	a0,a5
80001a08:	00c12083          	lw	ra,12(sp)
80001a0c:	00812403          	lw	s0,8(sp)
80001a10:	01010113          	addi	sp,sp,16
80001a14:	00008067          	ret

80001a18 <Software_IRQHandler>:
80001a18:	ff010113          	addi	sp,sp,-16
80001a1c:	00112623          	sw	ra,12(sp)
80001a20:	00812423          	sw	s0,8(sp)
80001a24:	01010413          	addi	s0,sp,16
80001a28:	9281a703          	lw	a4,-1752(gp) # 80004aa8 <g_startscheduler>
80001a2c:	00100793          	li	a5,1
80001a30:	00f71863          	bne	a4,a5,80001a40 <Software_IRQHandler+0x28>
80001a34:	00200713          	li	a4,2
80001a38:	92e1a423          	sw	a4,-1752(gp) # 80004aa8 <g_startscheduler>
80001a3c:	0100006f          	j	80001a4c <Software_IRQHandler+0x34>
80001a40:	92c1a283          	lw	t0,-1748(gp) # 80004aac <pxCurrentTCB>
80001a44:	00c2a023          	sw	a2,0(t0)
80001a48:	331000ef          	jal	ra,80002578 <vTaskSwitchContext>
80001a4c:	440007b7          	lui	a5,0x44000
80001a50:	0007a023          	sw	zero,0(a5) # 44000000 <RAM_SIZE+0x43f80000>
80001a54:	92c1a103          	lw	sp,-1748(gp) # 80004aac <pxCurrentTCB>
80001a58:	00012103          	lw	sp,0(sp)
80001a5c:	07c12283          	lw	t0,124(sp)
80001a60:	34129073          	csrw	mepc,t0
80001a64:	00012083          	lw	ra,0(sp)
80001a68:	00c12203          	lw	tp,12(sp)
80001a6c:	01012283          	lw	t0,16(sp)
80001a70:	01412303          	lw	t1,20(sp)
80001a74:	01812383          	lw	t2,24(sp)
80001a78:	01c12403          	lw	s0,28(sp)
80001a7c:	02012483          	lw	s1,32(sp)
80001a80:	02412503          	lw	a0,36(sp)
80001a84:	02812583          	lw	a1,40(sp)
80001a88:	02c12603          	lw	a2,44(sp)
80001a8c:	03012683          	lw	a3,48(sp)
80001a90:	03412703          	lw	a4,52(sp)
80001a94:	03812783          	lw	a5,56(sp)
80001a98:	03c12803          	lw	a6,60(sp)
80001a9c:	04012883          	lw	a7,64(sp)
80001aa0:	04412903          	lw	s2,68(sp)
80001aa4:	04812983          	lw	s3,72(sp)
80001aa8:	04c12a03          	lw	s4,76(sp)
80001aac:	05012a83          	lw	s5,80(sp)
80001ab0:	05412b03          	lw	s6,84(sp)
80001ab4:	05812b83          	lw	s7,88(sp)
80001ab8:	05c12c03          	lw	s8,92(sp)
80001abc:	06012c83          	lw	s9,96(sp)
80001ac0:	06412d03          	lw	s10,100(sp)
80001ac4:	06812d83          	lw	s11,104(sp)
80001ac8:	06c12e03          	lw	t3,108(sp)
80001acc:	07012e83          	lw	t4,112(sp)
80001ad0:	07412f03          	lw	t5,116(sp)
80001ad4:	07812f83          	lw	t6,120(sp)
80001ad8:	08010113          	addi	sp,sp,128
80001adc:	30200073          	mret
80001ae0:	00000013          	nop
80001ae4:	00c12083          	lw	ra,12(sp)
80001ae8:	00812403          	lw	s0,8(sp)
80001aec:	01010113          	addi	sp,sp,16
80001af0:	00008067          	ret

80001af4 <vPortYield>:
80001af4:	ff010113          	addi	sp,sp,-16
80001af8:	00112623          	sw	ra,12(sp)
80001afc:	00812423          	sw	s0,8(sp)
80001b00:	01010413          	addi	s0,sp,16
80001b04:	aedff0ef          	jal	ra,800015f0 <raise_soft_interrupt>
80001b08:	00000013          	nop
80001b0c:	00c12083          	lw	ra,12(sp)
80001b10:	00812403          	lw	s0,8(sp)
80001b14:	01010113          	addi	sp,sp,16
80001b18:	00008067          	ret

80001b1c <vListInitialise>:
80001b1c:	fe010113          	addi	sp,sp,-32
80001b20:	00812e23          	sw	s0,28(sp)
80001b24:	02010413          	addi	s0,sp,32
80001b28:	fea42623          	sw	a0,-20(s0)
80001b2c:	fec42783          	lw	a5,-20(s0)
80001b30:	00878713          	addi	a4,a5,8
80001b34:	fec42783          	lw	a5,-20(s0)
80001b38:	00e7a223          	sw	a4,4(a5)
80001b3c:	fec42783          	lw	a5,-20(s0)
80001b40:	fff00713          	li	a4,-1
80001b44:	00e7a423          	sw	a4,8(a5)
80001b48:	fec42783          	lw	a5,-20(s0)
80001b4c:	00878713          	addi	a4,a5,8
80001b50:	fec42783          	lw	a5,-20(s0)
80001b54:	00e7a623          	sw	a4,12(a5)
80001b58:	fec42783          	lw	a5,-20(s0)
80001b5c:	00878713          	addi	a4,a5,8
80001b60:	fec42783          	lw	a5,-20(s0)
80001b64:	00e7a823          	sw	a4,16(a5)
80001b68:	fec42783          	lw	a5,-20(s0)
80001b6c:	0007a023          	sw	zero,0(a5)
80001b70:	00000013          	nop
80001b74:	01c12403          	lw	s0,28(sp)
80001b78:	02010113          	addi	sp,sp,32
80001b7c:	00008067          	ret

80001b80 <vListInitialiseItem>:
80001b80:	fe010113          	addi	sp,sp,-32
80001b84:	00812e23          	sw	s0,28(sp)
80001b88:	02010413          	addi	s0,sp,32
80001b8c:	fea42623          	sw	a0,-20(s0)
80001b90:	fec42783          	lw	a5,-20(s0)
80001b94:	0007a823          	sw	zero,16(a5)
80001b98:	00000013          	nop
80001b9c:	01c12403          	lw	s0,28(sp)
80001ba0:	02010113          	addi	sp,sp,32
80001ba4:	00008067          	ret

80001ba8 <vListInsertEnd>:
80001ba8:	fd010113          	addi	sp,sp,-48
80001bac:	02812623          	sw	s0,44(sp)
80001bb0:	03010413          	addi	s0,sp,48
80001bb4:	fca42e23          	sw	a0,-36(s0)
80001bb8:	fcb42c23          	sw	a1,-40(s0)
80001bbc:	fdc42783          	lw	a5,-36(s0)
80001bc0:	0047a783          	lw	a5,4(a5)
80001bc4:	fef42623          	sw	a5,-20(s0)
80001bc8:	fd842783          	lw	a5,-40(s0)
80001bcc:	fec42703          	lw	a4,-20(s0)
80001bd0:	00e7a223          	sw	a4,4(a5)
80001bd4:	fec42783          	lw	a5,-20(s0)
80001bd8:	0087a703          	lw	a4,8(a5)
80001bdc:	fd842783          	lw	a5,-40(s0)
80001be0:	00e7a423          	sw	a4,8(a5)
80001be4:	fec42783          	lw	a5,-20(s0)
80001be8:	0087a783          	lw	a5,8(a5)
80001bec:	fd842703          	lw	a4,-40(s0)
80001bf0:	00e7a223          	sw	a4,4(a5)
80001bf4:	fec42783          	lw	a5,-20(s0)
80001bf8:	fd842703          	lw	a4,-40(s0)
80001bfc:	00e7a423          	sw	a4,8(a5)
80001c00:	fd842783          	lw	a5,-40(s0)
80001c04:	fdc42703          	lw	a4,-36(s0)
80001c08:	00e7a823          	sw	a4,16(a5)
80001c0c:	fdc42783          	lw	a5,-36(s0)
80001c10:	0007a783          	lw	a5,0(a5)
80001c14:	00178713          	addi	a4,a5,1
80001c18:	fdc42783          	lw	a5,-36(s0)
80001c1c:	00e7a023          	sw	a4,0(a5)
80001c20:	00000013          	nop
80001c24:	02c12403          	lw	s0,44(sp)
80001c28:	03010113          	addi	sp,sp,48
80001c2c:	00008067          	ret

80001c30 <vListInsert>:
80001c30:	fd010113          	addi	sp,sp,-48
80001c34:	02812623          	sw	s0,44(sp)
80001c38:	03010413          	addi	s0,sp,48
80001c3c:	fca42e23          	sw	a0,-36(s0)
80001c40:	fcb42c23          	sw	a1,-40(s0)
80001c44:	fd842783          	lw	a5,-40(s0)
80001c48:	0007a783          	lw	a5,0(a5)
80001c4c:	fef42423          	sw	a5,-24(s0)
80001c50:	fe842703          	lw	a4,-24(s0)
80001c54:	fff00793          	li	a5,-1
80001c58:	00f71a63          	bne	a4,a5,80001c6c <vListInsert+0x3c>
80001c5c:	fdc42783          	lw	a5,-36(s0)
80001c60:	0107a783          	lw	a5,16(a5)
80001c64:	fef42623          	sw	a5,-20(s0)
80001c68:	0340006f          	j	80001c9c <vListInsert+0x6c>
80001c6c:	fdc42783          	lw	a5,-36(s0)
80001c70:	00878793          	addi	a5,a5,8
80001c74:	fef42623          	sw	a5,-20(s0)
80001c78:	0100006f          	j	80001c88 <vListInsert+0x58>
80001c7c:	fec42783          	lw	a5,-20(s0)
80001c80:	0047a783          	lw	a5,4(a5)
80001c84:	fef42623          	sw	a5,-20(s0)
80001c88:	fec42783          	lw	a5,-20(s0)
80001c8c:	0047a783          	lw	a5,4(a5)
80001c90:	0007a783          	lw	a5,0(a5)
80001c94:	fe842703          	lw	a4,-24(s0)
80001c98:	fef772e3          	bleu	a5,a4,80001c7c <vListInsert+0x4c>
80001c9c:	fec42783          	lw	a5,-20(s0)
80001ca0:	0047a703          	lw	a4,4(a5)
80001ca4:	fd842783          	lw	a5,-40(s0)
80001ca8:	00e7a223          	sw	a4,4(a5)
80001cac:	fd842783          	lw	a5,-40(s0)
80001cb0:	0047a783          	lw	a5,4(a5)
80001cb4:	fd842703          	lw	a4,-40(s0)
80001cb8:	00e7a423          	sw	a4,8(a5)
80001cbc:	fd842783          	lw	a5,-40(s0)
80001cc0:	fec42703          	lw	a4,-20(s0)
80001cc4:	00e7a423          	sw	a4,8(a5)
80001cc8:	fec42783          	lw	a5,-20(s0)
80001ccc:	fd842703          	lw	a4,-40(s0)
80001cd0:	00e7a223          	sw	a4,4(a5)
80001cd4:	fd842783          	lw	a5,-40(s0)
80001cd8:	fdc42703          	lw	a4,-36(s0)
80001cdc:	00e7a823          	sw	a4,16(a5)
80001ce0:	fdc42783          	lw	a5,-36(s0)
80001ce4:	0007a783          	lw	a5,0(a5)
80001ce8:	00178713          	addi	a4,a5,1
80001cec:	fdc42783          	lw	a5,-36(s0)
80001cf0:	00e7a023          	sw	a4,0(a5)
80001cf4:	00000013          	nop
80001cf8:	02c12403          	lw	s0,44(sp)
80001cfc:	03010113          	addi	sp,sp,48
80001d00:	00008067          	ret

80001d04 <uxListRemove>:
80001d04:	fd010113          	addi	sp,sp,-48
80001d08:	02812623          	sw	s0,44(sp)
80001d0c:	03010413          	addi	s0,sp,48
80001d10:	fca42e23          	sw	a0,-36(s0)
80001d14:	fdc42783          	lw	a5,-36(s0)
80001d18:	0107a783          	lw	a5,16(a5)
80001d1c:	fef42623          	sw	a5,-20(s0)
80001d20:	fdc42783          	lw	a5,-36(s0)
80001d24:	0047a783          	lw	a5,4(a5)
80001d28:	fdc42703          	lw	a4,-36(s0)
80001d2c:	00872703          	lw	a4,8(a4) # 44000008 <RAM_SIZE+0x43f80008>
80001d30:	00e7a423          	sw	a4,8(a5)
80001d34:	fdc42783          	lw	a5,-36(s0)
80001d38:	0087a783          	lw	a5,8(a5)
80001d3c:	fdc42703          	lw	a4,-36(s0)
80001d40:	00472703          	lw	a4,4(a4)
80001d44:	00e7a223          	sw	a4,4(a5)
80001d48:	fec42783          	lw	a5,-20(s0)
80001d4c:	0047a783          	lw	a5,4(a5)
80001d50:	fdc42703          	lw	a4,-36(s0)
80001d54:	00f71a63          	bne	a4,a5,80001d68 <uxListRemove+0x64>
80001d58:	fdc42783          	lw	a5,-36(s0)
80001d5c:	0087a703          	lw	a4,8(a5)
80001d60:	fec42783          	lw	a5,-20(s0)
80001d64:	00e7a223          	sw	a4,4(a5)
80001d68:	fdc42783          	lw	a5,-36(s0)
80001d6c:	0007a823          	sw	zero,16(a5)
80001d70:	fec42783          	lw	a5,-20(s0)
80001d74:	0007a783          	lw	a5,0(a5)
80001d78:	fff78713          	addi	a4,a5,-1
80001d7c:	fec42783          	lw	a5,-20(s0)
80001d80:	00e7a023          	sw	a4,0(a5)
80001d84:	fec42783          	lw	a5,-20(s0)
80001d88:	0007a783          	lw	a5,0(a5)
80001d8c:	00078513          	mv	a0,a5
80001d90:	02c12403          	lw	s0,44(sp)
80001d94:	03010113          	addi	sp,sp,48
80001d98:	00008067          	ret

80001d9c <memset>:
80001d9c:	fd010113          	addi	sp,sp,-48
80001da0:	02812623          	sw	s0,44(sp)
80001da4:	03010413          	addi	s0,sp,48
80001da8:	fca42e23          	sw	a0,-36(s0)
80001dac:	fcb42c23          	sw	a1,-40(s0)
80001db0:	fcc42a23          	sw	a2,-44(s0)
80001db4:	fdc42703          	lw	a4,-36(s0)
80001db8:	fd442783          	lw	a5,-44(s0)
80001dbc:	00f767b3          	or	a5,a4,a5
80001dc0:	0037f793          	andi	a5,a5,3
80001dc4:	06079863          	bnez	a5,80001e34 <memset+0x98>
80001dc8:	fd842783          	lw	a5,-40(s0)
80001dcc:	0ff7f793          	andi	a5,a5,255
80001dd0:	fef42223          	sw	a5,-28(s0)
80001dd4:	fe442783          	lw	a5,-28(s0)
80001dd8:	00879793          	slli	a5,a5,0x8
80001ddc:	fe442703          	lw	a4,-28(s0)
80001de0:	00f767b3          	or	a5,a4,a5
80001de4:	fef42223          	sw	a5,-28(s0)
80001de8:	fe442783          	lw	a5,-28(s0)
80001dec:	01079793          	slli	a5,a5,0x10
80001df0:	fe442703          	lw	a4,-28(s0)
80001df4:	00f767b3          	or	a5,a4,a5
80001df8:	fef42223          	sw	a5,-28(s0)
80001dfc:	fdc42783          	lw	a5,-36(s0)
80001e00:	fef42623          	sw	a5,-20(s0)
80001e04:	0180006f          	j	80001e1c <memset+0x80>
80001e08:	fec42783          	lw	a5,-20(s0)
80001e0c:	00478713          	addi	a4,a5,4
80001e10:	fee42623          	sw	a4,-20(s0)
80001e14:	fe442703          	lw	a4,-28(s0)
80001e18:	00e7a023          	sw	a4,0(a5)
80001e1c:	fdc42703          	lw	a4,-36(s0)
80001e20:	fd442783          	lw	a5,-44(s0)
80001e24:	00f707b3          	add	a5,a4,a5
80001e28:	fec42703          	lw	a4,-20(s0)
80001e2c:	fcf76ee3          	bltu	a4,a5,80001e08 <memset+0x6c>
80001e30:	0400006f          	j	80001e70 <memset+0xd4>
80001e34:	fdc42783          	lw	a5,-36(s0)
80001e38:	fef42423          	sw	a5,-24(s0)
80001e3c:	0200006f          	j	80001e5c <memset+0xc0>
80001e40:	fe842783          	lw	a5,-24(s0)
80001e44:	00178713          	addi	a4,a5,1
80001e48:	fee42423          	sw	a4,-24(s0)
80001e4c:	fd842703          	lw	a4,-40(s0)
80001e50:	01871713          	slli	a4,a4,0x18
80001e54:	41875713          	srai	a4,a4,0x18
80001e58:	00e78023          	sb	a4,0(a5)
80001e5c:	fdc42703          	lw	a4,-36(s0)
80001e60:	fd442783          	lw	a5,-44(s0)
80001e64:	00f707b3          	add	a5,a4,a5
80001e68:	fe842703          	lw	a4,-24(s0)
80001e6c:	fcf76ae3          	bltu	a4,a5,80001e40 <memset+0xa4>
80001e70:	fdc42783          	lw	a5,-36(s0)
80001e74:	00078513          	mv	a0,a5
80001e78:	02c12403          	lw	s0,44(sp)
80001e7c:	03010113          	addi	sp,sp,48
80001e80:	00008067          	ret

80001e84 <strlen>:
80001e84:	fd010113          	addi	sp,sp,-48
80001e88:	02812623          	sw	s0,44(sp)
80001e8c:	03010413          	addi	s0,sp,48
80001e90:	fca42e23          	sw	a0,-36(s0)
80001e94:	fdc42783          	lw	a5,-36(s0)
80001e98:	fef42623          	sw	a5,-20(s0)
80001e9c:	0100006f          	j	80001eac <strlen+0x28>
80001ea0:	fec42783          	lw	a5,-20(s0)
80001ea4:	00178793          	addi	a5,a5,1
80001ea8:	fef42623          	sw	a5,-20(s0)
80001eac:	fec42783          	lw	a5,-20(s0)
80001eb0:	00078783          	lb	a5,0(a5)
80001eb4:	fe0796e3          	bnez	a5,80001ea0 <strlen+0x1c>
80001eb8:	fec42703          	lw	a4,-20(s0)
80001ebc:	fdc42783          	lw	a5,-36(s0)
80001ec0:	40f707b3          	sub	a5,a4,a5
80001ec4:	00078513          	mv	a0,a5
80001ec8:	02c12403          	lw	s0,44(sp)
80001ecc:	03010113          	addi	sp,sp,48
80001ed0:	00008067          	ret

80001ed4 <xTaskGenericCreate>:
80001ed4:	fc010113          	addi	sp,sp,-64
80001ed8:	02112e23          	sw	ra,60(sp)
80001edc:	02812c23          	sw	s0,56(sp)
80001ee0:	04010413          	addi	s0,sp,64
80001ee4:	fca42e23          	sw	a0,-36(s0)
80001ee8:	fcb42c23          	sw	a1,-40(s0)
80001eec:	fcd42823          	sw	a3,-48(s0)
80001ef0:	fce42623          	sw	a4,-52(s0)
80001ef4:	fcf42423          	sw	a5,-56(s0)
80001ef8:	fd042223          	sw	a6,-60(s0)
80001efc:	fd142023          	sw	a7,-64(s0)
80001f00:	00060793          	mv	a5,a2
80001f04:	fcf41b23          	sh	a5,-42(s0)
80001f08:	fdc42783          	lw	a5,-36(s0)
80001f0c:	00079663          	bnez	a5,80001f18 <xTaskGenericCreate+0x44>
80001f10:	30047073          	csrci	mstatus,8
80001f14:	0000006f          	j	80001f14 <xTaskGenericCreate+0x40>
80001f18:	fcc42703          	lw	a4,-52(s0)
80001f1c:	00400793          	li	a5,4
80001f20:	00e7f663          	bleu	a4,a5,80001f2c <xTaskGenericCreate+0x58>
80001f24:	30047073          	csrci	mstatus,8
80001f28:	0000006f          	j	80001f28 <xTaskGenericCreate+0x54>
80001f2c:	fd645783          	lhu	a5,-42(s0)
80001f30:	fc442583          	lw	a1,-60(s0)
80001f34:	00078513          	mv	a0,a5
80001f38:	281000ef          	jal	ra,800029b8 <prvAllocateTCBAndStack>
80001f3c:	fea42423          	sw	a0,-24(s0)
80001f40:	fe842783          	lw	a5,-24(s0)
80001f44:	16078263          	beqz	a5,800020a8 <xTaskGenericCreate+0x1d4>
80001f48:	fe842783          	lw	a5,-24(s0)
80001f4c:	0307a703          	lw	a4,48(a5)
80001f50:	fd645683          	lhu	a3,-42(s0)
80001f54:	400007b7          	lui	a5,0x40000
80001f58:	fff78793          	addi	a5,a5,-1 # 3fffffff <RAM_SIZE+0x3ff7ffff>
80001f5c:	00f687b3          	add	a5,a3,a5
80001f60:	00279793          	slli	a5,a5,0x2
80001f64:	00f707b3          	add	a5,a4,a5
80001f68:	fef42223          	sw	a5,-28(s0)
80001f6c:	fe442783          	lw	a5,-28(s0)
80001f70:	ffc7f793          	andi	a5,a5,-4
80001f74:	fef42223          	sw	a5,-28(s0)
80001f78:	fe442783          	lw	a5,-28(s0)
80001f7c:	0037f793          	andi	a5,a5,3
80001f80:	00078663          	beqz	a5,80001f8c <xTaskGenericCreate+0xb8>
80001f84:	30047073          	csrci	mstatus,8
80001f88:	0000006f          	j	80001f88 <xTaskGenericCreate+0xb4>
80001f8c:	fd645783          	lhu	a5,-42(s0)
80001f90:	00078713          	mv	a4,a5
80001f94:	fc042683          	lw	a3,-64(s0)
80001f98:	fcc42603          	lw	a2,-52(s0)
80001f9c:	fd842583          	lw	a1,-40(s0)
80001fa0:	fe842503          	lw	a0,-24(s0)
80001fa4:	6f4000ef          	jal	ra,80002698 <prvInitialiseTCBVariables>
80001fa8:	fd042603          	lw	a2,-48(s0)
80001fac:	fdc42583          	lw	a1,-36(s0)
80001fb0:	fe442503          	lw	a0,-28(s0)
80001fb4:	8c1ff0ef          	jal	ra,80001874 <pxPortInitialiseStack>
80001fb8:	00050713          	mv	a4,a0
80001fbc:	fe842783          	lw	a5,-24(s0)
80001fc0:	00e7a023          	sw	a4,0(a5)
80001fc4:	fc842783          	lw	a5,-56(s0)
80001fc8:	00078863          	beqz	a5,80001fd8 <xTaskGenericCreate+0x104>
80001fcc:	fc842783          	lw	a5,-56(s0)
80001fd0:	fe842703          	lw	a4,-24(s0)
80001fd4:	00e7a023          	sw	a4,0(a5)
80001fd8:	e64ff0ef          	jal	ra,8000163c <vPortEnterCritical>
80001fdc:	93c1a783          	lw	a5,-1732(gp) # 80004abc <uxCurrentNumberOfTasks>
80001fe0:	00178713          	addi	a4,a5,1
80001fe4:	92e1ae23          	sw	a4,-1732(gp) # 80004abc <uxCurrentNumberOfTasks>
80001fe8:	92c1a783          	lw	a5,-1748(gp) # 80004aac <pxCurrentTCB>
80001fec:	02079063          	bnez	a5,8000200c <xTaskGenericCreate+0x138>
80001ff0:	fe842703          	lw	a4,-24(s0)
80001ff4:	92e1a623          	sw	a4,-1748(gp) # 80004aac <pxCurrentTCB>
80001ff8:	93c1a703          	lw	a4,-1732(gp) # 80004abc <uxCurrentNumberOfTasks>
80001ffc:	00100793          	li	a5,1
80002000:	02f71663          	bne	a4,a5,8000202c <xTaskGenericCreate+0x158>
80002004:	7cc000ef          	jal	ra,800027d0 <prvInitialiseTaskLists>
80002008:	0240006f          	j	8000202c <xTaskGenericCreate+0x158>
8000200c:	9481a783          	lw	a5,-1720(gp) # 80004ac8 <xSchedulerRunning>
80002010:	00079e63          	bnez	a5,8000202c <xTaskGenericCreate+0x158>
80002014:	92c1a783          	lw	a5,-1748(gp) # 80004aac <pxCurrentTCB>
80002018:	02c7a783          	lw	a5,44(a5)
8000201c:	fcc42703          	lw	a4,-52(s0)
80002020:	00f76663          	bltu	a4,a5,8000202c <xTaskGenericCreate+0x158>
80002024:	fe842703          	lw	a4,-24(s0)
80002028:	92e1a623          	sw	a4,-1748(gp) # 80004aac <pxCurrentTCB>
8000202c:	9581a783          	lw	a5,-1704(gp) # 80004ad8 <uxTaskNumber>
80002030:	00178713          	addi	a4,a5,1
80002034:	94e1ac23          	sw	a4,-1704(gp) # 80004ad8 <uxTaskNumber>
80002038:	9581a703          	lw	a4,-1704(gp) # 80004ad8 <uxTaskNumber>
8000203c:	fe842783          	lw	a5,-24(s0)
80002040:	04e7a423          	sw	a4,72(a5)
80002044:	fe842783          	lw	a5,-24(s0)
80002048:	02c7a703          	lw	a4,44(a5)
8000204c:	9441a783          	lw	a5,-1724(gp) # 80004ac4 <uxTopReadyPriority>
80002050:	00e7f863          	bleu	a4,a5,80002060 <xTaskGenericCreate+0x18c>
80002054:	fe842783          	lw	a5,-24(s0)
80002058:	02c7a703          	lw	a4,44(a5)
8000205c:	94e1a223          	sw	a4,-1724(gp) # 80004ac4 <uxTopReadyPriority>
80002060:	fe842783          	lw	a5,-24(s0)
80002064:	02c7a703          	lw	a4,44(a5)
80002068:	00070793          	mv	a5,a4
8000206c:	00279793          	slli	a5,a5,0x2
80002070:	00e787b3          	add	a5,a5,a4
80002074:	00279793          	slli	a5,a5,0x2
80002078:	8001e737          	lui	a4,0x8001e
8000207c:	af070713          	addi	a4,a4,-1296 # 8001daf0 <__stack_top+0xfffdff20>
80002080:	00e78733          	add	a4,a5,a4
80002084:	fe842783          	lw	a5,-24(s0)
80002088:	00478793          	addi	a5,a5,4
8000208c:	00078593          	mv	a1,a5
80002090:	00070513          	mv	a0,a4
80002094:	b15ff0ef          	jal	ra,80001ba8 <vListInsertEnd>
80002098:	00100793          	li	a5,1
8000209c:	fef42623          	sw	a5,-20(s0)
800020a0:	dd0ff0ef          	jal	ra,80001670 <vPortExitCritical>
800020a4:	00c0006f          	j	800020b0 <xTaskGenericCreate+0x1dc>
800020a8:	fff00793          	li	a5,-1
800020ac:	fef42623          	sw	a5,-20(s0)
800020b0:	fec42703          	lw	a4,-20(s0)
800020b4:	00100793          	li	a5,1
800020b8:	02f71063          	bne	a4,a5,800020d8 <xTaskGenericCreate+0x204>
800020bc:	9481a783          	lw	a5,-1720(gp) # 80004ac8 <xSchedulerRunning>
800020c0:	00078c63          	beqz	a5,800020d8 <xTaskGenericCreate+0x204>
800020c4:	92c1a783          	lw	a5,-1748(gp) # 80004aac <pxCurrentTCB>
800020c8:	02c7a783          	lw	a5,44(a5)
800020cc:	fcc42703          	lw	a4,-52(s0)
800020d0:	00e7f463          	bleu	a4,a5,800020d8 <xTaskGenericCreate+0x204>
800020d4:	a21ff0ef          	jal	ra,80001af4 <vPortYield>
800020d8:	fec42783          	lw	a5,-20(s0)
800020dc:	00078513          	mv	a0,a5
800020e0:	03c12083          	lw	ra,60(sp)
800020e4:	03812403          	lw	s0,56(sp)
800020e8:	04010113          	addi	sp,sp,64
800020ec:	00008067          	ret

800020f0 <vTaskDelay>:
800020f0:	fd010113          	addi	sp,sp,-48
800020f4:	02112623          	sw	ra,44(sp)
800020f8:	02812423          	sw	s0,40(sp)
800020fc:	03010413          	addi	s0,sp,48
80002100:	fca42e23          	sw	a0,-36(s0)
80002104:	fe042623          	sw	zero,-20(s0)
80002108:	fdc42783          	lw	a5,-36(s0)
8000210c:	04078463          	beqz	a5,80002154 <vTaskDelay+0x64>
80002110:	9601a783          	lw	a5,-1696(gp) # 80004ae0 <uxSchedulerSuspended>
80002114:	00078663          	beqz	a5,80002120 <vTaskDelay+0x30>
80002118:	30047073          	csrci	mstatus,8
8000211c:	0000006f          	j	8000211c <vTaskDelay+0x2c>
80002120:	0e4000ef          	jal	ra,80002204 <vTaskSuspendAll>
80002124:	9401a783          	lw	a5,-1728(gp) # 80004ac0 <xTickCount>
80002128:	fdc42703          	lw	a4,-36(s0)
8000212c:	00f707b3          	add	a5,a4,a5
80002130:	fef42423          	sw	a5,-24(s0)
80002134:	92c1a783          	lw	a5,-1748(gp) # 80004aac <pxCurrentTCB>
80002138:	00478793          	addi	a5,a5,4
8000213c:	00078513          	mv	a0,a5
80002140:	bc5ff0ef          	jal	ra,80001d04 <uxListRemove>
80002144:	fe842503          	lw	a0,-24(s0)
80002148:	7e8000ef          	jal	ra,80002930 <prvAddCurrentTaskToDelayedList>
8000214c:	0e0000ef          	jal	ra,8000222c <xTaskResumeAll>
80002150:	fea42623          	sw	a0,-20(s0)
80002154:	fec42783          	lw	a5,-20(s0)
80002158:	00079463          	bnez	a5,80002160 <vTaskDelay+0x70>
8000215c:	999ff0ef          	jal	ra,80001af4 <vPortYield>
80002160:	00000013          	nop
80002164:	02c12083          	lw	ra,44(sp)
80002168:	02812403          	lw	s0,40(sp)
8000216c:	03010113          	addi	sp,sp,48
80002170:	00008067          	ret

80002174 <vTaskStartScheduler>:
80002174:	fe010113          	addi	sp,sp,-32
80002178:	00112e23          	sw	ra,28(sp)
8000217c:	00812c23          	sw	s0,24(sp)
80002180:	02010413          	addi	s0,sp,32
80002184:	00000893          	li	a7,0
80002188:	00000813          	li	a6,0
8000218c:	00000793          	li	a5,0
80002190:	00000713          	li	a4,0
80002194:	00000693          	li	a3,0
80002198:	40000613          	li	a2,1024
8000219c:	800045b7          	lui	a1,0x80004
800021a0:	7f858593          	addi	a1,a1,2040 # 800047f8 <__stack_top+0xfffc6c28>
800021a4:	80002537          	lui	a0,0x80002
800021a8:	66450513          	addi	a0,a0,1636 # 80002664 <__stack_top+0xfffc4a94>
800021ac:	d29ff0ef          	jal	ra,80001ed4 <xTaskGenericCreate>
800021b0:	fea42623          	sw	a0,-20(s0)
800021b4:	fec42703          	lw	a4,-20(s0)
800021b8:	00100793          	li	a5,1
800021bc:	02f71263          	bne	a4,a5,800021e0 <vTaskStartScheduler+0x6c>
800021c0:	30047073          	csrci	mstatus,8
800021c4:	fff00713          	li	a4,-1
800021c8:	94e1ae23          	sw	a4,-1700(gp) # 80004adc <xNextTaskUnblockTime>
800021cc:	00100713          	li	a4,1
800021d0:	94e1a423          	sw	a4,-1720(gp) # 80004ac8 <xSchedulerRunning>
800021d4:	9401a023          	sw	zero,-1728(gp) # 80004ac0 <xTickCount>
800021d8:	ffcff0ef          	jal	ra,800019d4 <xPortStartScheduler>
800021dc:	0140006f          	j	800021f0 <vTaskStartScheduler+0x7c>
800021e0:	fec42783          	lw	a5,-20(s0)
800021e4:	00079663          	bnez	a5,800021f0 <vTaskStartScheduler+0x7c>
800021e8:	30047073          	csrci	mstatus,8
800021ec:	0000006f          	j	800021ec <vTaskStartScheduler+0x78>
800021f0:	00000013          	nop
800021f4:	01c12083          	lw	ra,28(sp)
800021f8:	01812403          	lw	s0,24(sp)
800021fc:	02010113          	addi	sp,sp,32
80002200:	00008067          	ret

80002204 <vTaskSuspendAll>:
80002204:	ff010113          	addi	sp,sp,-16
80002208:	00812623          	sw	s0,12(sp)
8000220c:	01010413          	addi	s0,sp,16
80002210:	9601a783          	lw	a5,-1696(gp) # 80004ae0 <uxSchedulerSuspended>
80002214:	00178713          	addi	a4,a5,1
80002218:	96e1a023          	sw	a4,-1696(gp) # 80004ae0 <uxSchedulerSuspended>
8000221c:	00000013          	nop
80002220:	00c12403          	lw	s0,12(sp)
80002224:	01010113          	addi	sp,sp,16
80002228:	00008067          	ret

8000222c <xTaskResumeAll>:
8000222c:	fe010113          	addi	sp,sp,-32
80002230:	00112e23          	sw	ra,28(sp)
80002234:	00812c23          	sw	s0,24(sp)
80002238:	02010413          	addi	s0,sp,32
8000223c:	fe042623          	sw	zero,-20(s0)
80002240:	9601a783          	lw	a5,-1696(gp) # 80004ae0 <uxSchedulerSuspended>
80002244:	00079663          	bnez	a5,80002250 <xTaskResumeAll+0x24>
80002248:	30047073          	csrci	mstatus,8
8000224c:	0000006f          	j	8000224c <xTaskResumeAll+0x20>
80002250:	becff0ef          	jal	ra,8000163c <vPortEnterCritical>
80002254:	9601a783          	lw	a5,-1696(gp) # 80004ae0 <uxSchedulerSuspended>
80002258:	fff78713          	addi	a4,a5,-1
8000225c:	96e1a023          	sw	a4,-1696(gp) # 80004ae0 <uxSchedulerSuspended>
80002260:	9601a783          	lw	a5,-1696(gp) # 80004ae0 <uxSchedulerSuspended>
80002264:	10079663          	bnez	a5,80002370 <xTaskResumeAll+0x144>
80002268:	93c1a783          	lw	a5,-1732(gp) # 80004abc <uxCurrentNumberOfTasks>
8000226c:	10078263          	beqz	a5,80002370 <xTaskResumeAll+0x144>
80002270:	0a80006f          	j	80002318 <xTaskResumeAll+0xec>
80002274:	8001e7b7          	lui	a5,0x8001e
80002278:	b7c78793          	addi	a5,a5,-1156 # 8001db7c <__stack_top+0xfffdffac>
8000227c:	00c7a783          	lw	a5,12(a5)
80002280:	00c7a783          	lw	a5,12(a5)
80002284:	fef42423          	sw	a5,-24(s0)
80002288:	fe842783          	lw	a5,-24(s0)
8000228c:	01878793          	addi	a5,a5,24
80002290:	00078513          	mv	a0,a5
80002294:	a71ff0ef          	jal	ra,80001d04 <uxListRemove>
80002298:	fe842783          	lw	a5,-24(s0)
8000229c:	00478793          	addi	a5,a5,4
800022a0:	00078513          	mv	a0,a5
800022a4:	a61ff0ef          	jal	ra,80001d04 <uxListRemove>
800022a8:	fe842783          	lw	a5,-24(s0)
800022ac:	02c7a703          	lw	a4,44(a5)
800022b0:	9441a783          	lw	a5,-1724(gp) # 80004ac4 <uxTopReadyPriority>
800022b4:	00e7f863          	bleu	a4,a5,800022c4 <xTaskResumeAll+0x98>
800022b8:	fe842783          	lw	a5,-24(s0)
800022bc:	02c7a703          	lw	a4,44(a5)
800022c0:	94e1a223          	sw	a4,-1724(gp) # 80004ac4 <uxTopReadyPriority>
800022c4:	fe842783          	lw	a5,-24(s0)
800022c8:	02c7a703          	lw	a4,44(a5)
800022cc:	00070793          	mv	a5,a4
800022d0:	00279793          	slli	a5,a5,0x2
800022d4:	00e787b3          	add	a5,a5,a4
800022d8:	00279793          	slli	a5,a5,0x2
800022dc:	8001e737          	lui	a4,0x8001e
800022e0:	af070713          	addi	a4,a4,-1296 # 8001daf0 <__stack_top+0xfffdff20>
800022e4:	00e78733          	add	a4,a5,a4
800022e8:	fe842783          	lw	a5,-24(s0)
800022ec:	00478793          	addi	a5,a5,4
800022f0:	00078593          	mv	a1,a5
800022f4:	00070513          	mv	a0,a4
800022f8:	8b1ff0ef          	jal	ra,80001ba8 <vListInsertEnd>
800022fc:	fe842783          	lw	a5,-24(s0)
80002300:	02c7a703          	lw	a4,44(a5)
80002304:	92c1a783          	lw	a5,-1748(gp) # 80004aac <pxCurrentTCB>
80002308:	02c7a783          	lw	a5,44(a5)
8000230c:	00f76663          	bltu	a4,a5,80002318 <xTaskResumeAll+0xec>
80002310:	00100713          	li	a4,1
80002314:	94e1a823          	sw	a4,-1712(gp) # 80004ad0 <xYieldPending>
80002318:	8001e7b7          	lui	a5,0x8001e
8000231c:	b7c7a783          	lw	a5,-1156(a5) # 8001db7c <__stack_top+0xfffdffac>
80002320:	f4079ae3          	bnez	a5,80002274 <xTaskResumeAll+0x48>
80002324:	94c1a783          	lw	a5,-1716(gp) # 80004acc <uxPendedTicks>
80002328:	02078863          	beqz	a5,80002358 <xTaskResumeAll+0x12c>
8000232c:	0240006f          	j	80002350 <xTaskResumeAll+0x124>
80002330:	05c000ef          	jal	ra,8000238c <xTaskIncrementTick>
80002334:	00050793          	mv	a5,a0
80002338:	00078663          	beqz	a5,80002344 <xTaskResumeAll+0x118>
8000233c:	00100713          	li	a4,1
80002340:	94e1a823          	sw	a4,-1712(gp) # 80004ad0 <xYieldPending>
80002344:	94c1a783          	lw	a5,-1716(gp) # 80004acc <uxPendedTicks>
80002348:	fff78713          	addi	a4,a5,-1
8000234c:	94e1a623          	sw	a4,-1716(gp) # 80004acc <uxPendedTicks>
80002350:	94c1a783          	lw	a5,-1716(gp) # 80004acc <uxPendedTicks>
80002354:	fc079ee3          	bnez	a5,80002330 <xTaskResumeAll+0x104>
80002358:	9501a703          	lw	a4,-1712(gp) # 80004ad0 <xYieldPending>
8000235c:	00100793          	li	a5,1
80002360:	00f71863          	bne	a4,a5,80002370 <xTaskResumeAll+0x144>
80002364:	00100793          	li	a5,1
80002368:	fef42623          	sw	a5,-20(s0)
8000236c:	f88ff0ef          	jal	ra,80001af4 <vPortYield>
80002370:	b00ff0ef          	jal	ra,80001670 <vPortExitCritical>
80002374:	fec42783          	lw	a5,-20(s0)
80002378:	00078513          	mv	a0,a5
8000237c:	01c12083          	lw	ra,28(sp)
80002380:	01812403          	lw	s0,24(sp)
80002384:	02010113          	addi	sp,sp,32
80002388:	00008067          	ret

8000238c <xTaskIncrementTick>:
8000238c:	fd010113          	addi	sp,sp,-48
80002390:	02112623          	sw	ra,44(sp)
80002394:	02812423          	sw	s0,40(sp)
80002398:	03010413          	addi	s0,sp,48
8000239c:	fe042623          	sw	zero,-20(s0)
800023a0:	9601a783          	lw	a5,-1696(gp) # 80004ae0 <uxSchedulerSuspended>
800023a4:	1a079063          	bnez	a5,80002544 <xTaskIncrementTick+0x1b8>
800023a8:	9401a783          	lw	a5,-1728(gp) # 80004ac0 <xTickCount>
800023ac:	00178713          	addi	a4,a5,1
800023b0:	94e1a023          	sw	a4,-1728(gp) # 80004ac0 <xTickCount>
800023b4:	9401a783          	lw	a5,-1728(gp) # 80004ac0 <xTickCount>
800023b8:	fef42423          	sw	a5,-24(s0)
800023bc:	fe842783          	lw	a5,-24(s0)
800023c0:	04079063          	bnez	a5,80002400 <xTaskIncrementTick+0x74>
800023c4:	9301a783          	lw	a5,-1744(gp) # 80004ab0 <pxDelayedTaskList>
800023c8:	0007a783          	lw	a5,0(a5)
800023cc:	00078663          	beqz	a5,800023d8 <xTaskIncrementTick+0x4c>
800023d0:	30047073          	csrci	mstatus,8
800023d4:	0000006f          	j	800023d4 <xTaskIncrementTick+0x48>
800023d8:	9301a783          	lw	a5,-1744(gp) # 80004ab0 <pxDelayedTaskList>
800023dc:	fef42223          	sw	a5,-28(s0)
800023e0:	9341a703          	lw	a4,-1740(gp) # 80004ab4 <pxOverflowDelayedTaskList>
800023e4:	92e1a823          	sw	a4,-1744(gp) # 80004ab0 <pxDelayedTaskList>
800023e8:	fe442703          	lw	a4,-28(s0)
800023ec:	92e1aa23          	sw	a4,-1740(gp) # 80004ab4 <pxOverflowDelayedTaskList>
800023f0:	9541a783          	lw	a5,-1708(gp) # 80004ad4 <xNumOfOverflows>
800023f4:	00178713          	addi	a4,a5,1
800023f8:	94e1aa23          	sw	a4,-1708(gp) # 80004ad4 <xNumOfOverflows>
800023fc:	6bc000ef          	jal	ra,80002ab8 <prvResetNextTaskUnblockTime>
80002400:	95c1a783          	lw	a5,-1700(gp) # 80004adc <xNextTaskUnblockTime>
80002404:	fe842703          	lw	a4,-24(s0)
80002408:	10f76063          	bltu	a4,a5,80002508 <xTaskIncrementTick+0x17c>
8000240c:	9301a783          	lw	a5,-1744(gp) # 80004ab0 <pxDelayedTaskList>
80002410:	0007a783          	lw	a5,0(a5)
80002414:	00079663          	bnez	a5,80002420 <xTaskIncrementTick+0x94>
80002418:	00100793          	li	a5,1
8000241c:	0080006f          	j	80002424 <xTaskIncrementTick+0x98>
80002420:	00000793          	li	a5,0
80002424:	00078863          	beqz	a5,80002434 <xTaskIncrementTick+0xa8>
80002428:	fff00713          	li	a4,-1
8000242c:	94e1ae23          	sw	a4,-1700(gp) # 80004adc <xNextTaskUnblockTime>
80002430:	0d80006f          	j	80002508 <xTaskIncrementTick+0x17c>
80002434:	9301a783          	lw	a5,-1744(gp) # 80004ab0 <pxDelayedTaskList>
80002438:	00c7a783          	lw	a5,12(a5)
8000243c:	00c7a783          	lw	a5,12(a5)
80002440:	fef42023          	sw	a5,-32(s0)
80002444:	fe042783          	lw	a5,-32(s0)
80002448:	0047a783          	lw	a5,4(a5)
8000244c:	fcf42e23          	sw	a5,-36(s0)
80002450:	fe842703          	lw	a4,-24(s0)
80002454:	fdc42783          	lw	a5,-36(s0)
80002458:	00f77863          	bleu	a5,a4,80002468 <xTaskIncrementTick+0xdc>
8000245c:	fdc42703          	lw	a4,-36(s0)
80002460:	94e1ae23          	sw	a4,-1700(gp) # 80004adc <xNextTaskUnblockTime>
80002464:	0a40006f          	j	80002508 <xTaskIncrementTick+0x17c>
80002468:	fe042783          	lw	a5,-32(s0)
8000246c:	00478793          	addi	a5,a5,4
80002470:	00078513          	mv	a0,a5
80002474:	891ff0ef          	jal	ra,80001d04 <uxListRemove>
80002478:	fe042783          	lw	a5,-32(s0)
8000247c:	0287a783          	lw	a5,40(a5)
80002480:	00078a63          	beqz	a5,80002494 <xTaskIncrementTick+0x108>
80002484:	fe042783          	lw	a5,-32(s0)
80002488:	01878793          	addi	a5,a5,24
8000248c:	00078513          	mv	a0,a5
80002490:	875ff0ef          	jal	ra,80001d04 <uxListRemove>
80002494:	fe042783          	lw	a5,-32(s0)
80002498:	02c7a703          	lw	a4,44(a5)
8000249c:	9441a783          	lw	a5,-1724(gp) # 80004ac4 <uxTopReadyPriority>
800024a0:	00e7f863          	bleu	a4,a5,800024b0 <xTaskIncrementTick+0x124>
800024a4:	fe042783          	lw	a5,-32(s0)
800024a8:	02c7a703          	lw	a4,44(a5)
800024ac:	94e1a223          	sw	a4,-1724(gp) # 80004ac4 <uxTopReadyPriority>
800024b0:	fe042783          	lw	a5,-32(s0)
800024b4:	02c7a703          	lw	a4,44(a5)
800024b8:	00070793          	mv	a5,a4
800024bc:	00279793          	slli	a5,a5,0x2
800024c0:	00e787b3          	add	a5,a5,a4
800024c4:	00279793          	slli	a5,a5,0x2
800024c8:	8001e737          	lui	a4,0x8001e
800024cc:	af070713          	addi	a4,a4,-1296 # 8001daf0 <__stack_top+0xfffdff20>
800024d0:	00e78733          	add	a4,a5,a4
800024d4:	fe042783          	lw	a5,-32(s0)
800024d8:	00478793          	addi	a5,a5,4
800024dc:	00078593          	mv	a1,a5
800024e0:	00070513          	mv	a0,a4
800024e4:	ec4ff0ef          	jal	ra,80001ba8 <vListInsertEnd>
800024e8:	fe042783          	lw	a5,-32(s0)
800024ec:	02c7a703          	lw	a4,44(a5)
800024f0:	92c1a783          	lw	a5,-1748(gp) # 80004aac <pxCurrentTCB>
800024f4:	02c7a783          	lw	a5,44(a5)
800024f8:	f0f76ae3          	bltu	a4,a5,8000240c <xTaskIncrementTick+0x80>
800024fc:	00100793          	li	a5,1
80002500:	fef42623          	sw	a5,-20(s0)
80002504:	f09ff06f          	j	8000240c <xTaskIncrementTick+0x80>
80002508:	92c1a783          	lw	a5,-1748(gp) # 80004aac <pxCurrentTCB>
8000250c:	02c7a703          	lw	a4,44(a5)
80002510:	8001e6b7          	lui	a3,0x8001e
80002514:	00070793          	mv	a5,a4
80002518:	00279793          	slli	a5,a5,0x2
8000251c:	00e787b3          	add	a5,a5,a4
80002520:	00279793          	slli	a5,a5,0x2
80002524:	af068713          	addi	a4,a3,-1296 # 8001daf0 <__stack_top+0xfffdff20>
80002528:	00e787b3          	add	a5,a5,a4
8000252c:	0007a703          	lw	a4,0(a5)
80002530:	00100793          	li	a5,1
80002534:	00e7fe63          	bleu	a4,a5,80002550 <xTaskIncrementTick+0x1c4>
80002538:	00100793          	li	a5,1
8000253c:	fef42623          	sw	a5,-20(s0)
80002540:	0100006f          	j	80002550 <xTaskIncrementTick+0x1c4>
80002544:	94c1a783          	lw	a5,-1716(gp) # 80004acc <uxPendedTicks>
80002548:	00178713          	addi	a4,a5,1
8000254c:	94e1a623          	sw	a4,-1716(gp) # 80004acc <uxPendedTicks>
80002550:	9501a783          	lw	a5,-1712(gp) # 80004ad0 <xYieldPending>
80002554:	00078663          	beqz	a5,80002560 <xTaskIncrementTick+0x1d4>
80002558:	00100793          	li	a5,1
8000255c:	fef42623          	sw	a5,-20(s0)
80002560:	fec42783          	lw	a5,-20(s0)
80002564:	00078513          	mv	a0,a5
80002568:	02c12083          	lw	ra,44(sp)
8000256c:	02812403          	lw	s0,40(sp)
80002570:	03010113          	addi	sp,sp,48
80002574:	00008067          	ret

80002578 <vTaskSwitchContext>:
80002578:	fe010113          	addi	sp,sp,-32
8000257c:	00812e23          	sw	s0,28(sp)
80002580:	02010413          	addi	s0,sp,32
80002584:	9601a783          	lw	a5,-1696(gp) # 80004ae0 <uxSchedulerSuspended>
80002588:	00078863          	beqz	a5,80002598 <vTaskSwitchContext+0x20>
8000258c:	00100713          	li	a4,1
80002590:	94e1a823          	sw	a4,-1712(gp) # 80004ad0 <xYieldPending>
80002594:	0c00006f          	j	80002654 <vTaskSwitchContext+0xdc>
80002598:	9401a823          	sw	zero,-1712(gp) # 80004ad0 <xYieldPending>
8000259c:	0200006f          	j	800025bc <vTaskSwitchContext+0x44>
800025a0:	9441a783          	lw	a5,-1724(gp) # 80004ac4 <uxTopReadyPriority>
800025a4:	00079663          	bnez	a5,800025b0 <vTaskSwitchContext+0x38>
800025a8:	30047073          	csrci	mstatus,8
800025ac:	0000006f          	j	800025ac <vTaskSwitchContext+0x34>
800025b0:	9441a783          	lw	a5,-1724(gp) # 80004ac4 <uxTopReadyPriority>
800025b4:	fff78713          	addi	a4,a5,-1
800025b8:	94e1a223          	sw	a4,-1724(gp) # 80004ac4 <uxTopReadyPriority>
800025bc:	9441a703          	lw	a4,-1724(gp) # 80004ac4 <uxTopReadyPriority>
800025c0:	8001e6b7          	lui	a3,0x8001e
800025c4:	00070793          	mv	a5,a4
800025c8:	00279793          	slli	a5,a5,0x2
800025cc:	00e787b3          	add	a5,a5,a4
800025d0:	00279793          	slli	a5,a5,0x2
800025d4:	af068713          	addi	a4,a3,-1296 # 8001daf0 <__stack_top+0xfffdff20>
800025d8:	00e787b3          	add	a5,a5,a4
800025dc:	0007a783          	lw	a5,0(a5)
800025e0:	fc0780e3          	beqz	a5,800025a0 <vTaskSwitchContext+0x28>
800025e4:	9441a703          	lw	a4,-1724(gp) # 80004ac4 <uxTopReadyPriority>
800025e8:	00070793          	mv	a5,a4
800025ec:	00279793          	slli	a5,a5,0x2
800025f0:	00e787b3          	add	a5,a5,a4
800025f4:	00279793          	slli	a5,a5,0x2
800025f8:	8001e737          	lui	a4,0x8001e
800025fc:	af070713          	addi	a4,a4,-1296 # 8001daf0 <__stack_top+0xfffdff20>
80002600:	00e787b3          	add	a5,a5,a4
80002604:	fef42623          	sw	a5,-20(s0)
80002608:	fec42783          	lw	a5,-20(s0)
8000260c:	0047a783          	lw	a5,4(a5)
80002610:	0047a703          	lw	a4,4(a5)
80002614:	fec42783          	lw	a5,-20(s0)
80002618:	00e7a223          	sw	a4,4(a5)
8000261c:	fec42783          	lw	a5,-20(s0)
80002620:	0047a703          	lw	a4,4(a5)
80002624:	fec42783          	lw	a5,-20(s0)
80002628:	00878793          	addi	a5,a5,8
8000262c:	00f71c63          	bne	a4,a5,80002644 <vTaskSwitchContext+0xcc>
80002630:	fec42783          	lw	a5,-20(s0)
80002634:	0047a783          	lw	a5,4(a5)
80002638:	0047a703          	lw	a4,4(a5)
8000263c:	fec42783          	lw	a5,-20(s0)
80002640:	00e7a223          	sw	a4,4(a5)
80002644:	fec42783          	lw	a5,-20(s0)
80002648:	0047a783          	lw	a5,4(a5)
8000264c:	00c7a703          	lw	a4,12(a5)
80002650:	92e1a623          	sw	a4,-1748(gp) # 80004aac <pxCurrentTCB>
80002654:	00000013          	nop
80002658:	01c12403          	lw	s0,28(sp)
8000265c:	02010113          	addi	sp,sp,32
80002660:	00008067          	ret

80002664 <prvIdleTask>:
80002664:	fe010113          	addi	sp,sp,-32
80002668:	00112e23          	sw	ra,28(sp)
8000266c:	00812c23          	sw	s0,24(sp)
80002670:	02010413          	addi	s0,sp,32
80002674:	fea42623          	sw	a0,-20(s0)
80002678:	218000ef          	jal	ra,80002890 <prvCheckTasksWaitingTermination>
8000267c:	8001e7b7          	lui	a5,0x8001e
80002680:	af07a703          	lw	a4,-1296(a5) # 8001daf0 <__stack_top+0xfffdff20>
80002684:	00100793          	li	a5,1
80002688:	00e7f463          	bleu	a4,a5,80002690 <prvIdleTask+0x2c>
8000268c:	c68ff0ef          	jal	ra,80001af4 <vPortYield>
80002690:	634000ef          	jal	ra,80002cc4 <vApplicationIdleHook>
80002694:	fe5ff06f          	j	80002678 <prvIdleTask+0x14>

80002698 <prvInitialiseTCBVariables>:
80002698:	fc010113          	addi	sp,sp,-64
8000269c:	02112e23          	sw	ra,60(sp)
800026a0:	02812c23          	sw	s0,56(sp)
800026a4:	04010413          	addi	s0,sp,64
800026a8:	fca42e23          	sw	a0,-36(s0)
800026ac:	fcb42c23          	sw	a1,-40(s0)
800026b0:	fcc42a23          	sw	a2,-44(s0)
800026b4:	fcd42823          	sw	a3,-48(s0)
800026b8:	00070793          	mv	a5,a4
800026bc:	fcf41723          	sh	a5,-50(s0)
800026c0:	fe042623          	sw	zero,-20(s0)
800026c4:	0440006f          	j	80002708 <prvInitialiseTCBVariables+0x70>
800026c8:	fd842703          	lw	a4,-40(s0)
800026cc:	fec42783          	lw	a5,-20(s0)
800026d0:	00f707b3          	add	a5,a4,a5
800026d4:	00078703          	lb	a4,0(a5)
800026d8:	fdc42683          	lw	a3,-36(s0)
800026dc:	fec42783          	lw	a5,-20(s0)
800026e0:	00f687b3          	add	a5,a3,a5
800026e4:	02e78a23          	sb	a4,52(a5)
800026e8:	fd842703          	lw	a4,-40(s0)
800026ec:	fec42783          	lw	a5,-20(s0)
800026f0:	00f707b3          	add	a5,a4,a5
800026f4:	00078783          	lb	a5,0(a5)
800026f8:	02078063          	beqz	a5,80002718 <prvInitialiseTCBVariables+0x80>
800026fc:	fec42783          	lw	a5,-20(s0)
80002700:	00178793          	addi	a5,a5,1
80002704:	fef42623          	sw	a5,-20(s0)
80002708:	fec42703          	lw	a4,-20(s0)
8000270c:	00f00793          	li	a5,15
80002710:	fae7fce3          	bleu	a4,a5,800026c8 <prvInitialiseTCBVariables+0x30>
80002714:	0080006f          	j	8000271c <prvInitialiseTCBVariables+0x84>
80002718:	00000013          	nop
8000271c:	fdc42783          	lw	a5,-36(s0)
80002720:	040781a3          	sb	zero,67(a5)
80002724:	fd442703          	lw	a4,-44(s0)
80002728:	00400793          	li	a5,4
8000272c:	00e7f663          	bleu	a4,a5,80002738 <prvInitialiseTCBVariables+0xa0>
80002730:	00400793          	li	a5,4
80002734:	fcf42a23          	sw	a5,-44(s0)
80002738:	fdc42783          	lw	a5,-36(s0)
8000273c:	fd442703          	lw	a4,-44(s0)
80002740:	02e7a623          	sw	a4,44(a5)
80002744:	fdc42783          	lw	a5,-36(s0)
80002748:	fd442703          	lw	a4,-44(s0)
8000274c:	04e7a823          	sw	a4,80(a5)
80002750:	fdc42783          	lw	a5,-36(s0)
80002754:	0407aa23          	sw	zero,84(a5)
80002758:	fdc42783          	lw	a5,-36(s0)
8000275c:	00478793          	addi	a5,a5,4
80002760:	00078513          	mv	a0,a5
80002764:	c1cff0ef          	jal	ra,80001b80 <vListInitialiseItem>
80002768:	fdc42783          	lw	a5,-36(s0)
8000276c:	01878793          	addi	a5,a5,24
80002770:	00078513          	mv	a0,a5
80002774:	c0cff0ef          	jal	ra,80001b80 <vListInitialiseItem>
80002778:	fdc42783          	lw	a5,-36(s0)
8000277c:	fdc42703          	lw	a4,-36(s0)
80002780:	00e7a823          	sw	a4,16(a5)
80002784:	00500713          	li	a4,5
80002788:	fd442783          	lw	a5,-44(s0)
8000278c:	40f70733          	sub	a4,a4,a5
80002790:	fdc42783          	lw	a5,-36(s0)
80002794:	00e7ac23          	sw	a4,24(a5)
80002798:	fdc42783          	lw	a5,-36(s0)
8000279c:	fdc42703          	lw	a4,-36(s0)
800027a0:	02e7a223          	sw	a4,36(a5)
800027a4:	fdc42783          	lw	a5,-36(s0)
800027a8:	0407a223          	sw	zero,68(a5)
800027ac:	fdc42783          	lw	a5,-36(s0)
800027b0:	0407ac23          	sw	zero,88(a5)
800027b4:	fdc42783          	lw	a5,-36(s0)
800027b8:	0407ae23          	sw	zero,92(a5)
800027bc:	00000013          	nop
800027c0:	03c12083          	lw	ra,60(sp)
800027c4:	03812403          	lw	s0,56(sp)
800027c8:	04010113          	addi	sp,sp,64
800027cc:	00008067          	ret

800027d0 <prvInitialiseTaskLists>:
800027d0:	fe010113          	addi	sp,sp,-32
800027d4:	00112e23          	sw	ra,28(sp)
800027d8:	00812c23          	sw	s0,24(sp)
800027dc:	02010413          	addi	s0,sp,32
800027e0:	fe042623          	sw	zero,-20(s0)
800027e4:	0380006f          	j	8000281c <prvInitialiseTaskLists+0x4c>
800027e8:	fec42703          	lw	a4,-20(s0)
800027ec:	00070793          	mv	a5,a4
800027f0:	00279793          	slli	a5,a5,0x2
800027f4:	00e787b3          	add	a5,a5,a4
800027f8:	00279793          	slli	a5,a5,0x2
800027fc:	8001e737          	lui	a4,0x8001e
80002800:	af070713          	addi	a4,a4,-1296 # 8001daf0 <__stack_top+0xfffdff20>
80002804:	00e787b3          	add	a5,a5,a4
80002808:	00078513          	mv	a0,a5
8000280c:	b10ff0ef          	jal	ra,80001b1c <vListInitialise>
80002810:	fec42783          	lw	a5,-20(s0)
80002814:	00178793          	addi	a5,a5,1
80002818:	fef42623          	sw	a5,-20(s0)
8000281c:	fec42703          	lw	a4,-20(s0)
80002820:	00400793          	li	a5,4
80002824:	fce7f2e3          	bleu	a4,a5,800027e8 <prvInitialiseTaskLists+0x18>
80002828:	8001e7b7          	lui	a5,0x8001e
8000282c:	b5478513          	addi	a0,a5,-1196 # 8001db54 <__stack_top+0xfffdff84>
80002830:	aecff0ef          	jal	ra,80001b1c <vListInitialise>
80002834:	8001e7b7          	lui	a5,0x8001e
80002838:	b6878513          	addi	a0,a5,-1176 # 8001db68 <__stack_top+0xfffdff98>
8000283c:	ae0ff0ef          	jal	ra,80001b1c <vListInitialise>
80002840:	8001e7b7          	lui	a5,0x8001e
80002844:	b7c78513          	addi	a0,a5,-1156 # 8001db7c <__stack_top+0xfffdffac>
80002848:	ad4ff0ef          	jal	ra,80001b1c <vListInitialise>
8000284c:	8001e7b7          	lui	a5,0x8001e
80002850:	b9078513          	addi	a0,a5,-1136 # 8001db90 <__stack_top+0xfffdffc0>
80002854:	ac8ff0ef          	jal	ra,80001b1c <vListInitialise>
80002858:	8001e7b7          	lui	a5,0x8001e
8000285c:	ba478513          	addi	a0,a5,-1116 # 8001dba4 <__stack_top+0xfffdffd4>
80002860:	abcff0ef          	jal	ra,80001b1c <vListInitialise>
80002864:	8001e737          	lui	a4,0x8001e
80002868:	b5470713          	addi	a4,a4,-1196 # 8001db54 <__stack_top+0xfffdff84>
8000286c:	92e1a823          	sw	a4,-1744(gp) # 80004ab0 <pxDelayedTaskList>
80002870:	8001e737          	lui	a4,0x8001e
80002874:	b6870713          	addi	a4,a4,-1176 # 8001db68 <__stack_top+0xfffdff98>
80002878:	92e1aa23          	sw	a4,-1740(gp) # 80004ab4 <pxOverflowDelayedTaskList>
8000287c:	00000013          	nop
80002880:	01c12083          	lw	ra,28(sp)
80002884:	01812403          	lw	s0,24(sp)
80002888:	02010113          	addi	sp,sp,32
8000288c:	00008067          	ret

80002890 <prvCheckTasksWaitingTermination>:
80002890:	fe010113          	addi	sp,sp,-32
80002894:	00112e23          	sw	ra,28(sp)
80002898:	00812c23          	sw	s0,24(sp)
8000289c:	02010413          	addi	s0,sp,32
800028a0:	0740006f          	j	80002914 <prvCheckTasksWaitingTermination+0x84>
800028a4:	961ff0ef          	jal	ra,80002204 <vTaskSuspendAll>
800028a8:	8001e7b7          	lui	a5,0x8001e
800028ac:	b907a783          	lw	a5,-1136(a5) # 8001db90 <__stack_top+0xfffdffc0>
800028b0:	0017b793          	seqz	a5,a5
800028b4:	0ff7f793          	andi	a5,a5,255
800028b8:	fef42623          	sw	a5,-20(s0)
800028bc:	971ff0ef          	jal	ra,8000222c <xTaskResumeAll>
800028c0:	fec42783          	lw	a5,-20(s0)
800028c4:	04079863          	bnez	a5,80002914 <prvCheckTasksWaitingTermination+0x84>
800028c8:	d75fe0ef          	jal	ra,8000163c <vPortEnterCritical>
800028cc:	8001e7b7          	lui	a5,0x8001e
800028d0:	b9078793          	addi	a5,a5,-1136 # 8001db90 <__stack_top+0xfffdffc0>
800028d4:	00c7a783          	lw	a5,12(a5)
800028d8:	00c7a783          	lw	a5,12(a5)
800028dc:	fef42423          	sw	a5,-24(s0)
800028e0:	fe842783          	lw	a5,-24(s0)
800028e4:	00478793          	addi	a5,a5,4
800028e8:	00078513          	mv	a0,a5
800028ec:	c18ff0ef          	jal	ra,80001d04 <uxListRemove>
800028f0:	93c1a783          	lw	a5,-1732(gp) # 80004abc <uxCurrentNumberOfTasks>
800028f4:	fff78713          	addi	a4,a5,-1
800028f8:	92e1ae23          	sw	a4,-1732(gp) # 80004abc <uxCurrentNumberOfTasks>
800028fc:	9381a783          	lw	a5,-1736(gp) # 80004ab8 <uxTasksDeleted>
80002900:	fff78713          	addi	a4,a5,-1
80002904:	92e1ac23          	sw	a4,-1736(gp) # 80004ab8 <uxTasksDeleted>
80002908:	d69fe0ef          	jal	ra,80001670 <vPortExitCritical>
8000290c:	fe842503          	lw	a0,-24(s0)
80002910:	168000ef          	jal	ra,80002a78 <prvDeleteTCB>
80002914:	9381a783          	lw	a5,-1736(gp) # 80004ab8 <uxTasksDeleted>
80002918:	f80796e3          	bnez	a5,800028a4 <prvCheckTasksWaitingTermination+0x14>
8000291c:	00000013          	nop
80002920:	01c12083          	lw	ra,28(sp)
80002924:	01812403          	lw	s0,24(sp)
80002928:	02010113          	addi	sp,sp,32
8000292c:	00008067          	ret

80002930 <prvAddCurrentTaskToDelayedList>:
80002930:	fe010113          	addi	sp,sp,-32
80002934:	00112e23          	sw	ra,28(sp)
80002938:	00812c23          	sw	s0,24(sp)
8000293c:	02010413          	addi	s0,sp,32
80002940:	fea42623          	sw	a0,-20(s0)
80002944:	92c1a783          	lw	a5,-1748(gp) # 80004aac <pxCurrentTCB>
80002948:	fec42703          	lw	a4,-20(s0)
8000294c:	00e7a223          	sw	a4,4(a5)
80002950:	9401a783          	lw	a5,-1728(gp) # 80004ac0 <xTickCount>
80002954:	fec42703          	lw	a4,-20(s0)
80002958:	02f77063          	bleu	a5,a4,80002978 <prvAddCurrentTaskToDelayedList+0x48>
8000295c:	9341a703          	lw	a4,-1740(gp) # 80004ab4 <pxOverflowDelayedTaskList>
80002960:	92c1a783          	lw	a5,-1748(gp) # 80004aac <pxCurrentTCB>
80002964:	00478793          	addi	a5,a5,4
80002968:	00078593          	mv	a1,a5
8000296c:	00070513          	mv	a0,a4
80002970:	ac0ff0ef          	jal	ra,80001c30 <vListInsert>
80002974:	0300006f          	j	800029a4 <prvAddCurrentTaskToDelayedList+0x74>
80002978:	9301a703          	lw	a4,-1744(gp) # 80004ab0 <pxDelayedTaskList>
8000297c:	92c1a783          	lw	a5,-1748(gp) # 80004aac <pxCurrentTCB>
80002980:	00478793          	addi	a5,a5,4
80002984:	00078593          	mv	a1,a5
80002988:	00070513          	mv	a0,a4
8000298c:	aa4ff0ef          	jal	ra,80001c30 <vListInsert>
80002990:	95c1a783          	lw	a5,-1700(gp) # 80004adc <xNextTaskUnblockTime>
80002994:	fec42703          	lw	a4,-20(s0)
80002998:	00f77663          	bleu	a5,a4,800029a4 <prvAddCurrentTaskToDelayedList+0x74>
8000299c:	fec42703          	lw	a4,-20(s0)
800029a0:	94e1ae23          	sw	a4,-1700(gp) # 80004adc <xNextTaskUnblockTime>
800029a4:	00000013          	nop
800029a8:	01c12083          	lw	ra,28(sp)
800029ac:	01812403          	lw	s0,24(sp)
800029b0:	02010113          	addi	sp,sp,32
800029b4:	00008067          	ret

800029b8 <prvAllocateTCBAndStack>:
800029b8:	fd010113          	addi	sp,sp,-48
800029bc:	02112623          	sw	ra,44(sp)
800029c0:	02812423          	sw	s0,40(sp)
800029c4:	03010413          	addi	s0,sp,48
800029c8:	00050793          	mv	a5,a0
800029cc:	fcb42c23          	sw	a1,-40(s0)
800029d0:	fcf41f23          	sh	a5,-34(s0)
800029d4:	fd842783          	lw	a5,-40(s0)
800029d8:	00079e63          	bnez	a5,800029f4 <prvAllocateTCBAndStack+0x3c>
800029dc:	fde45783          	lhu	a5,-34(s0)
800029e0:	00279793          	slli	a5,a5,0x2
800029e4:	00078513          	mv	a0,a5
800029e8:	8edfe0ef          	jal	ra,800012d4 <pvPortMalloc>
800029ec:	00050793          	mv	a5,a0
800029f0:	0080006f          	j	800029f8 <prvAllocateTCBAndStack+0x40>
800029f4:	fd842783          	lw	a5,-40(s0)
800029f8:	fef42423          	sw	a5,-24(s0)
800029fc:	fe842783          	lw	a5,-24(s0)
80002a00:	02078a63          	beqz	a5,80002a34 <prvAllocateTCBAndStack+0x7c>
80002a04:	06000513          	li	a0,96
80002a08:	8cdfe0ef          	jal	ra,800012d4 <pvPortMalloc>
80002a0c:	fea42623          	sw	a0,-20(s0)
80002a10:	fec42783          	lw	a5,-20(s0)
80002a14:	00078a63          	beqz	a5,80002a28 <prvAllocateTCBAndStack+0x70>
80002a18:	fec42783          	lw	a5,-20(s0)
80002a1c:	fe842703          	lw	a4,-24(s0)
80002a20:	02e7a823          	sw	a4,48(a5)
80002a24:	0140006f          	j	80002a38 <prvAllocateTCBAndStack+0x80>
80002a28:	fe842503          	lw	a0,-24(s0)
80002a2c:	a85fe0ef          	jal	ra,800014b0 <vPortFree>
80002a30:	0080006f          	j	80002a38 <prvAllocateTCBAndStack+0x80>
80002a34:	fe042623          	sw	zero,-20(s0)
80002a38:	fec42783          	lw	a5,-20(s0)
80002a3c:	02078263          	beqz	a5,80002a60 <prvAllocateTCBAndStack+0xa8>
80002a40:	fec42783          	lw	a5,-20(s0)
80002a44:	0307a703          	lw	a4,48(a5)
80002a48:	fde45783          	lhu	a5,-34(s0)
80002a4c:	00279793          	slli	a5,a5,0x2
80002a50:	00078613          	mv	a2,a5
80002a54:	0a500593          	li	a1,165
80002a58:	00070513          	mv	a0,a4
80002a5c:	b40ff0ef          	jal	ra,80001d9c <memset>
80002a60:	fec42783          	lw	a5,-20(s0)
80002a64:	00078513          	mv	a0,a5
80002a68:	02c12083          	lw	ra,44(sp)
80002a6c:	02812403          	lw	s0,40(sp)
80002a70:	03010113          	addi	sp,sp,48
80002a74:	00008067          	ret

80002a78 <prvDeleteTCB>:
80002a78:	fe010113          	addi	sp,sp,-32
80002a7c:	00112e23          	sw	ra,28(sp)
80002a80:	00812c23          	sw	s0,24(sp)
80002a84:	02010413          	addi	s0,sp,32
80002a88:	fea42623          	sw	a0,-20(s0)
80002a8c:	fec42783          	lw	a5,-20(s0)
80002a90:	0307a783          	lw	a5,48(a5)
80002a94:	00078513          	mv	a0,a5
80002a98:	a19fe0ef          	jal	ra,800014b0 <vPortFree>
80002a9c:	fec42503          	lw	a0,-20(s0)
80002aa0:	a11fe0ef          	jal	ra,800014b0 <vPortFree>
80002aa4:	00000013          	nop
80002aa8:	01c12083          	lw	ra,28(sp)
80002aac:	01812403          	lw	s0,24(sp)
80002ab0:	02010113          	addi	sp,sp,32
80002ab4:	00008067          	ret

80002ab8 <prvResetNextTaskUnblockTime>:
80002ab8:	fe010113          	addi	sp,sp,-32
80002abc:	00812e23          	sw	s0,28(sp)
80002ac0:	02010413          	addi	s0,sp,32
80002ac4:	9301a783          	lw	a5,-1744(gp) # 80004ab0 <pxDelayedTaskList>
80002ac8:	0007a783          	lw	a5,0(a5)
80002acc:	00079663          	bnez	a5,80002ad8 <prvResetNextTaskUnblockTime+0x20>
80002ad0:	00100793          	li	a5,1
80002ad4:	0080006f          	j	80002adc <prvResetNextTaskUnblockTime+0x24>
80002ad8:	00000793          	li	a5,0
80002adc:	00078863          	beqz	a5,80002aec <prvResetNextTaskUnblockTime+0x34>
80002ae0:	fff00713          	li	a4,-1
80002ae4:	94e1ae23          	sw	a4,-1700(gp) # 80004adc <xNextTaskUnblockTime>
80002ae8:	0200006f          	j	80002b08 <prvResetNextTaskUnblockTime+0x50>
80002aec:	9301a783          	lw	a5,-1744(gp) # 80004ab0 <pxDelayedTaskList>
80002af0:	00c7a783          	lw	a5,12(a5)
80002af4:	00c7a783          	lw	a5,12(a5)
80002af8:	fef42623          	sw	a5,-20(s0)
80002afc:	fec42783          	lw	a5,-20(s0)
80002b00:	0047a703          	lw	a4,4(a5)
80002b04:	94e1ae23          	sw	a4,-1700(gp) # 80004adc <xNextTaskUnblockTime>
80002b08:	00000013          	nop
80002b0c:	01c12403          	lw	s0,28(sp)
80002b10:	02010113          	addi	sp,sp,32
80002b14:	00008067          	ret

80002b18 <PLIC_init>:
80002b18:	fe010113          	addi	sp,sp,-32
80002b1c:	00812e23          	sw	s0,28(sp)
80002b20:	02010413          	addi	s0,sp,32
80002b24:	f14027f3          	csrr	a5,mhartid
80002b28:	fef42423          	sw	a5,-24(s0)
80002b2c:	fe842783          	lw	a5,-24(s0)
80002b30:	fef42223          	sw	a5,-28(s0)
80002b34:	fe042623          	sw	zero,-20(s0)
80002b38:	03c0006f          	j	80002b74 <PLIC_init+0x5c>
80002b3c:	40000737          	lui	a4,0x40000
80002b40:	fe442783          	lw	a5,-28(s0)
80002b44:	00579693          	slli	a3,a5,0x5
80002b48:	fec42783          	lw	a5,-20(s0)
80002b4c:	00f686b3          	add	a3,a3,a5
80002b50:	000017b7          	lui	a5,0x1
80002b54:	80078793          	addi	a5,a5,-2048 # 800 <HEAP_SIZE-0xf800>
80002b58:	00f687b3          	add	a5,a3,a5
80002b5c:	00279793          	slli	a5,a5,0x2
80002b60:	00f707b3          	add	a5,a4,a5
80002b64:	0007a023          	sw	zero,0(a5)
80002b68:	fec42783          	lw	a5,-20(s0)
80002b6c:	00178793          	addi	a5,a5,1
80002b70:	fef42623          	sw	a5,-20(s0)
80002b74:	fec42783          	lw	a5,-20(s0)
80002b78:	fc0782e3          	beqz	a5,80002b3c <PLIC_init+0x24>
80002b7c:	fe042623          	sw	zero,-20(s0)
80002b80:	0240006f          	j	80002ba4 <PLIC_init+0x8c>
80002b84:	40000737          	lui	a4,0x40000
80002b88:	fec42783          	lw	a5,-20(s0)
80002b8c:	00279793          	slli	a5,a5,0x2
80002b90:	00f707b3          	add	a5,a4,a5
80002b94:	0007a023          	sw	zero,0(a5)
80002b98:	fec42783          	lw	a5,-20(s0)
80002b9c:	00178793          	addi	a5,a5,1
80002ba0:	fef42623          	sw	a5,-20(s0)
80002ba4:	fec42703          	lw	a4,-20(s0)
80002ba8:	01e00793          	li	a5,30
80002bac:	fce7fce3          	bleu	a4,a5,80002b84 <PLIC_init+0x6c>
80002bb0:	40000737          	lui	a4,0x40000
80002bb4:	fe442783          	lw	a5,-28(s0)
80002bb8:	20078793          	addi	a5,a5,512
80002bbc:	00c79793          	slli	a5,a5,0xc
80002bc0:	00f707b3          	add	a5,a4,a5
80002bc4:	0007a023          	sw	zero,0(a5)
80002bc8:	000017b7          	lui	a5,0x1
80002bcc:	80078793          	addi	a5,a5,-2048 # 800 <HEAP_SIZE-0xf800>
80002bd0:	3047a7f3          	csrrs	a5,mie,a5
80002bd4:	fef42023          	sw	a5,-32(s0)
80002bd8:	00000013          	nop
80002bdc:	01c12403          	lw	s0,28(sp)
80002be0:	02010113          	addi	sp,sp,32
80002be4:	00008067          	ret

80002be8 <main>:
80002be8:	ff010113          	addi	sp,sp,-16
80002bec:	00112623          	sw	ra,12(sp)
80002bf0:	00812423          	sw	s0,8(sp)
80002bf4:	01010413          	addi	s0,sp,16
80002bf8:	f21ff0ef          	jal	ra,80002b18 <PLIC_init>
80002bfc:	00100693          	li	a3,1
80002c00:	02c00613          	li	a2,44
80002c04:	700015b7          	lui	a1,0x70001
80002c08:	8001e7b7          	lui	a5,0x8001e
80002c0c:	bbc78513          	addi	a0,a5,-1092 # 8001dbbc <__stack_top+0xfffdffec>
80002c10:	b18fe0ef          	jal	ra,80000f28 <UART_init>
80002c14:	800057b7          	lui	a5,0x80005
80002c18:	81878593          	addi	a1,a5,-2024 # 80004818 <__stack_top+0xfffc6c48>
80002c1c:	8001e7b7          	lui	a5,0x8001e
80002c20:	bbc78513          	addi	a0,a5,-1092 # 8001dbbc <__stack_top+0xfffdffec>
80002c24:	e00fe0ef          	jal	ra,80001224 <UART_polled_tx_string>
80002c28:	800057b7          	lui	a5,0x80005
80002c2c:	85c78593          	addi	a1,a5,-1956 # 8000485c <__stack_top+0xfffc6c8c>
80002c30:	8001e7b7          	lui	a5,0x8001e
80002c34:	bbc78513          	addi	a0,a5,-1092 # 8001dbbc <__stack_top+0xfffdffec>
80002c38:	decfe0ef          	jal	ra,80001224 <UART_polled_tx_string>
80002c3c:	00000893          	li	a7,0
80002c40:	00000813          	li	a6,0
80002c44:	00000793          	li	a5,0
80002c48:	00200713          	li	a4,2
80002c4c:	00000693          	li	a3,0
80002c50:	3e800613          	li	a2,1000
80002c54:	800055b7          	lui	a1,0x80005
80002c58:	8a458593          	addi	a1,a1,-1884 # 800048a4 <__stack_top+0xfffc6cd4>
80002c5c:	80003537          	lui	a0,0x80003
80002c60:	ce050513          	addi	a0,a0,-800 # 80002ce0 <__stack_top+0xfffc5110>
80002c64:	a70ff0ef          	jal	ra,80001ed4 <xTaskGenericCreate>
80002c68:	00000893          	li	a7,0
80002c6c:	00000813          	li	a6,0
80002c70:	00000793          	li	a5,0
80002c74:	00200713          	li	a4,2
80002c78:	00000693          	li	a3,0
80002c7c:	3e800613          	li	a2,1000
80002c80:	800055b7          	lui	a1,0x80005
80002c84:	8ac58593          	addi	a1,a1,-1876 # 800048ac <__stack_top+0xfffc6cdc>
80002c88:	80003537          	lui	a0,0x80003
80002c8c:	d2050513          	addi	a0,a0,-736 # 80002d20 <__stack_top+0xfffc5150>
80002c90:	a44ff0ef          	jal	ra,80001ed4 <xTaskGenericCreate>
80002c94:	ce0ff0ef          	jal	ra,80002174 <vTaskStartScheduler>
80002c98:	00000793          	li	a5,0
80002c9c:	00078513          	mv	a0,a5
80002ca0:	00c12083          	lw	ra,12(sp)
80002ca4:	00812403          	lw	s0,8(sp)
80002ca8:	01010113          	addi	sp,sp,16
80002cac:	00008067          	ret

80002cb0 <vApplicationMallocFailedHook>:
80002cb0:	ff010113          	addi	sp,sp,-16
80002cb4:	00812623          	sw	s0,12(sp)
80002cb8:	01010413          	addi	s0,sp,16
80002cbc:	30047073          	csrci	mstatus,8
80002cc0:	0000006f          	j	80002cc0 <vApplicationMallocFailedHook+0x10>

80002cc4 <vApplicationIdleHook>:
80002cc4:	ff010113          	addi	sp,sp,-16
80002cc8:	00812623          	sw	s0,12(sp)
80002ccc:	01010413          	addi	s0,sp,16
80002cd0:	00000013          	nop
80002cd4:	00c12403          	lw	s0,12(sp)
80002cd8:	01010113          	addi	sp,sp,16
80002cdc:	00008067          	ret

80002ce0 <vUartTestTask1>:
80002ce0:	fe010113          	addi	sp,sp,-32
80002ce4:	00112e23          	sw	ra,28(sp)
80002ce8:	00812c23          	sw	s0,24(sp)
80002cec:	02010413          	addi	s0,sp,32
80002cf0:	fea42623          	sw	a0,-20(s0)
80002cf4:	800057b7          	lui	a5,0x80005
80002cf8:	8b478513          	addi	a0,a5,-1868 # 800048b4 <__stack_top+0xfffc6ce4>
80002cfc:	058000ef          	jal	ra,80002d54 <iprintf>
80002d00:	800057b7          	lui	a5,0x80005
80002d04:	8bc78593          	addi	a1,a5,-1860 # 800048bc <__stack_top+0xfffc6cec>
80002d08:	8001e7b7          	lui	a5,0x8001e
80002d0c:	bbc78513          	addi	a0,a5,-1092 # 8001dbbc <__stack_top+0xfffdffec>
80002d10:	d14fe0ef          	jal	ra,80001224 <UART_polled_tx_string>
80002d14:	00a00513          	li	a0,10
80002d18:	bd8ff0ef          	jal	ra,800020f0 <vTaskDelay>
80002d1c:	fd9ff06f          	j	80002cf4 <vUartTestTask1+0x14>

80002d20 <vUartTestTask2>:
80002d20:	fe010113          	addi	sp,sp,-32
80002d24:	00112e23          	sw	ra,28(sp)
80002d28:	00812c23          	sw	s0,24(sp)
80002d2c:	02010413          	addi	s0,sp,32
80002d30:	fea42623          	sw	a0,-20(s0)
80002d34:	800057b7          	lui	a5,0x80005
80002d38:	8c878593          	addi	a1,a5,-1848 # 800048c8 <__stack_top+0xfffc6cf8>
80002d3c:	8001e7b7          	lui	a5,0x8001e
80002d40:	bbc78513          	addi	a0,a5,-1092 # 8001dbbc <__stack_top+0xfffdffec>
80002d44:	ce0fe0ef          	jal	ra,80001224 <UART_polled_tx_string>
80002d48:	00500513          	li	a0,5
80002d4c:	ba4ff0ef          	jal	ra,800020f0 <vTaskDelay>
80002d50:	fe5ff06f          	j	80002d34 <vUartTestTask2+0x14>

80002d54 <iprintf>:
80002d54:	fc010113          	addi	sp,sp,-64
80002d58:	02f12a23          	sw	a5,52(sp)
80002d5c:	02b12223          	sw	a1,36(sp)
80002d60:	02c12423          	sw	a2,40(sp)
80002d64:	02d12623          	sw	a3,44(sp)
80002d68:	02e12823          	sw	a4,48(sp)
80002d6c:	03012c23          	sw	a6,56(sp)
80002d70:	03112e23          	sw	a7,60(sp)
80002d74:	81418793          	addi	a5,gp,-2028 # 80004994 <_impure_ptr>
80002d78:	00812c23          	sw	s0,24(sp)
80002d7c:	0007a403          	lw	s0,0(a5)
80002d80:	00912a23          	sw	s1,20(sp)
80002d84:	00112e23          	sw	ra,28(sp)
80002d88:	00050493          	mv	s1,a0
80002d8c:	00040a63          	beqz	s0,80002da0 <iprintf+0x4c>
80002d90:	01842783          	lw	a5,24(s0)
80002d94:	00079663          	bnez	a5,80002da0 <iprintf+0x4c>
80002d98:	00040513          	mv	a0,s0
80002d9c:	1a0000ef          	jal	ra,80002f3c <__sinit>
80002da0:	00842583          	lw	a1,8(s0)
80002da4:	02410693          	addi	a3,sp,36
80002da8:	00048613          	mv	a2,s1
80002dac:	00040513          	mv	a0,s0
80002db0:	00d12623          	sw	a3,12(sp)
80002db4:	5dc000ef          	jal	ra,80003390 <_vfiprintf_r>
80002db8:	01c12083          	lw	ra,28(sp)
80002dbc:	01812403          	lw	s0,24(sp)
80002dc0:	01412483          	lw	s1,20(sp)
80002dc4:	04010113          	addi	sp,sp,64
80002dc8:	00008067          	ret

80002dcc <isatty>:
80002dcc:	db1fd06f          	j	80000b7c <_isatty>

80002dd0 <write>:
80002dd0:	81418793          	addi	a5,gp,-2028 # 80004994 <_impure_ptr>
80002dd4:	00060693          	mv	a3,a2
80002dd8:	00058613          	mv	a2,a1
80002ddc:	00050593          	mv	a1,a0
80002de0:	0007a503          	lw	a0,0(a5)
80002de4:	0040006f          	j	80002de8 <_write_r>

80002de8 <_write_r>:
80002de8:	ff010113          	addi	sp,sp,-16
80002dec:	00812423          	sw	s0,8(sp)
80002df0:	00050413          	mv	s0,a0
80002df4:	00058513          	mv	a0,a1
80002df8:	00060593          	mv	a1,a2
80002dfc:	00068613          	mv	a2,a3
80002e00:	0001b797          	auipc	a5,0x1b
80002e04:	da07ac23          	sw	zero,-584(a5) # 8001dbb8 <errno>
80002e08:	00112623          	sw	ra,12(sp)
80002e0c:	f5dfd0ef          	jal	ra,80000d68 <_write>
80002e10:	fff00793          	li	a5,-1
80002e14:	00f51c63          	bne	a0,a5,80002e2c <_write_r+0x44>
80002e18:	0001b797          	auipc	a5,0x1b
80002e1c:	da078793          	addi	a5,a5,-608 # 8001dbb8 <errno>
80002e20:	0007a783          	lw	a5,0(a5)
80002e24:	00078463          	beqz	a5,80002e2c <_write_r+0x44>
80002e28:	00f42023          	sw	a5,0(s0)
80002e2c:	00c12083          	lw	ra,12(sp)
80002e30:	00812403          	lw	s0,8(sp)
80002e34:	01010113          	addi	sp,sp,16
80002e38:	00008067          	ret

80002e3c <std>:
80002e3c:	ff010113          	addi	sp,sp,-16
80002e40:	00812423          	sw	s0,8(sp)
80002e44:	00112623          	sw	ra,12(sp)
80002e48:	00050413          	mv	s0,a0
80002e4c:	00b51623          	sh	a1,12(a0)
80002e50:	00c51723          	sh	a2,14(a0)
80002e54:	00052023          	sw	zero,0(a0)
80002e58:	00052223          	sw	zero,4(a0)
80002e5c:	00052423          	sw	zero,8(a0)
80002e60:	06052223          	sw	zero,100(a0)
80002e64:	00052823          	sw	zero,16(a0)
80002e68:	00052a23          	sw	zero,20(a0)
80002e6c:	00052c23          	sw	zero,24(a0)
80002e70:	00800613          	li	a2,8
80002e74:	00000593          	li	a1,0
80002e78:	05c50513          	addi	a0,a0,92
80002e7c:	f21fe0ef          	jal	ra,80001d9c <memset>
80002e80:	00001797          	auipc	a5,0x1
80002e84:	ea078793          	addi	a5,a5,-352 # 80003d20 <__sread>
80002e88:	02f42223          	sw	a5,36(s0)
80002e8c:	00001797          	auipc	a5,0x1
80002e90:	ee478793          	addi	a5,a5,-284 # 80003d70 <__swrite>
80002e94:	02f42423          	sw	a5,40(s0)
80002e98:	00001797          	auipc	a5,0x1
80002e9c:	f5c78793          	addi	a5,a5,-164 # 80003df4 <__sseek>
80002ea0:	02f42623          	sw	a5,44(s0)
80002ea4:	00001797          	auipc	a5,0x1
80002ea8:	fa878793          	addi	a5,a5,-88 # 80003e4c <__sclose>
80002eac:	02842023          	sw	s0,32(s0)
80002eb0:	02f42823          	sw	a5,48(s0)
80002eb4:	00c12083          	lw	ra,12(sp)
80002eb8:	00812403          	lw	s0,8(sp)
80002ebc:	01010113          	addi	sp,sp,16
80002ec0:	00008067          	ret

80002ec4 <_cleanup_r>:
80002ec4:	00001597          	auipc	a1,0x1
80002ec8:	46c58593          	addi	a1,a1,1132 # 80004330 <_fflush_r>
80002ecc:	2140006f          	j	800030e0 <_fwalk_reent>

80002ed0 <__sfmoreglue>:
80002ed0:	ff010113          	addi	sp,sp,-16
80002ed4:	00912223          	sw	s1,4(sp)
80002ed8:	06800613          	li	a2,104
80002edc:	fff58493          	addi	s1,a1,-1
80002ee0:	02c484b3          	mul	s1,s1,a2
80002ee4:	01212023          	sw	s2,0(sp)
80002ee8:	00058913          	mv	s2,a1
80002eec:	00812423          	sw	s0,8(sp)
80002ef0:	00112623          	sw	ra,12(sp)
80002ef4:	07448593          	addi	a1,s1,116
80002ef8:	29c000ef          	jal	ra,80003194 <_malloc_r>
80002efc:	00050413          	mv	s0,a0
80002f00:	02050063          	beqz	a0,80002f20 <__sfmoreglue+0x50>
80002f04:	00052023          	sw	zero,0(a0)
80002f08:	01252223          	sw	s2,4(a0)
80002f0c:	00c50513          	addi	a0,a0,12
80002f10:	00a42423          	sw	a0,8(s0)
80002f14:	06848613          	addi	a2,s1,104
80002f18:	00000593          	li	a1,0
80002f1c:	e81fe0ef          	jal	ra,80001d9c <memset>
80002f20:	00040513          	mv	a0,s0
80002f24:	00c12083          	lw	ra,12(sp)
80002f28:	00812403          	lw	s0,8(sp)
80002f2c:	00412483          	lw	s1,4(sp)
80002f30:	00012903          	lw	s2,0(sp)
80002f34:	01010113          	addi	sp,sp,16
80002f38:	00008067          	ret

80002f3c <__sinit>:
80002f3c:	01852783          	lw	a5,24(a0)
80002f40:	0a079663          	bnez	a5,80002fec <__sinit+0xb0>
80002f44:	ff010113          	addi	sp,sp,-16
80002f48:	00112623          	sw	ra,12(sp)
80002f4c:	00812423          	sw	s0,8(sp)
80002f50:	00000797          	auipc	a5,0x0
80002f54:	f7478793          	addi	a5,a5,-140 # 80002ec4 <_cleanup_r>
80002f58:	02f52423          	sw	a5,40(a0)
80002f5c:	00002797          	auipc	a5,0x2
80002f60:	a1478793          	addi	a5,a5,-1516 # 80004970 <_global_impure_ptr>
80002f64:	0007a783          	lw	a5,0(a5)
80002f68:	04052423          	sw	zero,72(a0)
80002f6c:	04052623          	sw	zero,76(a0)
80002f70:	04052823          	sw	zero,80(a0)
80002f74:	00f51663          	bne	a0,a5,80002f80 <__sinit+0x44>
80002f78:	00100793          	li	a5,1
80002f7c:	00f52c23          	sw	a5,24(a0)
80002f80:	00050413          	mv	s0,a0
80002f84:	06c000ef          	jal	ra,80002ff0 <__sfp>
80002f88:	00a42223          	sw	a0,4(s0)
80002f8c:	00040513          	mv	a0,s0
80002f90:	060000ef          	jal	ra,80002ff0 <__sfp>
80002f94:	00a42423          	sw	a0,8(s0)
80002f98:	00040513          	mv	a0,s0
80002f9c:	054000ef          	jal	ra,80002ff0 <__sfp>
80002fa0:	00a42623          	sw	a0,12(s0)
80002fa4:	00442503          	lw	a0,4(s0)
80002fa8:	00000613          	li	a2,0
80002fac:	00400593          	li	a1,4
80002fb0:	e8dff0ef          	jal	ra,80002e3c <std>
80002fb4:	00842503          	lw	a0,8(s0)
80002fb8:	00100613          	li	a2,1
80002fbc:	00900593          	li	a1,9
80002fc0:	e7dff0ef          	jal	ra,80002e3c <std>
80002fc4:	00c42503          	lw	a0,12(s0)
80002fc8:	00200613          	li	a2,2
80002fcc:	01200593          	li	a1,18
80002fd0:	e6dff0ef          	jal	ra,80002e3c <std>
80002fd4:	00100793          	li	a5,1
80002fd8:	00f42c23          	sw	a5,24(s0)
80002fdc:	00c12083          	lw	ra,12(sp)
80002fe0:	00812403          	lw	s0,8(sp)
80002fe4:	01010113          	addi	sp,sp,16
80002fe8:	00008067          	ret
80002fec:	00008067          	ret

80002ff0 <__sfp>:
80002ff0:	ff010113          	addi	sp,sp,-16
80002ff4:	00002797          	auipc	a5,0x2
80002ff8:	97c78793          	addi	a5,a5,-1668 # 80004970 <_global_impure_ptr>
80002ffc:	00912223          	sw	s1,4(sp)
80003000:	0007a483          	lw	s1,0(a5)
80003004:	01212023          	sw	s2,0(sp)
80003008:	00112623          	sw	ra,12(sp)
8000300c:	0184a783          	lw	a5,24(s1)
80003010:	00812423          	sw	s0,8(sp)
80003014:	00050913          	mv	s2,a0
80003018:	00079663          	bnez	a5,80003024 <__sfp+0x34>
8000301c:	00048513          	mv	a0,s1
80003020:	f1dff0ef          	jal	ra,80002f3c <__sinit>
80003024:	04848493          	addi	s1,s1,72
80003028:	0084a403          	lw	s0,8(s1)
8000302c:	0044a783          	lw	a5,4(s1)
80003030:	fff78793          	addi	a5,a5,-1
80003034:	0007da63          	bgez	a5,80003048 <__sfp+0x58>
80003038:	0004a783          	lw	a5,0(s1)
8000303c:	08078063          	beqz	a5,800030bc <__sfp+0xcc>
80003040:	0004a483          	lw	s1,0(s1)
80003044:	fe5ff06f          	j	80003028 <__sfp+0x38>
80003048:	00c41703          	lh	a4,12(s0)
8000304c:	06071463          	bnez	a4,800030b4 <__sfp+0xc4>
80003050:	ffff07b7          	lui	a5,0xffff0
80003054:	00178793          	addi	a5,a5,1 # ffff0001 <__stack_top+0x7ffb2431>
80003058:	06042223          	sw	zero,100(s0)
8000305c:	00042023          	sw	zero,0(s0)
80003060:	00042223          	sw	zero,4(s0)
80003064:	00042423          	sw	zero,8(s0)
80003068:	00f42623          	sw	a5,12(s0)
8000306c:	00042823          	sw	zero,16(s0)
80003070:	00042a23          	sw	zero,20(s0)
80003074:	00042c23          	sw	zero,24(s0)
80003078:	00800613          	li	a2,8
8000307c:	00000593          	li	a1,0
80003080:	05c40513          	addi	a0,s0,92
80003084:	d19fe0ef          	jal	ra,80001d9c <memset>
80003088:	02042a23          	sw	zero,52(s0)
8000308c:	02042c23          	sw	zero,56(s0)
80003090:	04042423          	sw	zero,72(s0)
80003094:	04042623          	sw	zero,76(s0)
80003098:	00040513          	mv	a0,s0
8000309c:	00c12083          	lw	ra,12(sp)
800030a0:	00812403          	lw	s0,8(sp)
800030a4:	00412483          	lw	s1,4(sp)
800030a8:	00012903          	lw	s2,0(sp)
800030ac:	01010113          	addi	sp,sp,16
800030b0:	00008067          	ret
800030b4:	06840413          	addi	s0,s0,104
800030b8:	f79ff06f          	j	80003030 <__sfp+0x40>
800030bc:	00400593          	li	a1,4
800030c0:	00090513          	mv	a0,s2
800030c4:	e0dff0ef          	jal	ra,80002ed0 <__sfmoreglue>
800030c8:	00a4a023          	sw	a0,0(s1)
800030cc:	f6051ae3          	bnez	a0,80003040 <__sfp+0x50>
800030d0:	00c00793          	li	a5,12
800030d4:	00f92023          	sw	a5,0(s2)
800030d8:	00000413          	li	s0,0
800030dc:	fbdff06f          	j	80003098 <__sfp+0xa8>

800030e0 <_fwalk_reent>:
800030e0:	fd010113          	addi	sp,sp,-48
800030e4:	02812423          	sw	s0,40(sp)
800030e8:	03212023          	sw	s2,32(sp)
800030ec:	01412c23          	sw	s4,24(sp)
800030f0:	01512a23          	sw	s5,20(sp)
800030f4:	01612823          	sw	s6,16(sp)
800030f8:	01712623          	sw	s7,12(sp)
800030fc:	02112623          	sw	ra,44(sp)
80003100:	02912223          	sw	s1,36(sp)
80003104:	01312e23          	sw	s3,28(sp)
80003108:	00050a13          	mv	s4,a0
8000310c:	00058a93          	mv	s5,a1
80003110:	04850413          	addi	s0,a0,72
80003114:	00000913          	li	s2,0
80003118:	00100b13          	li	s6,1
8000311c:	fff00b93          	li	s7,-1
80003120:	02041a63          	bnez	s0,80003154 <_fwalk_reent+0x74>
80003124:	02c12083          	lw	ra,44(sp)
80003128:	02812403          	lw	s0,40(sp)
8000312c:	00090513          	mv	a0,s2
80003130:	02412483          	lw	s1,36(sp)
80003134:	02012903          	lw	s2,32(sp)
80003138:	01c12983          	lw	s3,28(sp)
8000313c:	01812a03          	lw	s4,24(sp)
80003140:	01412a83          	lw	s5,20(sp)
80003144:	01012b03          	lw	s6,16(sp)
80003148:	00c12b83          	lw	s7,12(sp)
8000314c:	03010113          	addi	sp,sp,48
80003150:	00008067          	ret
80003154:	00842483          	lw	s1,8(s0)
80003158:	00442983          	lw	s3,4(s0)
8000315c:	fff98993          	addi	s3,s3,-1
80003160:	0009d663          	bgez	s3,8000316c <_fwalk_reent+0x8c>
80003164:	00042403          	lw	s0,0(s0)
80003168:	fb9ff06f          	j	80003120 <_fwalk_reent+0x40>
8000316c:	00c4d783          	lhu	a5,12(s1)
80003170:	00fb7e63          	bleu	a5,s6,8000318c <_fwalk_reent+0xac>
80003174:	00e49783          	lh	a5,14(s1)
80003178:	01778a63          	beq	a5,s7,8000318c <_fwalk_reent+0xac>
8000317c:	00048593          	mv	a1,s1
80003180:	000a0513          	mv	a0,s4
80003184:	000a80e7          	jalr	s5
80003188:	00a96933          	or	s2,s2,a0
8000318c:	06848493          	addi	s1,s1,104
80003190:	fcdff06f          	j	8000315c <_fwalk_reent+0x7c>

80003194 <_malloc_r>:
80003194:	fe010113          	addi	sp,sp,-32
80003198:	00912a23          	sw	s1,20(sp)
8000319c:	00358493          	addi	s1,a1,3
800031a0:	ffc4f493          	andi	s1,s1,-4
800031a4:	00112e23          	sw	ra,28(sp)
800031a8:	00812c23          	sw	s0,24(sp)
800031ac:	01212823          	sw	s2,16(sp)
800031b0:	01312623          	sw	s3,12(sp)
800031b4:	00848493          	addi	s1,s1,8
800031b8:	00c00793          	li	a5,12
800031bc:	06f4f463          	bleu	a5,s1,80003224 <_malloc_r+0x90>
800031c0:	00c00493          	li	s1,12
800031c4:	06b4e263          	bltu	s1,a1,80003228 <_malloc_r+0x94>
800031c8:	00050913          	mv	s2,a0
800031cc:	3f8010ef          	jal	ra,800045c4 <__malloc_lock>
800031d0:	96418793          	addi	a5,gp,-1692 # 80004ae4 <__malloc_free_list>
800031d4:	0007a703          	lw	a4,0(a5)
800031d8:	00070413          	mv	s0,a4
800031dc:	06041a63          	bnez	s0,80003250 <_malloc_r+0xbc>
800031e0:	96818793          	addi	a5,gp,-1688 # 80004ae8 <__malloc_sbrk_start>
800031e4:	0007a783          	lw	a5,0(a5)
800031e8:	00079a63          	bnez	a5,800031fc <_malloc_r+0x68>
800031ec:	00000593          	li	a1,0
800031f0:	00090513          	mv	a0,s2
800031f4:	2e1000ef          	jal	ra,80003cd4 <_sbrk_r>
800031f8:	96a1a423          	sw	a0,-1688(gp) # 80004ae8 <__malloc_sbrk_start>
800031fc:	00048593          	mv	a1,s1
80003200:	00090513          	mv	a0,s2
80003204:	2d1000ef          	jal	ra,80003cd4 <_sbrk_r>
80003208:	fff00993          	li	s3,-1
8000320c:	0b351a63          	bne	a0,s3,800032c0 <_malloc_r+0x12c>
80003210:	00c00793          	li	a5,12
80003214:	00f92023          	sw	a5,0(s2)
80003218:	00090513          	mv	a0,s2
8000321c:	3ac010ef          	jal	ra,800045c8 <__malloc_unlock>
80003220:	0100006f          	j	80003230 <_malloc_r+0x9c>
80003224:	fa04d0e3          	bgez	s1,800031c4 <_malloc_r+0x30>
80003228:	00c00793          	li	a5,12
8000322c:	00f52023          	sw	a5,0(a0)
80003230:	00000513          	li	a0,0
80003234:	01c12083          	lw	ra,28(sp)
80003238:	01812403          	lw	s0,24(sp)
8000323c:	01412483          	lw	s1,20(sp)
80003240:	01012903          	lw	s2,16(sp)
80003244:	00c12983          	lw	s3,12(sp)
80003248:	02010113          	addi	sp,sp,32
8000324c:	00008067          	ret
80003250:	00042783          	lw	a5,0(s0)
80003254:	409787b3          	sub	a5,a5,s1
80003258:	0407ce63          	bltz	a5,800032b4 <_malloc_r+0x120>
8000325c:	00b00693          	li	a3,11
80003260:	00f6fa63          	bleu	a5,a3,80003274 <_malloc_r+0xe0>
80003264:	00f42023          	sw	a5,0(s0)
80003268:	00f40433          	add	s0,s0,a5
8000326c:	00942023          	sw	s1,0(s0)
80003270:	0100006f          	j	80003280 <_malloc_r+0xec>
80003274:	00442783          	lw	a5,4(s0)
80003278:	02871a63          	bne	a4,s0,800032ac <_malloc_r+0x118>
8000327c:	96f1a223          	sw	a5,-1692(gp) # 80004ae4 <__malloc_free_list>
80003280:	00090513          	mv	a0,s2
80003284:	344010ef          	jal	ra,800045c8 <__malloc_unlock>
80003288:	00b40513          	addi	a0,s0,11
8000328c:	00440793          	addi	a5,s0,4
80003290:	ff857513          	andi	a0,a0,-8
80003294:	40f50733          	sub	a4,a0,a5
80003298:	f8070ee3          	beqz	a4,80003234 <_malloc_r+0xa0>
8000329c:	00e40433          	add	s0,s0,a4
800032a0:	40a787b3          	sub	a5,a5,a0
800032a4:	00f42023          	sw	a5,0(s0)
800032a8:	f8dff06f          	j	80003234 <_malloc_r+0xa0>
800032ac:	00f72223          	sw	a5,4(a4) # 40000004 <RAM_SIZE+0x3ff80004>
800032b0:	fd1ff06f          	j	80003280 <_malloc_r+0xec>
800032b4:	00040713          	mv	a4,s0
800032b8:	00442403          	lw	s0,4(s0)
800032bc:	f21ff06f          	j	800031dc <_malloc_r+0x48>
800032c0:	00350413          	addi	s0,a0,3
800032c4:	ffc47413          	andi	s0,s0,-4
800032c8:	fa8502e3          	beq	a0,s0,8000326c <_malloc_r+0xd8>
800032cc:	40a405b3          	sub	a1,s0,a0
800032d0:	00090513          	mv	a0,s2
800032d4:	201000ef          	jal	ra,80003cd4 <_sbrk_r>
800032d8:	f9351ae3          	bne	a0,s3,8000326c <_malloc_r+0xd8>
800032dc:	f35ff06f          	j	80003210 <_malloc_r+0x7c>

800032e0 <__sfputc_r>:
800032e0:	00862783          	lw	a5,8(a2)
800032e4:	fff78793          	addi	a5,a5,-1
800032e8:	00f62423          	sw	a5,8(a2)
800032ec:	0007dc63          	bgez	a5,80003304 <__sfputc_r+0x24>
800032f0:	01862703          	lw	a4,24(a2)
800032f4:	00e7c663          	blt	a5,a4,80003300 <__sfputc_r+0x20>
800032f8:	00a00793          	li	a5,10
800032fc:	00f59463          	bne	a1,a5,80003304 <__sfputc_r+0x24>
80003300:	3550006f          	j	80003e54 <__swbuf_r>
80003304:	00062783          	lw	a5,0(a2)
80003308:	00058513          	mv	a0,a1
8000330c:	00178713          	addi	a4,a5,1
80003310:	00e62023          	sw	a4,0(a2)
80003314:	00b78023          	sb	a1,0(a5)
80003318:	00008067          	ret

8000331c <__sfputs_r>:
8000331c:	fe010113          	addi	sp,sp,-32
80003320:	00812c23          	sw	s0,24(sp)
80003324:	00912a23          	sw	s1,20(sp)
80003328:	01212823          	sw	s2,16(sp)
8000332c:	01312623          	sw	s3,12(sp)
80003330:	01412423          	sw	s4,8(sp)
80003334:	00112e23          	sw	ra,28(sp)
80003338:	00050913          	mv	s2,a0
8000333c:	00058993          	mv	s3,a1
80003340:	00060413          	mv	s0,a2
80003344:	00d604b3          	add	s1,a2,a3
80003348:	fff00a13          	li	s4,-1
8000334c:	00941663          	bne	s0,s1,80003358 <__sfputs_r+0x3c>
80003350:	00000513          	li	a0,0
80003354:	01c0006f          	j	80003370 <__sfputs_r+0x54>
80003358:	00044583          	lbu	a1,0(s0)
8000335c:	00098613          	mv	a2,s3
80003360:	00090513          	mv	a0,s2
80003364:	f7dff0ef          	jal	ra,800032e0 <__sfputc_r>
80003368:	00140413          	addi	s0,s0,1
8000336c:	ff4510e3          	bne	a0,s4,8000334c <__sfputs_r+0x30>
80003370:	01c12083          	lw	ra,28(sp)
80003374:	01812403          	lw	s0,24(sp)
80003378:	01412483          	lw	s1,20(sp)
8000337c:	01012903          	lw	s2,16(sp)
80003380:	00c12983          	lw	s3,12(sp)
80003384:	00812a03          	lw	s4,8(sp)
80003388:	02010113          	addi	sp,sp,32
8000338c:	00008067          	ret

80003390 <_vfiprintf_r>:
80003390:	f6010113          	addi	sp,sp,-160
80003394:	08812c23          	sw	s0,152(sp)
80003398:	08912a23          	sw	s1,148(sp)
8000339c:	09212823          	sw	s2,144(sp)
800033a0:	09312623          	sw	s3,140(sp)
800033a4:	08112e23          	sw	ra,156(sp)
800033a8:	09412423          	sw	s4,136(sp)
800033ac:	09512223          	sw	s5,132(sp)
800033b0:	09612023          	sw	s6,128(sp)
800033b4:	07712e23          	sw	s7,124(sp)
800033b8:	07812c23          	sw	s8,120(sp)
800033bc:	07912a23          	sw	s9,116(sp)
800033c0:	00050993          	mv	s3,a0
800033c4:	00058493          	mv	s1,a1
800033c8:	00060913          	mv	s2,a2
800033cc:	00068413          	mv	s0,a3
800033d0:	00050863          	beqz	a0,800033e0 <_vfiprintf_r+0x50>
800033d4:	01852783          	lw	a5,24(a0)
800033d8:	00079463          	bnez	a5,800033e0 <_vfiprintf_r+0x50>
800033dc:	b61ff0ef          	jal	ra,80002f3c <__sinit>
800033e0:	00001797          	auipc	a5,0x1
800033e4:	51478793          	addi	a5,a5,1300 # 800048f4 <__sf_fake_stdin>
800033e8:	12f49263          	bne	s1,a5,8000350c <_vfiprintf_r+0x17c>
800033ec:	0049a483          	lw	s1,4(s3)
800033f0:	00c4d783          	lhu	a5,12(s1)
800033f4:	0087f793          	andi	a5,a5,8
800033f8:	12078e63          	beqz	a5,80003534 <_vfiprintf_r+0x1a4>
800033fc:	0104a783          	lw	a5,16(s1)
80003400:	12078a63          	beqz	a5,80003534 <_vfiprintf_r+0x1a4>
80003404:	02000793          	li	a5,32
80003408:	02f104a3          	sb	a5,41(sp)
8000340c:	03000793          	li	a5,48
80003410:	02012223          	sw	zero,36(sp)
80003414:	02f10523          	sb	a5,42(sp)
80003418:	00812623          	sw	s0,12(sp)
8000341c:	02500b93          	li	s7,37
80003420:	00001a97          	auipc	s5,0x1
80003424:	514a8a93          	addi	s5,s5,1300 # 80004934 <__sf_fake_stdout+0x20>
80003428:	00100c13          	li	s8,1
8000342c:	00a00b13          	li	s6,10
80003430:	00090413          	mv	s0,s2
80003434:	00044783          	lbu	a5,0(s0)
80003438:	00078463          	beqz	a5,80003440 <_vfiprintf_r+0xb0>
8000343c:	15779063          	bne	a5,s7,8000357c <_vfiprintf_r+0x1ec>
80003440:	41240cb3          	sub	s9,s0,s2
80003444:	020c8663          	beqz	s9,80003470 <_vfiprintf_r+0xe0>
80003448:	000c8693          	mv	a3,s9
8000344c:	00090613          	mv	a2,s2
80003450:	00048593          	mv	a1,s1
80003454:	00098513          	mv	a0,s3
80003458:	ec5ff0ef          	jal	ra,8000331c <__sfputs_r>
8000345c:	fff00793          	li	a5,-1
80003460:	2cf50263          	beq	a0,a5,80003724 <_vfiprintf_r+0x394>
80003464:	02412683          	lw	a3,36(sp)
80003468:	019686b3          	add	a3,a3,s9
8000346c:	02d12223          	sw	a3,36(sp)
80003470:	00044783          	lbu	a5,0(s0)
80003474:	2a078863          	beqz	a5,80003724 <_vfiprintf_r+0x394>
80003478:	fff00793          	li	a5,-1
8000347c:	00140913          	addi	s2,s0,1
80003480:	00012823          	sw	zero,16(sp)
80003484:	00012e23          	sw	zero,28(sp)
80003488:	00f12a23          	sw	a5,20(sp)
8000348c:	00012c23          	sw	zero,24(sp)
80003490:	040109a3          	sb	zero,83(sp)
80003494:	06012423          	sw	zero,104(sp)
80003498:	00094583          	lbu	a1,0(s2)
8000349c:	00500613          	li	a2,5
800034a0:	000a8513          	mv	a0,s5
800034a4:	0fc010ef          	jal	ra,800045a0 <memchr>
800034a8:	00190413          	addi	s0,s2,1
800034ac:	01012783          	lw	a5,16(sp)
800034b0:	0c051a63          	bnez	a0,80003584 <_vfiprintf_r+0x1f4>
800034b4:	0107f713          	andi	a4,a5,16
800034b8:	00070663          	beqz	a4,800034c4 <_vfiprintf_r+0x134>
800034bc:	02000713          	li	a4,32
800034c0:	04e109a3          	sb	a4,83(sp)
800034c4:	0087f713          	andi	a4,a5,8
800034c8:	00070663          	beqz	a4,800034d4 <_vfiprintf_r+0x144>
800034cc:	02b00713          	li	a4,43
800034d0:	04e109a3          	sb	a4,83(sp)
800034d4:	00094683          	lbu	a3,0(s2)
800034d8:	02a00713          	li	a4,42
800034dc:	0ce68063          	beq	a3,a4,8000359c <_vfiprintf_r+0x20c>
800034e0:	01c12783          	lw	a5,28(sp)
800034e4:	00090413          	mv	s0,s2
800034e8:	00000693          	li	a3,0
800034ec:	00900613          	li	a2,9
800034f0:	00044703          	lbu	a4,0(s0)
800034f4:	00140593          	addi	a1,s0,1
800034f8:	fd070713          	addi	a4,a4,-48
800034fc:	10e67263          	bleu	a4,a2,80003600 <_vfiprintf_r+0x270>
80003500:	0a068a63          	beqz	a3,800035b4 <_vfiprintf_r+0x224>
80003504:	00f12e23          	sw	a5,28(sp)
80003508:	0ac0006f          	j	800035b4 <_vfiprintf_r+0x224>
8000350c:	00001797          	auipc	a5,0x1
80003510:	40878793          	addi	a5,a5,1032 # 80004914 <__sf_fake_stdout>
80003514:	00f49663          	bne	s1,a5,80003520 <_vfiprintf_r+0x190>
80003518:	0089a483          	lw	s1,8(s3)
8000351c:	ed5ff06f          	j	800033f0 <_vfiprintf_r+0x60>
80003520:	00001797          	auipc	a5,0x1
80003524:	3b478793          	addi	a5,a5,948 # 800048d4 <__sf_fake_stderr>
80003528:	ecf494e3          	bne	s1,a5,800033f0 <_vfiprintf_r+0x60>
8000352c:	00c9a483          	lw	s1,12(s3)
80003530:	ec1ff06f          	j	800033f0 <_vfiprintf_r+0x60>
80003534:	00048593          	mv	a1,s1
80003538:	00098513          	mv	a0,s3
8000353c:	251000ef          	jal	ra,80003f8c <__swsetup_r>
80003540:	ec0502e3          	beqz	a0,80003404 <_vfiprintf_r+0x74>
80003544:	fff00513          	li	a0,-1
80003548:	09c12083          	lw	ra,156(sp)
8000354c:	09812403          	lw	s0,152(sp)
80003550:	09412483          	lw	s1,148(sp)
80003554:	09012903          	lw	s2,144(sp)
80003558:	08c12983          	lw	s3,140(sp)
8000355c:	08812a03          	lw	s4,136(sp)
80003560:	08412a83          	lw	s5,132(sp)
80003564:	08012b03          	lw	s6,128(sp)
80003568:	07c12b83          	lw	s7,124(sp)
8000356c:	07812c03          	lw	s8,120(sp)
80003570:	07412c83          	lw	s9,116(sp)
80003574:	0a010113          	addi	sp,sp,160
80003578:	00008067          	ret
8000357c:	00140413          	addi	s0,s0,1
80003580:	eb5ff06f          	j	80003434 <_vfiprintf_r+0xa4>
80003584:	41550533          	sub	a0,a0,s5
80003588:	00ac1533          	sll	a0,s8,a0
8000358c:	00a7e7b3          	or	a5,a5,a0
80003590:	00f12823          	sw	a5,16(sp)
80003594:	00040913          	mv	s2,s0
80003598:	f01ff06f          	j	80003498 <_vfiprintf_r+0x108>
8000359c:	00c12703          	lw	a4,12(sp)
800035a0:	00470693          	addi	a3,a4,4
800035a4:	00072703          	lw	a4,0(a4)
800035a8:	00d12623          	sw	a3,12(sp)
800035ac:	04074063          	bltz	a4,800035ec <_vfiprintf_r+0x25c>
800035b0:	00e12e23          	sw	a4,28(sp)
800035b4:	00044703          	lbu	a4,0(s0)
800035b8:	02e00793          	li	a5,46
800035bc:	08f71463          	bne	a4,a5,80003644 <_vfiprintf_r+0x2b4>
800035c0:	00144703          	lbu	a4,1(s0)
800035c4:	02a00793          	li	a5,42
800035c8:	04f71a63          	bne	a4,a5,8000361c <_vfiprintf_r+0x28c>
800035cc:	00c12783          	lw	a5,12(sp)
800035d0:	00240413          	addi	s0,s0,2
800035d4:	00478713          	addi	a4,a5,4
800035d8:	0007a783          	lw	a5,0(a5)
800035dc:	00e12623          	sw	a4,12(sp)
800035e0:	0207ca63          	bltz	a5,80003614 <_vfiprintf_r+0x284>
800035e4:	00f12a23          	sw	a5,20(sp)
800035e8:	05c0006f          	j	80003644 <_vfiprintf_r+0x2b4>
800035ec:	40e00733          	neg	a4,a4
800035f0:	0027e793          	ori	a5,a5,2
800035f4:	00e12e23          	sw	a4,28(sp)
800035f8:	00f12823          	sw	a5,16(sp)
800035fc:	fb9ff06f          	j	800035b4 <_vfiprintf_r+0x224>
80003600:	036787b3          	mul	a5,a5,s6
80003604:	00100693          	li	a3,1
80003608:	00058413          	mv	s0,a1
8000360c:	00e787b3          	add	a5,a5,a4
80003610:	ee1ff06f          	j	800034f0 <_vfiprintf_r+0x160>
80003614:	fff00793          	li	a5,-1
80003618:	fcdff06f          	j	800035e4 <_vfiprintf_r+0x254>
8000361c:	00140413          	addi	s0,s0,1
80003620:	00012a23          	sw	zero,20(sp)
80003624:	00000693          	li	a3,0
80003628:	00000793          	li	a5,0
8000362c:	00900613          	li	a2,9
80003630:	00044703          	lbu	a4,0(s0)
80003634:	00140593          	addi	a1,s0,1
80003638:	fd070713          	addi	a4,a4,-48
8000363c:	08e67c63          	bleu	a4,a2,800036d4 <_vfiprintf_r+0x344>
80003640:	fa0692e3          	bnez	a3,800035e4 <_vfiprintf_r+0x254>
80003644:	00044583          	lbu	a1,0(s0)
80003648:	00300613          	li	a2,3
8000364c:	00001517          	auipc	a0,0x1
80003650:	2f050513          	addi	a0,a0,752 # 8000493c <__sf_fake_stdout+0x28>
80003654:	74d000ef          	jal	ra,800045a0 <memchr>
80003658:	02050463          	beqz	a0,80003680 <_vfiprintf_r+0x2f0>
8000365c:	00001797          	auipc	a5,0x1
80003660:	2e078793          	addi	a5,a5,736 # 8000493c <__sf_fake_stdout+0x28>
80003664:	40f50533          	sub	a0,a0,a5
80003668:	04000793          	li	a5,64
8000366c:	00a797b3          	sll	a5,a5,a0
80003670:	01012503          	lw	a0,16(sp)
80003674:	00140413          	addi	s0,s0,1
80003678:	00f56533          	or	a0,a0,a5
8000367c:	00a12823          	sw	a0,16(sp)
80003680:	00044583          	lbu	a1,0(s0)
80003684:	00600613          	li	a2,6
80003688:	00001517          	auipc	a0,0x1
8000368c:	2b850513          	addi	a0,a0,696 # 80004940 <__sf_fake_stdout+0x2c>
80003690:	00140913          	addi	s2,s0,1
80003694:	02b10423          	sb	a1,40(sp)
80003698:	709000ef          	jal	ra,800045a0 <memchr>
8000369c:	08050e63          	beqz	a0,80003738 <_vfiprintf_r+0x3a8>
800036a0:	7fffd797          	auipc	a5,0x7fffd
800036a4:	96078793          	addi	a5,a5,-1696 # 0 <__stack_top+0x7ffc2430>
800036a8:	04079863          	bnez	a5,800036f8 <_vfiprintf_r+0x368>
800036ac:	01012703          	lw	a4,16(sp)
800036b0:	00c12783          	lw	a5,12(sp)
800036b4:	10077713          	andi	a4,a4,256
800036b8:	02070863          	beqz	a4,800036e8 <_vfiprintf_r+0x358>
800036bc:	00478793          	addi	a5,a5,4
800036c0:	00f12623          	sw	a5,12(sp)
800036c4:	02412783          	lw	a5,36(sp)
800036c8:	014787b3          	add	a5,a5,s4
800036cc:	02f12223          	sw	a5,36(sp)
800036d0:	d61ff06f          	j	80003430 <_vfiprintf_r+0xa0>
800036d4:	036787b3          	mul	a5,a5,s6
800036d8:	00100693          	li	a3,1
800036dc:	00058413          	mv	s0,a1
800036e0:	00e787b3          	add	a5,a5,a4
800036e4:	f4dff06f          	j	80003630 <_vfiprintf_r+0x2a0>
800036e8:	00778793          	addi	a5,a5,7
800036ec:	ff87f793          	andi	a5,a5,-8
800036f0:	00878793          	addi	a5,a5,8
800036f4:	fcdff06f          	j	800036c0 <_vfiprintf_r+0x330>
800036f8:	00c10713          	addi	a4,sp,12
800036fc:	00000697          	auipc	a3,0x0
80003700:	c2068693          	addi	a3,a3,-992 # 8000331c <__sfputs_r>
80003704:	00048613          	mv	a2,s1
80003708:	01010593          	addi	a1,sp,16
8000370c:	00098513          	mv	a0,s3
80003710:	7fffd097          	auipc	ra,0x7fffd
80003714:	8f0080e7          	jalr	-1808(ra) # 0 <__stack_top+0x7ffc2430>
80003718:	fff00793          	li	a5,-1
8000371c:	00050a13          	mv	s4,a0
80003720:	faf512e3          	bne	a0,a5,800036c4 <_vfiprintf_r+0x334>
80003724:	00c4d783          	lhu	a5,12(s1)
80003728:	0407f793          	andi	a5,a5,64
8000372c:	e0079ce3          	bnez	a5,80003544 <_vfiprintf_r+0x1b4>
80003730:	02412503          	lw	a0,36(sp)
80003734:	e15ff06f          	j	80003548 <_vfiprintf_r+0x1b8>
80003738:	00c10713          	addi	a4,sp,12
8000373c:	00000697          	auipc	a3,0x0
80003740:	be068693          	addi	a3,a3,-1056 # 8000331c <__sfputs_r>
80003744:	00048613          	mv	a2,s1
80003748:	01010593          	addi	a1,sp,16
8000374c:	00098513          	mv	a0,s3
80003750:	1b8000ef          	jal	ra,80003908 <_printf_i>
80003754:	fc5ff06f          	j	80003718 <_vfiprintf_r+0x388>

80003758 <_printf_common>:
80003758:	fd010113          	addi	sp,sp,-48
8000375c:	01512a23          	sw	s5,20(sp)
80003760:	0105a783          	lw	a5,16(a1)
80003764:	00070a93          	mv	s5,a4
80003768:	0085a703          	lw	a4,8(a1)
8000376c:	02812423          	sw	s0,40(sp)
80003770:	02912223          	sw	s1,36(sp)
80003774:	01312e23          	sw	s3,28(sp)
80003778:	01412c23          	sw	s4,24(sp)
8000377c:	02112623          	sw	ra,44(sp)
80003780:	03212023          	sw	s2,32(sp)
80003784:	01612823          	sw	s6,16(sp)
80003788:	01712623          	sw	s7,12(sp)
8000378c:	00050993          	mv	s3,a0
80003790:	00058413          	mv	s0,a1
80003794:	00060493          	mv	s1,a2
80003798:	00068a13          	mv	s4,a3
8000379c:	00e7d463          	ble	a4,a5,800037a4 <_printf_common+0x4c>
800037a0:	00070793          	mv	a5,a4
800037a4:	00f4a023          	sw	a5,0(s1)
800037a8:	04344703          	lbu	a4,67(s0)
800037ac:	00070663          	beqz	a4,800037b8 <_printf_common+0x60>
800037b0:	00178793          	addi	a5,a5,1
800037b4:	00f4a023          	sw	a5,0(s1)
800037b8:	00042783          	lw	a5,0(s0)
800037bc:	0207f793          	andi	a5,a5,32
800037c0:	00078863          	beqz	a5,800037d0 <_printf_common+0x78>
800037c4:	0004a783          	lw	a5,0(s1)
800037c8:	00278793          	addi	a5,a5,2
800037cc:	00f4a023          	sw	a5,0(s1)
800037d0:	00042903          	lw	s2,0(s0)
800037d4:	00697913          	andi	s2,s2,6
800037d8:	00091e63          	bnez	s2,800037f4 <_printf_common+0x9c>
800037dc:	01940b13          	addi	s6,s0,25
800037e0:	fff00b93          	li	s7,-1
800037e4:	00c42783          	lw	a5,12(s0)
800037e8:	0004a703          	lw	a4,0(s1)
800037ec:	40e787b3          	sub	a5,a5,a4
800037f0:	08f94263          	blt	s2,a5,80003874 <_printf_common+0x11c>
800037f4:	00042783          	lw	a5,0(s0)
800037f8:	04344683          	lbu	a3,67(s0)
800037fc:	0207f793          	andi	a5,a5,32
80003800:	00d036b3          	snez	a3,a3
80003804:	0c079063          	bnez	a5,800038c4 <_printf_common+0x16c>
80003808:	04340613          	addi	a2,s0,67
8000380c:	000a0593          	mv	a1,s4
80003810:	00098513          	mv	a0,s3
80003814:	000a80e7          	jalr	s5
80003818:	fff00793          	li	a5,-1
8000381c:	06f50863          	beq	a0,a5,8000388c <_printf_common+0x134>
80003820:	00042783          	lw	a5,0(s0)
80003824:	00400613          	li	a2,4
80003828:	0004a703          	lw	a4,0(s1)
8000382c:	0067f793          	andi	a5,a5,6
80003830:	00c42683          	lw	a3,12(s0)
80003834:	00000493          	li	s1,0
80003838:	00c79863          	bne	a5,a2,80003848 <_printf_common+0xf0>
8000383c:	40e684b3          	sub	s1,a3,a4
80003840:	0004d463          	bgez	s1,80003848 <_printf_common+0xf0>
80003844:	00000493          	li	s1,0
80003848:	00842783          	lw	a5,8(s0)
8000384c:	01042703          	lw	a4,16(s0)
80003850:	00f75663          	ble	a5,a4,8000385c <_printf_common+0x104>
80003854:	40e787b3          	sub	a5,a5,a4
80003858:	00f484b3          	add	s1,s1,a5
8000385c:	00000913          	li	s2,0
80003860:	01a40413          	addi	s0,s0,26
80003864:	fff00b13          	li	s6,-1
80003868:	09249063          	bne	s1,s2,800038e8 <_printf_common+0x190>
8000386c:	00000513          	li	a0,0
80003870:	0200006f          	j	80003890 <_printf_common+0x138>
80003874:	00100693          	li	a3,1
80003878:	000b0613          	mv	a2,s6
8000387c:	000a0593          	mv	a1,s4
80003880:	00098513          	mv	a0,s3
80003884:	000a80e7          	jalr	s5
80003888:	03751a63          	bne	a0,s7,800038bc <_printf_common+0x164>
8000388c:	fff00513          	li	a0,-1
80003890:	02c12083          	lw	ra,44(sp)
80003894:	02812403          	lw	s0,40(sp)
80003898:	02412483          	lw	s1,36(sp)
8000389c:	02012903          	lw	s2,32(sp)
800038a0:	01c12983          	lw	s3,28(sp)
800038a4:	01812a03          	lw	s4,24(sp)
800038a8:	01412a83          	lw	s5,20(sp)
800038ac:	01012b03          	lw	s6,16(sp)
800038b0:	00c12b83          	lw	s7,12(sp)
800038b4:	03010113          	addi	sp,sp,48
800038b8:	00008067          	ret
800038bc:	00190913          	addi	s2,s2,1
800038c0:	f25ff06f          	j	800037e4 <_printf_common+0x8c>
800038c4:	00d40733          	add	a4,s0,a3
800038c8:	03000613          	li	a2,48
800038cc:	04c701a3          	sb	a2,67(a4)
800038d0:	04544703          	lbu	a4,69(s0)
800038d4:	00168793          	addi	a5,a3,1
800038d8:	00f407b3          	add	a5,s0,a5
800038dc:	00268693          	addi	a3,a3,2
800038e0:	04e781a3          	sb	a4,67(a5)
800038e4:	f25ff06f          	j	80003808 <_printf_common+0xb0>
800038e8:	00100693          	li	a3,1
800038ec:	00040613          	mv	a2,s0
800038f0:	000a0593          	mv	a1,s4
800038f4:	00098513          	mv	a0,s3
800038f8:	000a80e7          	jalr	s5
800038fc:	f96508e3          	beq	a0,s6,8000388c <_printf_common+0x134>
80003900:	00190913          	addi	s2,s2,1
80003904:	f65ff06f          	j	80003868 <_printf_common+0x110>

80003908 <_printf_i>:
80003908:	fd010113          	addi	sp,sp,-48
8000390c:	02812423          	sw	s0,40(sp)
80003910:	02912223          	sw	s1,36(sp)
80003914:	03212023          	sw	s2,32(sp)
80003918:	01312e23          	sw	s3,28(sp)
8000391c:	02112623          	sw	ra,44(sp)
80003920:	01412c23          	sw	s4,24(sp)
80003924:	01512a23          	sw	s5,20(sp)
80003928:	01612823          	sw	s6,16(sp)
8000392c:	00068993          	mv	s3,a3
80003930:	0185c683          	lbu	a3,24(a1)
80003934:	06e00793          	li	a5,110
80003938:	00060913          	mv	s2,a2
8000393c:	00050493          	mv	s1,a0
80003940:	00058413          	mv	s0,a1
80003944:	04358613          	addi	a2,a1,67
80003948:	28f68863          	beq	a3,a5,80003bd8 <_printf_i+0x2d0>
8000394c:	06d7ea63          	bltu	a5,a3,800039c0 <_printf_i+0xb8>
80003950:	06300793          	li	a5,99
80003954:	0af68e63          	beq	a3,a5,80003a10 <_printf_i+0x108>
80003958:	00d7ee63          	bltu	a5,a3,80003974 <_printf_i+0x6c>
8000395c:	2a068c63          	beqz	a3,80003c14 <_printf_i+0x30c>
80003960:	05800793          	li	a5,88
80003964:	1ef68a63          	beq	a3,a5,80003b58 <_printf_i+0x250>
80003968:	04240a93          	addi	s5,s0,66
8000396c:	04d40123          	sb	a3,66(s0)
80003970:	0b80006f          	j	80003a28 <_printf_i+0x120>
80003974:	06400793          	li	a5,100
80003978:	00f68663          	beq	a3,a5,80003984 <_printf_i+0x7c>
8000397c:	06900793          	li	a5,105
80003980:	fef694e3          	bne	a3,a5,80003968 <_printf_i+0x60>
80003984:	00042783          	lw	a5,0(s0)
80003988:	00072503          	lw	a0,0(a4)
8000398c:	0807f693          	andi	a3,a5,128
80003990:	00450593          	addi	a1,a0,4
80003994:	08068e63          	beqz	a3,80003a30 <_printf_i+0x128>
80003998:	00052783          	lw	a5,0(a0)
8000399c:	00b72023          	sw	a1,0(a4)
800039a0:	0007d863          	bgez	a5,800039b0 <_printf_i+0xa8>
800039a4:	02d00713          	li	a4,45
800039a8:	40f007b3          	neg	a5,a5
800039ac:	04e401a3          	sb	a4,67(s0)
800039b0:	00001697          	auipc	a3,0x1
800039b4:	f9868693          	addi	a3,a3,-104 # 80004948 <__sf_fake_stdout+0x34>
800039b8:	00a00713          	li	a4,10
800039bc:	0d80006f          	j	80003a94 <_printf_i+0x18c>
800039c0:	07300793          	li	a5,115
800039c4:	24f68e63          	beq	a3,a5,80003c20 <_printf_i+0x318>
800039c8:	02d7e263          	bltu	a5,a3,800039ec <_printf_i+0xe4>
800039cc:	06f00793          	li	a5,111
800039d0:	06f68e63          	beq	a3,a5,80003a4c <_printf_i+0x144>
800039d4:	07000793          	li	a5,112
800039d8:	f8f698e3          	bne	a3,a5,80003968 <_printf_i+0x60>
800039dc:	0005a783          	lw	a5,0(a1)
800039e0:	0207e793          	ori	a5,a5,32
800039e4:	00f5a023          	sw	a5,0(a1)
800039e8:	0140006f          	j	800039fc <_printf_i+0xf4>
800039ec:	07500793          	li	a5,117
800039f0:	04f68e63          	beq	a3,a5,80003a4c <_printf_i+0x144>
800039f4:	07800793          	li	a5,120
800039f8:	f6f698e3          	bne	a3,a5,80003968 <_printf_i+0x60>
800039fc:	07800793          	li	a5,120
80003a00:	04f402a3          	sb	a5,69(s0)
80003a04:	00001697          	auipc	a3,0x1
80003a08:	f5868693          	addi	a3,a3,-168 # 8000495c <__sf_fake_stdout+0x48>
80003a0c:	1580006f          	j	80003b64 <_printf_i+0x25c>
80003a10:	00072783          	lw	a5,0(a4)
80003a14:	04258a93          	addi	s5,a1,66
80003a18:	00478693          	addi	a3,a5,4
80003a1c:	0007a783          	lw	a5,0(a5)
80003a20:	00d72023          	sw	a3,0(a4)
80003a24:	04f58123          	sb	a5,66(a1)
80003a28:	00100793          	li	a5,1
80003a2c:	2240006f          	j	80003c50 <_printf_i+0x348>
80003a30:	0407f693          	andi	a3,a5,64
80003a34:	00052783          	lw	a5,0(a0)
80003a38:	00b72023          	sw	a1,0(a4)
80003a3c:	f60682e3          	beqz	a3,800039a0 <_printf_i+0x98>
80003a40:	01079793          	slli	a5,a5,0x10
80003a44:	4107d793          	srai	a5,a5,0x10
80003a48:	f59ff06f          	j	800039a0 <_printf_i+0x98>
80003a4c:	00042583          	lw	a1,0(s0)
80003a50:	00072783          	lw	a5,0(a4)
80003a54:	0805f813          	andi	a6,a1,128
80003a58:	00478513          	addi	a0,a5,4
80003a5c:	00080863          	beqz	a6,80003a6c <_printf_i+0x164>
80003a60:	00a72023          	sw	a0,0(a4)
80003a64:	0007a783          	lw	a5,0(a5)
80003a68:	0140006f          	j	80003a7c <_printf_i+0x174>
80003a6c:	0405f593          	andi	a1,a1,64
80003a70:	00a72023          	sw	a0,0(a4)
80003a74:	fe0588e3          	beqz	a1,80003a64 <_printf_i+0x15c>
80003a78:	0007d783          	lhu	a5,0(a5)
80003a7c:	06f00713          	li	a4,111
80003a80:	14e68063          	beq	a3,a4,80003bc0 <_printf_i+0x2b8>
80003a84:	00001697          	auipc	a3,0x1
80003a88:	ec468693          	addi	a3,a3,-316 # 80004948 <__sf_fake_stdout+0x34>
80003a8c:	00a00713          	li	a4,10
80003a90:	040401a3          	sb	zero,67(s0)
80003a94:	00442583          	lw	a1,4(s0)
80003a98:	00b42423          	sw	a1,8(s0)
80003a9c:	0005c863          	bltz	a1,80003aac <_printf_i+0x1a4>
80003aa0:	00042503          	lw	a0,0(s0)
80003aa4:	ffb57513          	andi	a0,a0,-5
80003aa8:	00a42023          	sw	a0,0(s0)
80003aac:	00079663          	bnez	a5,80003ab8 <_printf_i+0x1b0>
80003ab0:	00060a93          	mv	s5,a2
80003ab4:	02058263          	beqz	a1,80003ad8 <_printf_i+0x1d0>
80003ab8:	00060a93          	mv	s5,a2
80003abc:	02e7f5b3          	remu	a1,a5,a4
80003ac0:	fffa8a93          	addi	s5,s5,-1
80003ac4:	00b685b3          	add	a1,a3,a1
80003ac8:	0005c583          	lbu	a1,0(a1)
80003acc:	00ba8023          	sb	a1,0(s5)
80003ad0:	02e7d5b3          	divu	a1,a5,a4
80003ad4:	0ee7fe63          	bleu	a4,a5,80003bd0 <_printf_i+0x2c8>
80003ad8:	00800793          	li	a5,8
80003adc:	02f71463          	bne	a4,a5,80003b04 <_printf_i+0x1fc>
80003ae0:	00042783          	lw	a5,0(s0)
80003ae4:	0017f793          	andi	a5,a5,1
80003ae8:	00078e63          	beqz	a5,80003b04 <_printf_i+0x1fc>
80003aec:	00442703          	lw	a4,4(s0)
80003af0:	01042783          	lw	a5,16(s0)
80003af4:	00e7c863          	blt	a5,a4,80003b04 <_printf_i+0x1fc>
80003af8:	03000793          	li	a5,48
80003afc:	fefa8fa3          	sb	a5,-1(s5)
80003b00:	fffa8a93          	addi	s5,s5,-1
80003b04:	41560633          	sub	a2,a2,s5
80003b08:	00c42823          	sw	a2,16(s0)
80003b0c:	00098713          	mv	a4,s3
80003b10:	00090693          	mv	a3,s2
80003b14:	00c10613          	addi	a2,sp,12
80003b18:	00040593          	mv	a1,s0
80003b1c:	00048513          	mv	a0,s1
80003b20:	c39ff0ef          	jal	ra,80003758 <_printf_common>
80003b24:	fff00a13          	li	s4,-1
80003b28:	13451a63          	bne	a0,s4,80003c5c <_printf_i+0x354>
80003b2c:	fff00513          	li	a0,-1
80003b30:	02c12083          	lw	ra,44(sp)
80003b34:	02812403          	lw	s0,40(sp)
80003b38:	02412483          	lw	s1,36(sp)
80003b3c:	02012903          	lw	s2,32(sp)
80003b40:	01c12983          	lw	s3,28(sp)
80003b44:	01812a03          	lw	s4,24(sp)
80003b48:	01412a83          	lw	s5,20(sp)
80003b4c:	01012b03          	lw	s6,16(sp)
80003b50:	03010113          	addi	sp,sp,48
80003b54:	00008067          	ret
80003b58:	04d582a3          	sb	a3,69(a1)
80003b5c:	00001697          	auipc	a3,0x1
80003b60:	dec68693          	addi	a3,a3,-532 # 80004948 <__sf_fake_stdout+0x34>
80003b64:	00042583          	lw	a1,0(s0)
80003b68:	00072503          	lw	a0,0(a4)
80003b6c:	0805f813          	andi	a6,a1,128
80003b70:	00052783          	lw	a5,0(a0)
80003b74:	00450513          	addi	a0,a0,4
80003b78:	02080863          	beqz	a6,80003ba8 <_printf_i+0x2a0>
80003b7c:	00a72023          	sw	a0,0(a4)
80003b80:	0015f713          	andi	a4,a1,1
80003b84:	00070663          	beqz	a4,80003b90 <_printf_i+0x288>
80003b88:	0205e593          	ori	a1,a1,32
80003b8c:	00b42023          	sw	a1,0(s0)
80003b90:	01000713          	li	a4,16
80003b94:	ee079ee3          	bnez	a5,80003a90 <_printf_i+0x188>
80003b98:	00042583          	lw	a1,0(s0)
80003b9c:	fdf5f593          	andi	a1,a1,-33
80003ba0:	00b42023          	sw	a1,0(s0)
80003ba4:	eedff06f          	j	80003a90 <_printf_i+0x188>
80003ba8:	0405f813          	andi	a6,a1,64
80003bac:	00a72023          	sw	a0,0(a4)
80003bb0:	fc0808e3          	beqz	a6,80003b80 <_printf_i+0x278>
80003bb4:	01079793          	slli	a5,a5,0x10
80003bb8:	0107d793          	srli	a5,a5,0x10
80003bbc:	fc5ff06f          	j	80003b80 <_printf_i+0x278>
80003bc0:	00001697          	auipc	a3,0x1
80003bc4:	d8868693          	addi	a3,a3,-632 # 80004948 <__sf_fake_stdout+0x34>
80003bc8:	00800713          	li	a4,8
80003bcc:	ec5ff06f          	j	80003a90 <_printf_i+0x188>
80003bd0:	00058793          	mv	a5,a1
80003bd4:	ee9ff06f          	j	80003abc <_printf_i+0x1b4>
80003bd8:	0005a683          	lw	a3,0(a1)
80003bdc:	00072783          	lw	a5,0(a4)
80003be0:	0145a583          	lw	a1,20(a1)
80003be4:	0806f813          	andi	a6,a3,128
80003be8:	00478513          	addi	a0,a5,4
80003bec:	00080a63          	beqz	a6,80003c00 <_printf_i+0x2f8>
80003bf0:	00a72023          	sw	a0,0(a4)
80003bf4:	0007a783          	lw	a5,0(a5)
80003bf8:	00b7a023          	sw	a1,0(a5)
80003bfc:	0180006f          	j	80003c14 <_printf_i+0x30c>
80003c00:	00a72023          	sw	a0,0(a4)
80003c04:	0406f693          	andi	a3,a3,64
80003c08:	0007a783          	lw	a5,0(a5)
80003c0c:	fe0686e3          	beqz	a3,80003bf8 <_printf_i+0x2f0>
80003c10:	00b79023          	sh	a1,0(a5)
80003c14:	00042823          	sw	zero,16(s0)
80003c18:	00060a93          	mv	s5,a2
80003c1c:	ef1ff06f          	j	80003b0c <_printf_i+0x204>
80003c20:	00072783          	lw	a5,0(a4)
80003c24:	0045a603          	lw	a2,4(a1)
80003c28:	00000593          	li	a1,0
80003c2c:	00478693          	addi	a3,a5,4
80003c30:	00d72023          	sw	a3,0(a4)
80003c34:	0007aa83          	lw	s5,0(a5)
80003c38:	000a8513          	mv	a0,s5
80003c3c:	165000ef          	jal	ra,800045a0 <memchr>
80003c40:	00050663          	beqz	a0,80003c4c <_printf_i+0x344>
80003c44:	41550533          	sub	a0,a0,s5
80003c48:	00a42223          	sw	a0,4(s0)
80003c4c:	00442783          	lw	a5,4(s0)
80003c50:	00f42823          	sw	a5,16(s0)
80003c54:	040401a3          	sb	zero,67(s0)
80003c58:	eb5ff06f          	j	80003b0c <_printf_i+0x204>
80003c5c:	01042683          	lw	a3,16(s0)
80003c60:	000a8613          	mv	a2,s5
80003c64:	00090593          	mv	a1,s2
80003c68:	00048513          	mv	a0,s1
80003c6c:	000980e7          	jalr	s3
80003c70:	eb450ee3          	beq	a0,s4,80003b2c <_printf_i+0x224>
80003c74:	00042783          	lw	a5,0(s0)
80003c78:	0027f793          	andi	a5,a5,2
80003c7c:	04079463          	bnez	a5,80003cc4 <_printf_i+0x3bc>
80003c80:	00c12783          	lw	a5,12(sp)
80003c84:	00c42503          	lw	a0,12(s0)
80003c88:	eaf554e3          	ble	a5,a0,80003b30 <_printf_i+0x228>
80003c8c:	00078513          	mv	a0,a5
80003c90:	ea1ff06f          	j	80003b30 <_printf_i+0x228>
80003c94:	00100693          	li	a3,1
80003c98:	000a8613          	mv	a2,s5
80003c9c:	00090593          	mv	a1,s2
80003ca0:	00048513          	mv	a0,s1
80003ca4:	000980e7          	jalr	s3
80003ca8:	e96502e3          	beq	a0,s6,80003b2c <_printf_i+0x224>
80003cac:	001a0a13          	addi	s4,s4,1
80003cb0:	00c42783          	lw	a5,12(s0)
80003cb4:	00c12703          	lw	a4,12(sp)
80003cb8:	40e787b3          	sub	a5,a5,a4
80003cbc:	fcfa4ce3          	blt	s4,a5,80003c94 <_printf_i+0x38c>
80003cc0:	fc1ff06f          	j	80003c80 <_printf_i+0x378>
80003cc4:	00000a13          	li	s4,0
80003cc8:	01940a93          	addi	s5,s0,25
80003ccc:	fff00b13          	li	s6,-1
80003cd0:	fe1ff06f          	j	80003cb0 <_printf_i+0x3a8>

80003cd4 <_sbrk_r>:
80003cd4:	ff010113          	addi	sp,sp,-16
80003cd8:	00812423          	sw	s0,8(sp)
80003cdc:	00050413          	mv	s0,a0
80003ce0:	00058513          	mv	a0,a1
80003ce4:	0001a797          	auipc	a5,0x1a
80003ce8:	ec07aa23          	sw	zero,-300(a5) # 8001dbb8 <errno>
80003cec:	00112623          	sw	ra,12(sp)
80003cf0:	e01fc0ef          	jal	ra,80000af0 <_sbrk>
80003cf4:	fff00793          	li	a5,-1
80003cf8:	00f51c63          	bne	a0,a5,80003d10 <_sbrk_r+0x3c>
80003cfc:	0001a797          	auipc	a5,0x1a
80003d00:	ebc78793          	addi	a5,a5,-324 # 8001dbb8 <errno>
80003d04:	0007a783          	lw	a5,0(a5)
80003d08:	00078463          	beqz	a5,80003d10 <_sbrk_r+0x3c>
80003d0c:	00f42023          	sw	a5,0(s0)
80003d10:	00c12083          	lw	ra,12(sp)
80003d14:	00812403          	lw	s0,8(sp)
80003d18:	01010113          	addi	sp,sp,16
80003d1c:	00008067          	ret

80003d20 <__sread>:
80003d20:	ff010113          	addi	sp,sp,-16
80003d24:	00812423          	sw	s0,8(sp)
80003d28:	00058413          	mv	s0,a1
80003d2c:	00e59583          	lh	a1,14(a1)
80003d30:	00112623          	sw	ra,12(sp)
80003d34:	19d000ef          	jal	ra,800046d0 <_read_r>
80003d38:	02054063          	bltz	a0,80003d58 <__sread+0x38>
80003d3c:	05442783          	lw	a5,84(s0)
80003d40:	00a787b3          	add	a5,a5,a0
80003d44:	04f42a23          	sw	a5,84(s0)
80003d48:	00c12083          	lw	ra,12(sp)
80003d4c:	00812403          	lw	s0,8(sp)
80003d50:	01010113          	addi	sp,sp,16
80003d54:	00008067          	ret
80003d58:	00c45783          	lhu	a5,12(s0)
80003d5c:	fffff737          	lui	a4,0xfffff
80003d60:	fff70713          	addi	a4,a4,-1 # ffffefff <__stack_top+0x7ffc142f>
80003d64:	00e7f7b3          	and	a5,a5,a4
80003d68:	00f41623          	sh	a5,12(s0)
80003d6c:	fddff06f          	j	80003d48 <__sread+0x28>

80003d70 <__swrite>:
80003d70:	00c5d783          	lhu	a5,12(a1)
80003d74:	fe010113          	addi	sp,sp,-32
80003d78:	00812c23          	sw	s0,24(sp)
80003d7c:	00912a23          	sw	s1,20(sp)
80003d80:	01212823          	sw	s2,16(sp)
80003d84:	01312623          	sw	s3,12(sp)
80003d88:	00112e23          	sw	ra,28(sp)
80003d8c:	1007f793          	andi	a5,a5,256
80003d90:	00050493          	mv	s1,a0
80003d94:	00058413          	mv	s0,a1
80003d98:	00060913          	mv	s2,a2
80003d9c:	00068993          	mv	s3,a3
80003da0:	00078a63          	beqz	a5,80003db4 <__swrite+0x44>
80003da4:	00e59583          	lh	a1,14(a1)
80003da8:	00200693          	li	a3,2
80003dac:	00000613          	li	a2,0
80003db0:	620000ef          	jal	ra,800043d0 <_lseek_r>
80003db4:	00c45783          	lhu	a5,12(s0)
80003db8:	fffff737          	lui	a4,0xfffff
80003dbc:	fff70713          	addi	a4,a4,-1 # ffffefff <__stack_top+0x7ffc142f>
80003dc0:	00e7f7b3          	and	a5,a5,a4
80003dc4:	00f41623          	sh	a5,12(s0)
80003dc8:	00e41583          	lh	a1,14(s0)
80003dcc:	01812403          	lw	s0,24(sp)
80003dd0:	01c12083          	lw	ra,28(sp)
80003dd4:	00098693          	mv	a3,s3
80003dd8:	00090613          	mv	a2,s2
80003ddc:	00c12983          	lw	s3,12(sp)
80003de0:	01012903          	lw	s2,16(sp)
80003de4:	00048513          	mv	a0,s1
80003de8:	01412483          	lw	s1,20(sp)
80003dec:	02010113          	addi	sp,sp,32
80003df0:	ff9fe06f          	j	80002de8 <_write_r>

80003df4 <__sseek>:
80003df4:	ff010113          	addi	sp,sp,-16
80003df8:	00812423          	sw	s0,8(sp)
80003dfc:	00058413          	mv	s0,a1
80003e00:	00e59583          	lh	a1,14(a1)
80003e04:	00112623          	sw	ra,12(sp)
80003e08:	5c8000ef          	jal	ra,800043d0 <_lseek_r>
80003e0c:	fff00793          	li	a5,-1
80003e10:	00c45703          	lhu	a4,12(s0)
80003e14:	02f51263          	bne	a0,a5,80003e38 <__sseek+0x44>
80003e18:	fffff7b7          	lui	a5,0xfffff
80003e1c:	fff78793          	addi	a5,a5,-1 # ffffefff <__stack_top+0x7ffc142f>
80003e20:	00e7f7b3          	and	a5,a5,a4
80003e24:	00f41623          	sh	a5,12(s0)
80003e28:	00c12083          	lw	ra,12(sp)
80003e2c:	00812403          	lw	s0,8(sp)
80003e30:	01010113          	addi	sp,sp,16
80003e34:	00008067          	ret
80003e38:	000017b7          	lui	a5,0x1
80003e3c:	00f767b3          	or	a5,a4,a5
80003e40:	00f41623          	sh	a5,12(s0)
80003e44:	04a42a23          	sw	a0,84(s0)
80003e48:	fe1ff06f          	j	80003e28 <__sseek+0x34>

80003e4c <__sclose>:
80003e4c:	00e59583          	lh	a1,14(a1)
80003e50:	2b80006f          	j	80004108 <_close_r>

80003e54 <__swbuf_r>:
80003e54:	fe010113          	addi	sp,sp,-32
80003e58:	00812c23          	sw	s0,24(sp)
80003e5c:	00912a23          	sw	s1,20(sp)
80003e60:	01212823          	sw	s2,16(sp)
80003e64:	00112e23          	sw	ra,28(sp)
80003e68:	01312623          	sw	s3,12(sp)
80003e6c:	00050493          	mv	s1,a0
80003e70:	00058913          	mv	s2,a1
80003e74:	00060413          	mv	s0,a2
80003e78:	00050863          	beqz	a0,80003e88 <__swbuf_r+0x34>
80003e7c:	01852783          	lw	a5,24(a0)
80003e80:	00079463          	bnez	a5,80003e88 <__swbuf_r+0x34>
80003e84:	8b8ff0ef          	jal	ra,80002f3c <__sinit>
80003e88:	00001797          	auipc	a5,0x1
80003e8c:	a6c78793          	addi	a5,a5,-1428 # 800048f4 <__sf_fake_stdin>
80003e90:	0af41e63          	bne	s0,a5,80003f4c <__swbuf_r+0xf8>
80003e94:	0044a403          	lw	s0,4(s1)
80003e98:	01842783          	lw	a5,24(s0)
80003e9c:	00f42423          	sw	a5,8(s0)
80003ea0:	00c45783          	lhu	a5,12(s0)
80003ea4:	0087f793          	andi	a5,a5,8
80003ea8:	0c078663          	beqz	a5,80003f74 <__swbuf_r+0x120>
80003eac:	01042783          	lw	a5,16(s0)
80003eb0:	0c078263          	beqz	a5,80003f74 <__swbuf_r+0x120>
80003eb4:	01042783          	lw	a5,16(s0)
80003eb8:	00042503          	lw	a0,0(s0)
80003ebc:	0ff97993          	andi	s3,s2,255
80003ec0:	0ff97913          	andi	s2,s2,255
80003ec4:	40f50533          	sub	a0,a0,a5
80003ec8:	01442783          	lw	a5,20(s0)
80003ecc:	00f54a63          	blt	a0,a5,80003ee0 <__swbuf_r+0x8c>
80003ed0:	00040593          	mv	a1,s0
80003ed4:	00048513          	mv	a0,s1
80003ed8:	458000ef          	jal	ra,80004330 <_fflush_r>
80003edc:	0a051463          	bnez	a0,80003f84 <__swbuf_r+0x130>
80003ee0:	00842783          	lw	a5,8(s0)
80003ee4:	00150513          	addi	a0,a0,1
80003ee8:	fff78793          	addi	a5,a5,-1
80003eec:	00f42423          	sw	a5,8(s0)
80003ef0:	00042783          	lw	a5,0(s0)
80003ef4:	00178713          	addi	a4,a5,1
80003ef8:	00e42023          	sw	a4,0(s0)
80003efc:	01378023          	sb	s3,0(a5)
80003f00:	01442783          	lw	a5,20(s0)
80003f04:	00a78c63          	beq	a5,a0,80003f1c <__swbuf_r+0xc8>
80003f08:	00c45783          	lhu	a5,12(s0)
80003f0c:	0017f793          	andi	a5,a5,1
80003f10:	00078e63          	beqz	a5,80003f2c <__swbuf_r+0xd8>
80003f14:	00a00793          	li	a5,10
80003f18:	00f91a63          	bne	s2,a5,80003f2c <__swbuf_r+0xd8>
80003f1c:	00040593          	mv	a1,s0
80003f20:	00048513          	mv	a0,s1
80003f24:	40c000ef          	jal	ra,80004330 <_fflush_r>
80003f28:	04051e63          	bnez	a0,80003f84 <__swbuf_r+0x130>
80003f2c:	01c12083          	lw	ra,28(sp)
80003f30:	01812403          	lw	s0,24(sp)
80003f34:	00090513          	mv	a0,s2
80003f38:	01412483          	lw	s1,20(sp)
80003f3c:	01012903          	lw	s2,16(sp)
80003f40:	00c12983          	lw	s3,12(sp)
80003f44:	02010113          	addi	sp,sp,32
80003f48:	00008067          	ret
80003f4c:	00001797          	auipc	a5,0x1
80003f50:	9c878793          	addi	a5,a5,-1592 # 80004914 <__sf_fake_stdout>
80003f54:	00f41663          	bne	s0,a5,80003f60 <__swbuf_r+0x10c>
80003f58:	0084a403          	lw	s0,8(s1)
80003f5c:	f3dff06f          	j	80003e98 <__swbuf_r+0x44>
80003f60:	00001797          	auipc	a5,0x1
80003f64:	97478793          	addi	a5,a5,-1676 # 800048d4 <__sf_fake_stderr>
80003f68:	f2f418e3          	bne	s0,a5,80003e98 <__swbuf_r+0x44>
80003f6c:	00c4a403          	lw	s0,12(s1)
80003f70:	f29ff06f          	j	80003e98 <__swbuf_r+0x44>
80003f74:	00040593          	mv	a1,s0
80003f78:	00048513          	mv	a0,s1
80003f7c:	010000ef          	jal	ra,80003f8c <__swsetup_r>
80003f80:	f2050ae3          	beqz	a0,80003eb4 <__swbuf_r+0x60>
80003f84:	fff00913          	li	s2,-1
80003f88:	fa5ff06f          	j	80003f2c <__swbuf_r+0xd8>

80003f8c <__swsetup_r>:
80003f8c:	ff010113          	addi	sp,sp,-16
80003f90:	81418793          	addi	a5,gp,-2028 # 80004994 <_impure_ptr>
80003f94:	00912223          	sw	s1,4(sp)
80003f98:	0007a483          	lw	s1,0(a5)
80003f9c:	00812423          	sw	s0,8(sp)
80003fa0:	01212023          	sw	s2,0(sp)
80003fa4:	00112623          	sw	ra,12(sp)
80003fa8:	00050913          	mv	s2,a0
80003fac:	00058413          	mv	s0,a1
80003fb0:	00048a63          	beqz	s1,80003fc4 <__swsetup_r+0x38>
80003fb4:	0184a783          	lw	a5,24(s1)
80003fb8:	00079663          	bnez	a5,80003fc4 <__swsetup_r+0x38>
80003fbc:	00048513          	mv	a0,s1
80003fc0:	f7dfe0ef          	jal	ra,80002f3c <__sinit>
80003fc4:	00001797          	auipc	a5,0x1
80003fc8:	93078793          	addi	a5,a5,-1744 # 800048f4 <__sf_fake_stdin>
80003fcc:	04f41863          	bne	s0,a5,8000401c <__swsetup_r+0x90>
80003fd0:	0044a403          	lw	s0,4(s1)
80003fd4:	00c41703          	lh	a4,12(s0)
80003fd8:	01071793          	slli	a5,a4,0x10
80003fdc:	0107d793          	srli	a5,a5,0x10
80003fe0:	0087f693          	andi	a3,a5,8
80003fe4:	0a069463          	bnez	a3,8000408c <__swsetup_r+0x100>
80003fe8:	0107f693          	andi	a3,a5,16
80003fec:	04069c63          	bnez	a3,80004044 <__swsetup_r+0xb8>
80003ff0:	00900793          	li	a5,9
80003ff4:	00f92023          	sw	a5,0(s2)
80003ff8:	04076713          	ori	a4,a4,64
80003ffc:	00e41623          	sh	a4,12(s0)
80004000:	fff00513          	li	a0,-1
80004004:	00c12083          	lw	ra,12(sp)
80004008:	00812403          	lw	s0,8(sp)
8000400c:	00412483          	lw	s1,4(sp)
80004010:	00012903          	lw	s2,0(sp)
80004014:	01010113          	addi	sp,sp,16
80004018:	00008067          	ret
8000401c:	00001797          	auipc	a5,0x1
80004020:	8f878793          	addi	a5,a5,-1800 # 80004914 <__sf_fake_stdout>
80004024:	00f41663          	bne	s0,a5,80004030 <__swsetup_r+0xa4>
80004028:	0084a403          	lw	s0,8(s1)
8000402c:	fa9ff06f          	j	80003fd4 <__swsetup_r+0x48>
80004030:	00001797          	auipc	a5,0x1
80004034:	8a478793          	addi	a5,a5,-1884 # 800048d4 <__sf_fake_stderr>
80004038:	f8f41ee3          	bne	s0,a5,80003fd4 <__swsetup_r+0x48>
8000403c:	00c4a403          	lw	s0,12(s1)
80004040:	f95ff06f          	j	80003fd4 <__swsetup_r+0x48>
80004044:	0047f793          	andi	a5,a5,4
80004048:	02078c63          	beqz	a5,80004080 <__swsetup_r+0xf4>
8000404c:	03442583          	lw	a1,52(s0)
80004050:	00058c63          	beqz	a1,80004068 <__swsetup_r+0xdc>
80004054:	04440793          	addi	a5,s0,68
80004058:	00f58663          	beq	a1,a5,80004064 <__swsetup_r+0xd8>
8000405c:	00090513          	mv	a0,s2
80004060:	56c000ef          	jal	ra,800045cc <_free_r>
80004064:	02042a23          	sw	zero,52(s0)
80004068:	00c45783          	lhu	a5,12(s0)
8000406c:	00042223          	sw	zero,4(s0)
80004070:	fdb7f793          	andi	a5,a5,-37
80004074:	00f41623          	sh	a5,12(s0)
80004078:	01042783          	lw	a5,16(s0)
8000407c:	00f42023          	sw	a5,0(s0)
80004080:	00c45783          	lhu	a5,12(s0)
80004084:	0087e793          	ori	a5,a5,8
80004088:	00f41623          	sh	a5,12(s0)
8000408c:	01042783          	lw	a5,16(s0)
80004090:	02079063          	bnez	a5,800040b0 <__swsetup_r+0x124>
80004094:	00c45783          	lhu	a5,12(s0)
80004098:	20000713          	li	a4,512
8000409c:	2807f793          	andi	a5,a5,640
800040a0:	00e78863          	beq	a5,a4,800040b0 <__swsetup_r+0x124>
800040a4:	00040593          	mv	a1,s0
800040a8:	00090513          	mv	a0,s2
800040ac:	404000ef          	jal	ra,800044b0 <__smakebuf_r>
800040b0:	00c45783          	lhu	a5,12(s0)
800040b4:	0017f713          	andi	a4,a5,1
800040b8:	02070c63          	beqz	a4,800040f0 <__swsetup_r+0x164>
800040bc:	01442783          	lw	a5,20(s0)
800040c0:	00042423          	sw	zero,8(s0)
800040c4:	40f007b3          	neg	a5,a5
800040c8:	00f42c23          	sw	a5,24(s0)
800040cc:	01042783          	lw	a5,16(s0)
800040d0:	00000513          	li	a0,0
800040d4:	f20798e3          	bnez	a5,80004004 <__swsetup_r+0x78>
800040d8:	00c41783          	lh	a5,12(s0)
800040dc:	0807f713          	andi	a4,a5,128
800040e0:	f20702e3          	beqz	a4,80004004 <__swsetup_r+0x78>
800040e4:	0407e793          	ori	a5,a5,64
800040e8:	00f41623          	sh	a5,12(s0)
800040ec:	f15ff06f          	j	80004000 <__swsetup_r+0x74>
800040f0:	0027f793          	andi	a5,a5,2
800040f4:	00000713          	li	a4,0
800040f8:	00079463          	bnez	a5,80004100 <__swsetup_r+0x174>
800040fc:	01442703          	lw	a4,20(s0)
80004100:	00e42423          	sw	a4,8(s0)
80004104:	fc9ff06f          	j	800040cc <__swsetup_r+0x140>

80004108 <_close_r>:
80004108:	ff010113          	addi	sp,sp,-16
8000410c:	00812423          	sw	s0,8(sp)
80004110:	00050413          	mv	s0,a0
80004114:	00058513          	mv	a0,a1
80004118:	0001a797          	auipc	a5,0x1a
8000411c:	aa07a023          	sw	zero,-1376(a5) # 8001dbb8 <errno>
80004120:	00112623          	sw	ra,12(sp)
80004124:	ad9fc0ef          	jal	ra,80000bfc <_close>
80004128:	fff00793          	li	a5,-1
8000412c:	00f51c63          	bne	a0,a5,80004144 <_close_r+0x3c>
80004130:	0001a797          	auipc	a5,0x1a
80004134:	a8878793          	addi	a5,a5,-1400 # 8001dbb8 <errno>
80004138:	0007a783          	lw	a5,0(a5)
8000413c:	00078463          	beqz	a5,80004144 <_close_r+0x3c>
80004140:	00f42023          	sw	a5,0(s0)
80004144:	00c12083          	lw	ra,12(sp)
80004148:	00812403          	lw	s0,8(sp)
8000414c:	01010113          	addi	sp,sp,16
80004150:	00008067          	ret

80004154 <__sflush_r>:
80004154:	00c5d783          	lhu	a5,12(a1)
80004158:	fe010113          	addi	sp,sp,-32
8000415c:	00812c23          	sw	s0,24(sp)
80004160:	00912a23          	sw	s1,20(sp)
80004164:	00112e23          	sw	ra,28(sp)
80004168:	01212823          	sw	s2,16(sp)
8000416c:	01312623          	sw	s3,12(sp)
80004170:	0087f713          	andi	a4,a5,8
80004174:	00050493          	mv	s1,a0
80004178:	00058413          	mv	s0,a1
8000417c:	14071863          	bnez	a4,800042cc <__sflush_r+0x178>
80004180:	0045a703          	lw	a4,4(a1)
80004184:	02e04663          	bgtz	a4,800041b0 <__sflush_r+0x5c>
80004188:	0405a703          	lw	a4,64(a1)
8000418c:	02e04263          	bgtz	a4,800041b0 <__sflush_r+0x5c>
80004190:	00000513          	li	a0,0
80004194:	01c12083          	lw	ra,28(sp)
80004198:	01812403          	lw	s0,24(sp)
8000419c:	01412483          	lw	s1,20(sp)
800041a0:	01012903          	lw	s2,16(sp)
800041a4:	00c12983          	lw	s3,12(sp)
800041a8:	02010113          	addi	sp,sp,32
800041ac:	00008067          	ret
800041b0:	02c42703          	lw	a4,44(s0)
800041b4:	fc070ee3          	beqz	a4,80004190 <__sflush_r+0x3c>
800041b8:	0004a903          	lw	s2,0(s1)
800041bc:	01379693          	slli	a3,a5,0x13
800041c0:	0004a023          	sw	zero,0(s1)
800041c4:	0a06dc63          	bgez	a3,8000427c <__sflush_r+0x128>
800041c8:	05442603          	lw	a2,84(s0)
800041cc:	00c45783          	lhu	a5,12(s0)
800041d0:	0047f793          	andi	a5,a5,4
800041d4:	00078e63          	beqz	a5,800041f0 <__sflush_r+0x9c>
800041d8:	00442783          	lw	a5,4(s0)
800041dc:	40f60633          	sub	a2,a2,a5
800041e0:	03442783          	lw	a5,52(s0)
800041e4:	00078663          	beqz	a5,800041f0 <__sflush_r+0x9c>
800041e8:	04042783          	lw	a5,64(s0)
800041ec:	40f60633          	sub	a2,a2,a5
800041f0:	02c42783          	lw	a5,44(s0)
800041f4:	02042583          	lw	a1,32(s0)
800041f8:	00000693          	li	a3,0
800041fc:	00048513          	mv	a0,s1
80004200:	000780e7          	jalr	a5
80004204:	fff00793          	li	a5,-1
80004208:	00c45703          	lhu	a4,12(s0)
8000420c:	02f51263          	bne	a0,a5,80004230 <__sflush_r+0xdc>
80004210:	0004a683          	lw	a3,0(s1)
80004214:	01d00793          	li	a5,29
80004218:	0ad7e263          	bltu	a5,a3,800042bc <__sflush_r+0x168>
8000421c:	204007b7          	lui	a5,0x20400
80004220:	00178793          	addi	a5,a5,1 # 20400001 <RAM_SIZE+0x20380001>
80004224:	00d7d7b3          	srl	a5,a5,a3
80004228:	0017f793          	andi	a5,a5,1
8000422c:	08078863          	beqz	a5,800042bc <__sflush_r+0x168>
80004230:	01042783          	lw	a5,16(s0)
80004234:	00042223          	sw	zero,4(s0)
80004238:	00f42023          	sw	a5,0(s0)
8000423c:	01371793          	slli	a5,a4,0x13
80004240:	0007dc63          	bgez	a5,80004258 <__sflush_r+0x104>
80004244:	fff00793          	li	a5,-1
80004248:	00f51663          	bne	a0,a5,80004254 <__sflush_r+0x100>
8000424c:	0004a783          	lw	a5,0(s1)
80004250:	00079463          	bnez	a5,80004258 <__sflush_r+0x104>
80004254:	04a42a23          	sw	a0,84(s0)
80004258:	03442583          	lw	a1,52(s0)
8000425c:	0124a023          	sw	s2,0(s1)
80004260:	f20588e3          	beqz	a1,80004190 <__sflush_r+0x3c>
80004264:	04440793          	addi	a5,s0,68
80004268:	00f58663          	beq	a1,a5,80004274 <__sflush_r+0x120>
8000426c:	00048513          	mv	a0,s1
80004270:	35c000ef          	jal	ra,800045cc <_free_r>
80004274:	02042a23          	sw	zero,52(s0)
80004278:	f19ff06f          	j	80004190 <__sflush_r+0x3c>
8000427c:	02042583          	lw	a1,32(s0)
80004280:	00000613          	li	a2,0
80004284:	00100693          	li	a3,1
80004288:	00048513          	mv	a0,s1
8000428c:	000700e7          	jalr	a4
80004290:	fff00793          	li	a5,-1
80004294:	00050613          	mv	a2,a0
80004298:	f2f51ae3          	bne	a0,a5,800041cc <__sflush_r+0x78>
8000429c:	0004a783          	lw	a5,0(s1)
800042a0:	f20786e3          	beqz	a5,800041cc <__sflush_r+0x78>
800042a4:	01d00713          	li	a4,29
800042a8:	00e78663          	beq	a5,a4,800042b4 <__sflush_r+0x160>
800042ac:	01600713          	li	a4,22
800042b0:	06e79263          	bne	a5,a4,80004314 <__sflush_r+0x1c0>
800042b4:	0124a023          	sw	s2,0(s1)
800042b8:	ed9ff06f          	j	80004190 <__sflush_r+0x3c>
800042bc:	04076713          	ori	a4,a4,64
800042c0:	00e41623          	sh	a4,12(s0)
800042c4:	fff00513          	li	a0,-1
800042c8:	ecdff06f          	j	80004194 <__sflush_r+0x40>
800042cc:	0105a983          	lw	s3,16(a1)
800042d0:	ec0980e3          	beqz	s3,80004190 <__sflush_r+0x3c>
800042d4:	0005a903          	lw	s2,0(a1)
800042d8:	0037f793          	andi	a5,a5,3
800042dc:	0135a023          	sw	s3,0(a1)
800042e0:	41390933          	sub	s2,s2,s3
800042e4:	00000713          	li	a4,0
800042e8:	00079463          	bnez	a5,800042f0 <__sflush_r+0x19c>
800042ec:	0145a703          	lw	a4,20(a1)
800042f0:	00e42423          	sw	a4,8(s0)
800042f4:	e9205ee3          	blez	s2,80004190 <__sflush_r+0x3c>
800042f8:	02842783          	lw	a5,40(s0)
800042fc:	02042583          	lw	a1,32(s0)
80004300:	00090693          	mv	a3,s2
80004304:	00098613          	mv	a2,s3
80004308:	00048513          	mv	a0,s1
8000430c:	000780e7          	jalr	a5
80004310:	00a04a63          	bgtz	a0,80004324 <__sflush_r+0x1d0>
80004314:	00c45783          	lhu	a5,12(s0)
80004318:	0407e793          	ori	a5,a5,64
8000431c:	00f41623          	sh	a5,12(s0)
80004320:	fa5ff06f          	j	800042c4 <__sflush_r+0x170>
80004324:	00a989b3          	add	s3,s3,a0
80004328:	40a90933          	sub	s2,s2,a0
8000432c:	fc9ff06f          	j	800042f4 <__sflush_r+0x1a0>

80004330 <_fflush_r>:
80004330:	0105a783          	lw	a5,16(a1)
80004334:	08078a63          	beqz	a5,800043c8 <_fflush_r+0x98>
80004338:	fe010113          	addi	sp,sp,-32
8000433c:	00812c23          	sw	s0,24(sp)
80004340:	00112e23          	sw	ra,28(sp)
80004344:	00050413          	mv	s0,a0
80004348:	00050c63          	beqz	a0,80004360 <_fflush_r+0x30>
8000434c:	01852783          	lw	a5,24(a0)
80004350:	00079863          	bnez	a5,80004360 <_fflush_r+0x30>
80004354:	00b12623          	sw	a1,12(sp)
80004358:	be5fe0ef          	jal	ra,80002f3c <__sinit>
8000435c:	00c12583          	lw	a1,12(sp)
80004360:	00000797          	auipc	a5,0x0
80004364:	59478793          	addi	a5,a5,1428 # 800048f4 <__sf_fake_stdin>
80004368:	02f59263          	bne	a1,a5,8000438c <_fflush_r+0x5c>
8000436c:	00442583          	lw	a1,4(s0)
80004370:	00c59783          	lh	a5,12(a1)
80004374:	04078063          	beqz	a5,800043b4 <_fflush_r+0x84>
80004378:	00040513          	mv	a0,s0
8000437c:	01812403          	lw	s0,24(sp)
80004380:	01c12083          	lw	ra,28(sp)
80004384:	02010113          	addi	sp,sp,32
80004388:	dcdff06f          	j	80004154 <__sflush_r>
8000438c:	00000797          	auipc	a5,0x0
80004390:	58878793          	addi	a5,a5,1416 # 80004914 <__sf_fake_stdout>
80004394:	00f59663          	bne	a1,a5,800043a0 <_fflush_r+0x70>
80004398:	00842583          	lw	a1,8(s0)
8000439c:	fd5ff06f          	j	80004370 <_fflush_r+0x40>
800043a0:	00000797          	auipc	a5,0x0
800043a4:	53478793          	addi	a5,a5,1332 # 800048d4 <__sf_fake_stderr>
800043a8:	fcf594e3          	bne	a1,a5,80004370 <_fflush_r+0x40>
800043ac:	00c42583          	lw	a1,12(s0)
800043b0:	fc1ff06f          	j	80004370 <_fflush_r+0x40>
800043b4:	01c12083          	lw	ra,28(sp)
800043b8:	01812403          	lw	s0,24(sp)
800043bc:	00000513          	li	a0,0
800043c0:	02010113          	addi	sp,sp,32
800043c4:	00008067          	ret
800043c8:	00000513          	li	a0,0
800043cc:	00008067          	ret

800043d0 <_lseek_r>:
800043d0:	ff010113          	addi	sp,sp,-16
800043d4:	00812423          	sw	s0,8(sp)
800043d8:	00050413          	mv	s0,a0
800043dc:	00058513          	mv	a0,a1
800043e0:	00060593          	mv	a1,a2
800043e4:	00068613          	mv	a2,a3
800043e8:	00019797          	auipc	a5,0x19
800043ec:	7c07a823          	sw	zero,2000(a5) # 8001dbb8 <errno>
800043f0:	00112623          	sw	ra,12(sp)
800043f4:	899fc0ef          	jal	ra,80000c8c <_lseek>
800043f8:	fff00793          	li	a5,-1
800043fc:	00f51c63          	bne	a0,a5,80004414 <_lseek_r+0x44>
80004400:	00019797          	auipc	a5,0x19
80004404:	7b878793          	addi	a5,a5,1976 # 8001dbb8 <errno>
80004408:	0007a783          	lw	a5,0(a5)
8000440c:	00078463          	beqz	a5,80004414 <_lseek_r+0x44>
80004410:	00f42023          	sw	a5,0(s0)
80004414:	00c12083          	lw	ra,12(sp)
80004418:	00812403          	lw	s0,8(sp)
8000441c:	01010113          	addi	sp,sp,16
80004420:	00008067          	ret

80004424 <__swhatbuf_r>:
80004424:	f8010113          	addi	sp,sp,-128
80004428:	06912a23          	sw	s1,116(sp)
8000442c:	00058493          	mv	s1,a1
80004430:	00e59583          	lh	a1,14(a1)
80004434:	06812c23          	sw	s0,120(sp)
80004438:	06112e23          	sw	ra,124(sp)
8000443c:	00060413          	mv	s0,a2
80004440:	0005de63          	bgez	a1,8000445c <__swhatbuf_r+0x38>
80004444:	00c4d783          	lhu	a5,12(s1)
80004448:	0006a023          	sw	zero,0(a3)
8000444c:	0807f793          	andi	a5,a5,128
80004450:	04079063          	bnez	a5,80004490 <__swhatbuf_r+0x6c>
80004454:	40000793          	li	a5,1024
80004458:	03c0006f          	j	80004494 <__swhatbuf_r+0x70>
8000445c:	01810613          	addi	a2,sp,24
80004460:	00d12623          	sw	a3,12(sp)
80004464:	2c0000ef          	jal	ra,80004724 <_fstat_r>
80004468:	00c12683          	lw	a3,12(sp)
8000446c:	fc054ce3          	bltz	a0,80004444 <__swhatbuf_r+0x20>
80004470:	01c12703          	lw	a4,28(sp)
80004474:	0000f7b7          	lui	a5,0xf
80004478:	00e7f7b3          	and	a5,a5,a4
8000447c:	ffffe737          	lui	a4,0xffffe
80004480:	00e787b3          	add	a5,a5,a4
80004484:	0017b793          	seqz	a5,a5
80004488:	00f6a023          	sw	a5,0(a3)
8000448c:	fc9ff06f          	j	80004454 <__swhatbuf_r+0x30>
80004490:	04000793          	li	a5,64
80004494:	00f42023          	sw	a5,0(s0)
80004498:	07c12083          	lw	ra,124(sp)
8000449c:	07812403          	lw	s0,120(sp)
800044a0:	07412483          	lw	s1,116(sp)
800044a4:	00000513          	li	a0,0
800044a8:	08010113          	addi	sp,sp,128
800044ac:	00008067          	ret

800044b0 <__smakebuf_r>:
800044b0:	00c5d783          	lhu	a5,12(a1)
800044b4:	fe010113          	addi	sp,sp,-32
800044b8:	00812c23          	sw	s0,24(sp)
800044bc:	00112e23          	sw	ra,28(sp)
800044c0:	00912a23          	sw	s1,20(sp)
800044c4:	01212823          	sw	s2,16(sp)
800044c8:	0027f793          	andi	a5,a5,2
800044cc:	00058413          	mv	s0,a1
800044d0:	02078863          	beqz	a5,80004500 <__smakebuf_r+0x50>
800044d4:	04740793          	addi	a5,s0,71
800044d8:	00f42023          	sw	a5,0(s0)
800044dc:	00f42823          	sw	a5,16(s0)
800044e0:	00100793          	li	a5,1
800044e4:	00f42a23          	sw	a5,20(s0)
800044e8:	01c12083          	lw	ra,28(sp)
800044ec:	01812403          	lw	s0,24(sp)
800044f0:	01412483          	lw	s1,20(sp)
800044f4:	01012903          	lw	s2,16(sp)
800044f8:	02010113          	addi	sp,sp,32
800044fc:	00008067          	ret
80004500:	00c10693          	addi	a3,sp,12
80004504:	00810613          	addi	a2,sp,8
80004508:	00050493          	mv	s1,a0
8000450c:	f19ff0ef          	jal	ra,80004424 <__swhatbuf_r>
80004510:	00812583          	lw	a1,8(sp)
80004514:	00050913          	mv	s2,a0
80004518:	00048513          	mv	a0,s1
8000451c:	c79fe0ef          	jal	ra,80003194 <_malloc_r>
80004520:	02051063          	bnez	a0,80004540 <__smakebuf_r+0x90>
80004524:	00c41783          	lh	a5,12(s0)
80004528:	2007f713          	andi	a4,a5,512
8000452c:	fa071ee3          	bnez	a4,800044e8 <__smakebuf_r+0x38>
80004530:	ffc7f793          	andi	a5,a5,-4
80004534:	0027e793          	ori	a5,a5,2
80004538:	00f41623          	sh	a5,12(s0)
8000453c:	f99ff06f          	j	800044d4 <__smakebuf_r+0x24>
80004540:	fffff797          	auipc	a5,0xfffff
80004544:	98478793          	addi	a5,a5,-1660 # 80002ec4 <_cleanup_r>
80004548:	02f4a423          	sw	a5,40(s1)
8000454c:	00c45783          	lhu	a5,12(s0)
80004550:	00a42023          	sw	a0,0(s0)
80004554:	00a42823          	sw	a0,16(s0)
80004558:	0807e793          	ori	a5,a5,128
8000455c:	00f41623          	sh	a5,12(s0)
80004560:	00812783          	lw	a5,8(sp)
80004564:	00f42a23          	sw	a5,20(s0)
80004568:	00c12783          	lw	a5,12(sp)
8000456c:	02078263          	beqz	a5,80004590 <__smakebuf_r+0xe0>
80004570:	00e41583          	lh	a1,14(s0)
80004574:	00048513          	mv	a0,s1
80004578:	1fc000ef          	jal	ra,80004774 <_isatty_r>
8000457c:	00050a63          	beqz	a0,80004590 <__smakebuf_r+0xe0>
80004580:	00c45783          	lhu	a5,12(s0)
80004584:	ffc7f793          	andi	a5,a5,-4
80004588:	0017e793          	ori	a5,a5,1
8000458c:	00f41623          	sh	a5,12(s0)
80004590:	00c45783          	lhu	a5,12(s0)
80004594:	00f96933          	or	s2,s2,a5
80004598:	01241623          	sh	s2,12(s0)
8000459c:	f4dff06f          	j	800044e8 <__smakebuf_r+0x38>

800045a0 <memchr>:
800045a0:	0ff5f593          	andi	a1,a1,255
800045a4:	00c50633          	add	a2,a0,a2
800045a8:	00c51663          	bne	a0,a2,800045b4 <memchr+0x14>
800045ac:	00000513          	li	a0,0
800045b0:	00008067          	ret
800045b4:	00054783          	lbu	a5,0(a0)
800045b8:	feb78ce3          	beq	a5,a1,800045b0 <memchr+0x10>
800045bc:	00150513          	addi	a0,a0,1
800045c0:	fe9ff06f          	j	800045a8 <memchr+0x8>

800045c4 <__malloc_lock>:
800045c4:	00008067          	ret

800045c8 <__malloc_unlock>:
800045c8:	00008067          	ret

800045cc <_free_r>:
800045cc:	10058063          	beqz	a1,800046cc <_free_r+0x100>
800045d0:	ffc5a783          	lw	a5,-4(a1)
800045d4:	ff010113          	addi	sp,sp,-16
800045d8:	00812423          	sw	s0,8(sp)
800045dc:	00112623          	sw	ra,12(sp)
800045e0:	00912223          	sw	s1,4(sp)
800045e4:	ffc58413          	addi	s0,a1,-4
800045e8:	0007d463          	bgez	a5,800045f0 <_free_r+0x24>
800045ec:	00f40433          	add	s0,s0,a5
800045f0:	00050493          	mv	s1,a0
800045f4:	fd1ff0ef          	jal	ra,800045c4 <__malloc_lock>
800045f8:	96418793          	addi	a5,gp,-1692 # 80004ae4 <__malloc_free_list>
800045fc:	0007a783          	lw	a5,0(a5)
80004600:	02079263          	bnez	a5,80004624 <_free_r+0x58>
80004604:	00042223          	sw	zero,4(s0)
80004608:	9681a223          	sw	s0,-1692(gp) # 80004ae4 <__malloc_free_list>
8000460c:	00812403          	lw	s0,8(sp)
80004610:	00c12083          	lw	ra,12(sp)
80004614:	00048513          	mv	a0,s1
80004618:	00412483          	lw	s1,4(sp)
8000461c:	01010113          	addi	sp,sp,16
80004620:	fa9ff06f          	j	800045c8 <__malloc_unlock>
80004624:	02f47663          	bleu	a5,s0,80004650 <_free_r+0x84>
80004628:	00042683          	lw	a3,0(s0)
8000462c:	00d40733          	add	a4,s0,a3
80004630:	00e79a63          	bne	a5,a4,80004644 <_free_r+0x78>
80004634:	0007a703          	lw	a4,0(a5)
80004638:	0047a783          	lw	a5,4(a5)
8000463c:	00d70733          	add	a4,a4,a3
80004640:	00e42023          	sw	a4,0(s0)
80004644:	00f42223          	sw	a5,4(s0)
80004648:	fc1ff06f          	j	80004608 <_free_r+0x3c>
8000464c:	00070793          	mv	a5,a4
80004650:	0047a703          	lw	a4,4(a5)
80004654:	00070463          	beqz	a4,8000465c <_free_r+0x90>
80004658:	fee47ae3          	bleu	a4,s0,8000464c <_free_r+0x80>
8000465c:	0007a683          	lw	a3,0(a5)
80004660:	00d78633          	add	a2,a5,a3
80004664:	02861863          	bne	a2,s0,80004694 <_free_r+0xc8>
80004668:	00042603          	lw	a2,0(s0)
8000466c:	00c686b3          	add	a3,a3,a2
80004670:	00d7a023          	sw	a3,0(a5)
80004674:	00d78633          	add	a2,a5,a3
80004678:	f8c71ae3          	bne	a4,a2,8000460c <_free_r+0x40>
8000467c:	00072603          	lw	a2,0(a4) # ffffe000 <__stack_top+0x7ffc0430>
80004680:	00472703          	lw	a4,4(a4)
80004684:	00d606b3          	add	a3,a2,a3
80004688:	00d7a023          	sw	a3,0(a5)
8000468c:	00e7a223          	sw	a4,4(a5)
80004690:	f7dff06f          	j	8000460c <_free_r+0x40>
80004694:	00c47863          	bleu	a2,s0,800046a4 <_free_r+0xd8>
80004698:	00c00793          	li	a5,12
8000469c:	00f4a023          	sw	a5,0(s1)
800046a0:	f6dff06f          	j	8000460c <_free_r+0x40>
800046a4:	00042603          	lw	a2,0(s0)
800046a8:	00c406b3          	add	a3,s0,a2
800046ac:	00d71a63          	bne	a4,a3,800046c0 <_free_r+0xf4>
800046b0:	00072683          	lw	a3,0(a4)
800046b4:	00472703          	lw	a4,4(a4)
800046b8:	00c686b3          	add	a3,a3,a2
800046bc:	00d42023          	sw	a3,0(s0)
800046c0:	00e42223          	sw	a4,4(s0)
800046c4:	0087a223          	sw	s0,4(a5)
800046c8:	f45ff06f          	j	8000460c <_free_r+0x40>
800046cc:	00008067          	ret

800046d0 <_read_r>:
800046d0:	ff010113          	addi	sp,sp,-16
800046d4:	00812423          	sw	s0,8(sp)
800046d8:	00050413          	mv	s0,a0
800046dc:	00058513          	mv	a0,a1
800046e0:	00060593          	mv	a1,a2
800046e4:	00068613          	mv	a2,a3
800046e8:	00019797          	auipc	a5,0x19
800046ec:	4c07a823          	sw	zero,1232(a5) # 8001dbb8 <errno>
800046f0:	00112623          	sw	ra,12(sp)
800046f4:	decfc0ef          	jal	ra,80000ce0 <_read>
800046f8:	fff00793          	li	a5,-1
800046fc:	00f51c63          	bne	a0,a5,80004714 <_read_r+0x44>
80004700:	00019797          	auipc	a5,0x19
80004704:	4b878793          	addi	a5,a5,1208 # 8001dbb8 <errno>
80004708:	0007a783          	lw	a5,0(a5)
8000470c:	00078463          	beqz	a5,80004714 <_read_r+0x44>
80004710:	00f42023          	sw	a5,0(s0)
80004714:	00c12083          	lw	ra,12(sp)
80004718:	00812403          	lw	s0,8(sp)
8000471c:	01010113          	addi	sp,sp,16
80004720:	00008067          	ret

80004724 <_fstat_r>:
80004724:	ff010113          	addi	sp,sp,-16
80004728:	00812423          	sw	s0,8(sp)
8000472c:	00050413          	mv	s0,a0
80004730:	00058513          	mv	a0,a1
80004734:	00060593          	mv	a1,a2
80004738:	00019797          	auipc	a5,0x19
8000473c:	4807a023          	sw	zero,1152(a5) # 8001dbb8 <errno>
80004740:	00112623          	sw	ra,12(sp)
80004744:	cecfc0ef          	jal	ra,80000c30 <_fstat>
80004748:	fff00793          	li	a5,-1
8000474c:	00f51c63          	bne	a0,a5,80004764 <_fstat_r+0x40>
80004750:	00019797          	auipc	a5,0x19
80004754:	46878793          	addi	a5,a5,1128 # 8001dbb8 <errno>
80004758:	0007a783          	lw	a5,0(a5)
8000475c:	00078463          	beqz	a5,80004764 <_fstat_r+0x40>
80004760:	00f42023          	sw	a5,0(s0)
80004764:	00c12083          	lw	ra,12(sp)
80004768:	00812403          	lw	s0,8(sp)
8000476c:	01010113          	addi	sp,sp,16
80004770:	00008067          	ret

80004774 <_isatty_r>:
80004774:	ff010113          	addi	sp,sp,-16
80004778:	00812423          	sw	s0,8(sp)
8000477c:	00050413          	mv	s0,a0
80004780:	00058513          	mv	a0,a1
80004784:	00019797          	auipc	a5,0x19
80004788:	4207aa23          	sw	zero,1076(a5) # 8001dbb8 <errno>
8000478c:	00112623          	sw	ra,12(sp)
80004790:	becfc0ef          	jal	ra,80000b7c <_isatty>
80004794:	fff00793          	li	a5,-1
80004798:	00f51c63          	bne	a0,a5,800047b0 <_isatty_r+0x3c>
8000479c:	00019797          	auipc	a5,0x19
800047a0:	41c78793          	addi	a5,a5,1052 # 8001dbb8 <errno>
800047a4:	0007a783          	lw	a5,0(a5)
800047a8:	00078463          	beqz	a5,800047b0 <_isatty_r+0x3c>
800047ac:	00f42023          	sw	a5,0(s0)
800047b0:	00c12083          	lw	ra,12(sp)
800047b4:	00812403          	lw	s0,8(sp)
800047b8:	01010113          	addi	sp,sp,16
800047bc:	00008067          	ret
800047c0:	6568                	flw	fa0,76(a0)
800047c2:	6c6c                	flw	fa1,92(s0)
800047c4:	0000006f          	j	800047c4 <_isatty_r+0x50>
800047c8:	7274                	flw	fa3,100(a2)
800047ca:	7061                	c.lui	zero,0xffff8
800047cc:	000a                	c.slli	zero,0x2
800047ce:	0000                	unimp
800047d0:	7830                	flw	fa2,112(s0)
800047d2:	0000                	unimp
800047d4:	500a                	0x500a
800047d6:	6f72                	flw	ft10,28(sp)
800047d8:	206d6167          	0x206d6167
800047dc:	6168                	flw	fa0,68(a0)
800047de:	78652073          	csrs	0x786,a0
800047e2:	7469                	lui	s0,0xffffa
800047e4:	6465                	lui	s0,0x19
800047e6:	7720                	flw	fs0,104(a4)
800047e8:	7469                	lui	s0,0xffffa
800047ea:	2068                	fld	fa0,192(s0)
800047ec:	65646f63          	bltu	s0,s6,80004e4a <__sbss_end+0x35a>
800047f0:	003a                	c.slli	zero,0xe
800047f2:	0000                	unimp
800047f4:	000d                	c.nop	3
800047f6:	0000                	unimp
800047f8:	4449                	li	s0,18
800047fa:	454c                	lw	a1,12(a0)
800047fc:	0000                	unimp
800047fe:	0000                	unimp
80004800:	0a0d                	addi	s4,s4,3
80004802:	7246                	flw	ft4,112(sp)
80004804:	6565                	lui	a0,0x19
80004806:	5452                	lw	s0,52(sp)
80004808:	4520534f          	0x4520534f
8000480c:	6178                	flw	fa4,68(a0)
8000480e:	706d                	c.lui	zero,0xffffb
80004810:	656c                	flw	fa1,76(a0)
80004812:	0a0d                	addi	s4,s4,3
80004814:	0000                	unimp
80004816:	0000                	unimp
80004818:	0a0d                	addi	s4,s4,3
8000481a:	0a0d                	addi	s4,s4,3
8000481c:	0909                	addi	s2,s2,2
8000481e:	706d6153          	0x706d6153
80004822:	656c                	flw	fa1,76(a0)
80004824:	4420                	lw	s0,72(s0)
80004826:	6d65                	lui	s10,0x19
80004828:	74736e6f          	jal	t3,8003b76e <__heap_end+0xdb9e>
8000482c:	6172                	flw	ft2,28(sp)
8000482e:	6974                	flw	fa3,84(a0)
80004830:	6f206e6f          	jal	t3,8000af22 <__global_pointer$+0x5da2>
80004834:	2066                	fld	ft0,88(sp)
80004836:	7246                	flw	ft4,112(sp)
80004838:	6565                	lui	a0,0x19
8000483a:	5452                	lw	s0,52(sp)
8000483c:	7020534f          	fnmadd.s	ft6,ft0,ft2,fa4,unknown
80004840:	2074726f          	jal	tp,8004c246 <__stack_top+0xe676>
80004844:	6f66                	flw	ft10,88(sp)
80004846:	2072                	fld	ft0,280(sp)
80004848:	694d                	lui	s2,0x13
8000484a:	562d                	li	a2,-21
8000484c:	7020                	flw	fs0,96(s0)
8000484e:	6f72                	flw	ft10,28(sp)
80004850:	73736563          	bltu	t1,s7,80004f7a <__sbss_end+0x48a>
80004854:	0d2e726f          	jal	tp,800eb926 <__stack_top+0xadd56>
80004858:	0d0a                	slli	s10,s10,0x2
8000485a:	000a                	c.slli	zero,0x2
8000485c:	0909                	addi	s2,s2,2
8000485e:	6854                	flw	fa3,20(s0)
80004860:	7369                	lui	t1,0xffffa
80004862:	7020                	flw	fs0,96(s0)
80004864:	6f72                	flw	ft10,28(sp)
80004866:	656a                	flw	fa0,152(sp)
80004868:	63207463          	bleu	s2,zero,80004e90 <__sbss_end+0x3a0>
8000486c:	6572                	flw	fa0,28(sp)
8000486e:	7461                	lui	s0,0xffff8
80004870:	7365                	lui	t1,0xffff9
80004872:	2020                	fld	fs0,64(s0)
80004874:	7774                	flw	fa3,108(a4)
80004876:	6174206f          	j	8004768c <__stack_top+0x9abc>
8000487a:	20736b73          	csrrsi	s6,0x207,6
8000487e:	6e61                	lui	t3,0x18
80004880:	2064                	fld	fs1,192(s0)
80004882:	7572                	flw	fa0,60(sp)
80004884:	736e                	flw	ft6,248(sp)
80004886:	7420                	flw	fs0,104(s0)
80004888:	6568                	flw	fa0,76(a0)
8000488a:	206d                	jal	80004934 <__sf_fake_stdout+0x20>
8000488c:	7461                	lui	s0,0xffff8
8000488e:	7220                	flw	fs0,96(a2)
80004890:	6765                	lui	a4,0x19
80004892:	6c75                	lui	s8,0x1d
80004894:	7261                	lui	tp,0xffff8
80004896:	6920                	flw	fs0,80(a0)
80004898:	746e                	flw	fs0,248(sp)
8000489a:	7265                	lui	tp,0xffff9
8000489c:	6176                	flw	ft2,92(sp)
8000489e:	736c                	flw	fa1,100(a4)
800048a0:	0d2e                	slli	s10,s10,0xb
800048a2:	000a                	c.slli	zero,0x2
800048a4:	4155                	li	sp,21
800048a6:	7472                	flw	fs0,60(sp)
800048a8:	0031                	c.nop	12
800048aa:	0000                	unimp
800048ac:	4155                	li	sp,21
800048ae:	7472                	flw	fs0,60(sp)
800048b0:	0032                	c.slli	zero,0xc
800048b2:	0000                	unimp
800048b4:	6574                	flw	fa3,76(a0)
800048b6:	00657473          	csrrci	s0,0x6,10
800048ba:	0000                	unimp
800048bc:	6154                	flw	fa3,4(a0)
800048be:	2d206b73          	csrrsi	s6,0x2d2,0
800048c2:	3120                	fld	fs0,96(a0)
800048c4:	0a0d                	addi	s4,s4,3
800048c6:	0000                	unimp
800048c8:	6154                	flw	fa3,4(a0)
800048ca:	2d206b73          	csrrsi	s6,0x2d2,0
800048ce:	3220                	fld	fs0,96(a2)
800048d0:	0a0d                	addi	s4,s4,3
	...

800048d4 <__sf_fake_stderr>:
	...

800048f4 <__sf_fake_stdin>:
	...

80004914 <__sf_fake_stdout>:
	...
80004934:	2d23 2b30 0020 0000 6c68 004c 6665 4567     #-0+ ...hlL.efgE
80004944:	4746 0000 3130 3332 3534 3736 3938 4241     FG..0123456789AB
80004954:	4443 4645 0000 0000 3130 3332 3534 3736     CDEF....01234567
80004964:	3938 6261 6463 6665 0000 0000               89abcdef....
