
recognizer.elf:     file format elf32-littleriscv


Disassembly of section .text:

80000000 <__internal_syscall>:
80000000:	fd010113 	addi	sp,sp,-48
80000004:	02812623 	sw	s0,44(sp)
80000008:	03010413 	addi	s0,sp,48
8000000c:	fea42623 	sw	a0,-20(s0)
80000010:	feb42423 	sw	a1,-24(s0)
80000014:	fec42223 	sw	a2,-28(s0)
80000018:	fed42023 	sw	a3,-32(s0)
8000001c:	fce42e23 	sw	a4,-36(s0)
80000020:	fcf42c23 	sw	a5,-40(s0)
80000024:	fd042a23 	sw	a6,-44(s0)
80000028:	fe842503 	lw	a0,-24(s0)
8000002c:	fe442583 	lw	a1,-28(s0)
80000030:	fe042603 	lw	a2,-32(s0)
80000034:	fdc42683 	lw	a3,-36(s0)
80000038:	fd842703 	lw	a4,-40(s0)
8000003c:	fd442783 	lw	a5,-44(s0)
80000040:	fec42883 	lw	a7,-20(s0)
80000044:	00000073 	ecall
80000048:	00000013 	nop
8000004c:	02c12403 	lw	s0,44(sp)
80000050:	03010113 	addi	sp,sp,48
80000054:	00008067 	ret

80000058 <sys_Receive>:
80000058:	fe010113 	addi	sp,sp,-32
8000005c:	00112e23 	sw	ra,28(sp)
80000060:	00812c23 	sw	s0,24(sp)
80000064:	02010413 	addi	s0,sp,32
80000068:	fea42623 	sw	a0,-20(s0)
8000006c:	feb42423 	sw	a1,-24(s0)
80000070:	fec42583 	lw	a1,-20(s0)
80000074:	fe842603 	lw	a2,-24(s0)
80000078:	00000813 	li	a6,0
8000007c:	00000793 	li	a5,0
80000080:	00000713 	li	a4,0
80000084:	00000693 	li	a3,0
80000088:	01e00513 	li	a0,30
8000008c:	f75ff0ef 	jal	ra,80000000 <__internal_syscall>
80000090:	00100793 	li	a5,1
80000094:	00078513 	mv	a0,a5
80000098:	01c12083 	lw	ra,28(sp)
8000009c:	01812403 	lw	s0,24(sp)
800000a0:	02010113 	addi	sp,sp,32
800000a4:	00008067 	ret

800000a8 <sys_Send>:
800000a8:	fe010113 	addi	sp,sp,-32
800000ac:	00112e23 	sw	ra,28(sp)
800000b0:	00812c23 	sw	s0,24(sp)
800000b4:	02010413 	addi	s0,sp,32
800000b8:	fea42623 	sw	a0,-20(s0)
800000bc:	feb42423 	sw	a1,-24(s0)
800000c0:	fec42583 	lw	a1,-20(s0)
800000c4:	fe842603 	lw	a2,-24(s0)
800000c8:	00000813 	li	a6,0
800000cc:	00000793 	li	a5,0
800000d0:	00000713 	li	a4,0
800000d4:	00000693 	li	a3,0
800000d8:	01400513 	li	a0,20
800000dc:	f25ff0ef 	jal	ra,80000000 <__internal_syscall>
800000e0:	00100793 	li	a5,1
800000e4:	00078513 	mv	a0,a5
800000e8:	01c12083 	lw	ra,28(sp)
800000ec:	01812403 	lw	s0,24(sp)
800000f0:	02010113 	addi	sp,sp,32
800000f4:	00008067 	ret

800000f8 <sys_Printi>:
800000f8:	fe010113 	addi	sp,sp,-32
800000fc:	00112e23 	sw	ra,28(sp)
80000100:	00812c23 	sw	s0,24(sp)
80000104:	02010413 	addi	s0,sp,32
80000108:	fea42623 	sw	a0,-20(s0)
8000010c:	fec42583 	lw	a1,-20(s0)
80000110:	00000813 	li	a6,0
80000114:	00000793 	li	a5,0
80000118:	00000713 	li	a4,0
8000011c:	00000693 	li	a3,0
80000120:	00000613 	li	a2,0
80000124:	02800513 	li	a0,40
80000128:	ed9ff0ef 	jal	ra,80000000 <__internal_syscall>
8000012c:	00100793 	li	a5,1
80000130:	00078513 	mv	a0,a5
80000134:	01c12083 	lw	ra,28(sp)
80000138:	01812403 	lw	s0,24(sp)
8000013c:	02010113 	addi	sp,sp,32
80000140:	00008067 	ret

80000144 <sys_Prints>:
80000144:	fe010113 	addi	sp,sp,-32
80000148:	00112e23 	sw	ra,28(sp)
8000014c:	00812c23 	sw	s0,24(sp)
80000150:	02010413 	addi	s0,sp,32
80000154:	fea42623 	sw	a0,-20(s0)
80000158:	fec42583 	lw	a1,-20(s0)
8000015c:	00000813 	li	a6,0
80000160:	00000793 	li	a5,0
80000164:	00000713 	li	a4,0
80000168:	00000693 	li	a3,0
8000016c:	00000613 	li	a2,0
80000170:	03200513 	li	a0,50
80000174:	e8dff0ef 	jal	ra,80000000 <__internal_syscall>
80000178:	00100793 	li	a5,1
8000017c:	00078513 	mv	a0,a5
80000180:	01c12083 	lw	ra,28(sp)
80000184:	01812403 	lw	s0,24(sp)
80000188:	02010113 	addi	sp,sp,32
8000018c:	00008067 	ret

80000190 <sys_Finish>:
80000190:	ff010113 	addi	sp,sp,-16
80000194:	00112623 	sw	ra,12(sp)
80000198:	00812423 	sw	s0,8(sp)
8000019c:	01010413 	addi	s0,sp,16
800001a0:	00000813 	li	a6,0
800001a4:	00000793 	li	a5,0
800001a8:	00000713 	li	a4,0
800001ac:	00000693 	li	a3,0
800001b0:	00000613 	li	a2,0
800001b4:	00000593 	li	a1,0
800001b8:	00a00513 	li	a0,10
800001bc:	e45ff0ef 	jal	ra,80000000 <__internal_syscall>
800001c0:	00100793 	li	a5,1
800001c4:	00078513 	mv	a0,a5
800001c8:	00c12083 	lw	ra,12(sp)
800001cc:	00812403 	lw	s0,8(sp)
800001d0:	01010113 	addi	sp,sp,16
800001d4:	00008067 	ret

800001d8 <sys_Testing>:
800001d8:	fd010113 	addi	sp,sp,-48
800001dc:	02112623 	sw	ra,44(sp)
800001e0:	02812423 	sw	s0,40(sp)
800001e4:	03010413 	addi	s0,sp,48
800001e8:	fea42623 	sw	a0,-20(s0)
800001ec:	feb42423 	sw	a1,-24(s0)
800001f0:	fec42223 	sw	a2,-28(s0)
800001f4:	fed42023 	sw	a3,-32(s0)
800001f8:	fce42e23 	sw	a4,-36(s0)
800001fc:	fcf42c23 	sw	a5,-40(s0)
80000200:	fec42583 	lw	a1,-20(s0)
80000204:	fe842603 	lw	a2,-24(s0)
80000208:	fe442683 	lw	a3,-28(s0)
8000020c:	fe042703 	lw	a4,-32(s0)
80000210:	fdc42783 	lw	a5,-36(s0)
80000214:	fd842503 	lw	a0,-40(s0)
80000218:	00050813 	mv	a6,a0
8000021c:	04200513 	li	a0,66
80000220:	de1ff0ef 	jal	ra,80000000 <__internal_syscall>
80000224:	00100793 	li	a5,1
80000228:	00078513 	mv	a0,a5
8000022c:	02c12083 	lw	ra,44(sp)
80000230:	02812403 	lw	s0,40(sp)
80000234:	03010113 	addi	sp,sp,48
80000238:	00008067 	ret

8000023c <memcpy>:
8000023c:	fd010113 	addi	sp,sp,-48
80000240:	02812623 	sw	s0,44(sp)
80000244:	03010413 	addi	s0,sp,48
80000248:	fca42e23 	sw	a0,-36(s0)
8000024c:	fcb42c23 	sw	a1,-40(s0)
80000250:	fcc42a23 	sw	a2,-44(s0)
80000254:	fd842783 	lw	a5,-40(s0)
80000258:	fef42423 	sw	a5,-24(s0)
8000025c:	fdc42783 	lw	a5,-36(s0)
80000260:	fef42223 	sw	a5,-28(s0)
80000264:	fe042623 	sw	zero,-20(s0)
80000268:	0300006f 	j	80000298 <memcpy+0x5c>
8000026c:	fec42783 	lw	a5,-20(s0)
80000270:	fe842703 	lw	a4,-24(s0)
80000274:	00f70733 	add	a4,a4,a5
80000278:	fec42783 	lw	a5,-20(s0)
8000027c:	fe442683 	lw	a3,-28(s0)
80000280:	00f687b3 	add	a5,a3,a5
80000284:	00074703 	lbu	a4,0(a4)
80000288:	00e78023 	sb	a4,0(a5)
8000028c:	fec42783 	lw	a5,-20(s0)
80000290:	00178793 	addi	a5,a5,1
80000294:	fef42623 	sw	a5,-20(s0)
80000298:	fec42783 	lw	a5,-20(s0)
8000029c:	fd442703 	lw	a4,-44(s0)
800002a0:	fce7e6e3 	bltu	a5,a4,8000026c <memcpy+0x30>
800002a4:	00000013 	nop
800002a8:	02c12403 	lw	s0,44(sp)
800002ac:	03010113 	addi	sp,sp,48
800002b0:	00008067 	ret

800002b4 <dtw_abs>:
800002b4:	fe010113 	addi	sp,sp,-32
800002b8:	00812e23 	sw	s0,28(sp)
800002bc:	02010413 	addi	s0,sp,32
800002c0:	fea42623 	sw	a0,-20(s0)
800002c4:	fec42783 	lw	a5,-20(s0)
800002c8:	0007d863 	bgez	a5,800002d8 <dtw_abs+0x24>
800002cc:	fec42783 	lw	a5,-20(s0)
800002d0:	40f007b3 	neg	a5,a5
800002d4:	0080006f 	j	800002dc <dtw_abs+0x28>
800002d8:	fec42783 	lw	a5,-20(s0)
800002dc:	00078513 	mv	a0,a5
800002e0:	01c12403 	lw	s0,28(sp)
800002e4:	02010113 	addi	sp,sp,32
800002e8:	00008067 	ret

800002ec <dtw_randNum>:
800002ec:	fd010113 	addi	sp,sp,-48
800002f0:	02812623 	sw	s0,44(sp)
800002f4:	03010413 	addi	s0,sp,48
800002f8:	fca42e23 	sw	a0,-36(s0)
800002fc:	fcb42c23 	sw	a1,-40(s0)
80000300:	fcc42a23 	sw	a2,-44(s0)
80000304:	fdc42783 	lw	a5,-36(s0)
80000308:	fef42623 	sw	a5,-20(s0)
8000030c:	fec42783 	lw	a5,-20(s0)
80000310:	4017d793 	srai	a5,a5,0x1
80000314:	00078693 	mv	a3,a5
80000318:	fec42783 	lw	a5,-20(s0)
8000031c:	0017f793 	andi	a5,a5,1
80000320:	40f00733 	neg	a4,a5
80000324:	0000b7b7 	lui	a5,0xb
80000328:	40078793 	addi	a5,a5,1024 # b400 <__internal_syscall-0x7fff4c00>
8000032c:	00f777b3 	and	a5,a4,a5
80000330:	00f6c7b3 	xor	a5,a3,a5
80000334:	fef42623 	sw	a5,-20(s0)
80000338:	fec42703 	lw	a4,-20(s0)
8000033c:	fd442783 	lw	a5,-44(s0)
80000340:	02f76733 	rem	a4,a4,a5
80000344:	fd842783 	lw	a5,-40(s0)
80000348:	00f707b3 	add	a5,a4,a5
8000034c:	00078513 	mv	a0,a5
80000350:	02c12403 	lw	s0,44(sp)
80000354:	03010113 	addi	sp,sp,48
80000358:	00008067 	ret

8000035c <randPattern>:
8000035c:	fd010113 	addi	sp,sp,-48
80000360:	02112623 	sw	ra,44(sp)
80000364:	02812423 	sw	s0,40(sp)
80000368:	02912223 	sw	s1,36(sp)
8000036c:	03010413 	addi	s0,sp,48
80000370:	fca42e23 	sw	a0,-36(s0)
80000374:	fe042623 	sw	zero,-20(s0)
80000378:	0800006f 	j	800003f8 <randPattern+0x9c>
8000037c:	fe042423 	sw	zero,-24(s0)
80000380:	0600006f 	j	800003e0 <randPattern+0x84>
80000384:	06400613 	li	a2,100
80000388:	00200593 	li	a1,2
8000038c:	01700513 	li	a0,23
80000390:	f5dff0ef 	jal	ra,800002ec <dtw_randNum>
80000394:	00050713 	mv	a4,a0
80000398:	000017b7 	lui	a5,0x1
8000039c:	38878793 	addi	a5,a5,904 # 1388 <__internal_syscall-0x7fffec78>
800003a0:	02f766b3 	rem	a3,a4,a5
800003a4:	fec42703 	lw	a4,-20(s0)
800003a8:	02c00793 	li	a5,44
800003ac:	02f707b3 	mul	a5,a4,a5
800003b0:	fdc42703 	lw	a4,-36(s0)
800003b4:	00f704b3 	add	s1,a4,a5
800003b8:	00068513 	mv	a0,a3
800003bc:	ef9ff0ef 	jal	ra,800002b4 <dtw_abs>
800003c0:	00050713 	mv	a4,a0
800003c4:	fe842783 	lw	a5,-24(s0)
800003c8:	00279793 	slli	a5,a5,0x2
800003cc:	00f487b3 	add	a5,s1,a5
800003d0:	00e7a023 	sw	a4,0(a5)
800003d4:	fe842783 	lw	a5,-24(s0)
800003d8:	00178793 	addi	a5,a5,1
800003dc:	fef42423 	sw	a5,-24(s0)
800003e0:	fe842703 	lw	a4,-24(s0)
800003e4:	00a00793 	li	a5,10
800003e8:	f8e7dee3 	ble	a4,a5,80000384 <randPattern+0x28>
800003ec:	fec42783 	lw	a5,-20(s0)
800003f0:	00178793 	addi	a5,a5,1
800003f4:	fef42623 	sw	a5,-20(s0)
800003f8:	fec42703 	lw	a4,-20(s0)
800003fc:	00a00793 	li	a5,10
80000400:	f6e7dee3 	ble	a4,a5,8000037c <randPattern+0x20>
80000404:	00000013 	nop
80000408:	02c12083 	lw	ra,44(sp)
8000040c:	02812403 	lw	s0,40(sp)
80000410:	02412483 	lw	s1,36(sp)
80000414:	03010113 	addi	sp,sp,48
80000418:	00008067 	ret

8000041c <dtw_euclideanDistance>:
8000041c:	fd010113 	addi	sp,sp,-48
80000420:	02812623 	sw	s0,44(sp)
80000424:	03010413 	addi	s0,sp,48
80000428:	fca42e23 	sw	a0,-36(s0)
8000042c:	fcb42c23 	sw	a1,-40(s0)
80000430:	fe042623 	sw	zero,-20(s0)
80000434:	fe042223 	sw	zero,-28(s0)
80000438:	fe042423 	sw	zero,-24(s0)
8000043c:	0580006f 	j	80000494 <dtw_euclideanDistance+0x78>
80000440:	fe842783 	lw	a5,-24(s0)
80000444:	00279793 	slli	a5,a5,0x2
80000448:	fdc42703 	lw	a4,-36(s0)
8000044c:	00f707b3 	add	a5,a4,a5
80000450:	0007a703 	lw	a4,0(a5)
80000454:	fe842783 	lw	a5,-24(s0)
80000458:	00279793 	slli	a5,a5,0x2
8000045c:	fd842683 	lw	a3,-40(s0)
80000460:	00f687b3 	add	a5,a3,a5
80000464:	0007a783 	lw	a5,0(a5)
80000468:	40f707b3 	sub	a5,a4,a5
8000046c:	fef42223 	sw	a5,-28(s0)
80000470:	fe442703 	lw	a4,-28(s0)
80000474:	fe442783 	lw	a5,-28(s0)
80000478:	02f707b3 	mul	a5,a4,a5
8000047c:	fec42703 	lw	a4,-20(s0)
80000480:	00f707b3 	add	a5,a4,a5
80000484:	fef42623 	sw	a5,-20(s0)
80000488:	fe842783 	lw	a5,-24(s0)
8000048c:	00178793 	addi	a5,a5,1
80000490:	fef42423 	sw	a5,-24(s0)
80000494:	fe842703 	lw	a4,-24(s0)
80000498:	00a00793 	li	a5,10
8000049c:	fae7d2e3 	ble	a4,a5,80000440 <dtw_euclideanDistance+0x24>
800004a0:	fec42783 	lw	a5,-20(s0)
800004a4:	00078513 	mv	a0,a5
800004a8:	02c12403 	lw	s0,44(sp)
800004ac:	03010113 	addi	sp,sp,48
800004b0:	00008067 	ret

800004b4 <dtw_min>:
800004b4:	fe010113 	addi	sp,sp,-32
800004b8:	00812e23 	sw	s0,28(sp)
800004bc:	02010413 	addi	s0,sp,32
800004c0:	fea42623 	sw	a0,-20(s0)
800004c4:	feb42423 	sw	a1,-24(s0)
800004c8:	fec42703 	lw	a4,-20(s0)
800004cc:	fe842783 	lw	a5,-24(s0)
800004d0:	00e7d663 	ble	a4,a5,800004dc <dtw_min+0x28>
800004d4:	fe842783 	lw	a5,-24(s0)
800004d8:	0080006f 	j	800004e0 <dtw_min+0x2c>
800004dc:	fec42783 	lw	a5,-20(s0)
800004e0:	00078513 	mv	a0,a5
800004e4:	01c12403 	lw	s0,28(sp)
800004e8:	02010113 	addi	sp,sp,32
800004ec:	00008067 	ret

800004f0 <dtw_dynamicTimeWarping>:
800004f0:	f4010113 	addi	sp,sp,-192
800004f4:	0a112e23 	sw	ra,188(sp)
800004f8:	0a812c23 	sw	s0,184(sp)
800004fc:	0a912a23 	sw	s1,180(sp)
80000500:	0c010413 	addi	s0,sp,192
80000504:	f4a42623 	sw	a0,-180(s0)
80000508:	f4b42423 	sw	a1,-184(s0)
8000050c:	00a00793 	li	a5,10
80000510:	fef42023 	sw	a5,-32(s0)
80000514:	00a00793 	li	a5,10
80000518:	fcf42e23 	sw	a5,-36(s0)
8000051c:	f4842583 	lw	a1,-184(s0)
80000520:	f4c42503 	lw	a0,-180(s0)
80000524:	ef9ff0ef 	jal	ra,8000041c <dtw_euclideanDistance>
80000528:	00050793 	mv	a5,a0
8000052c:	f8f42023 	sw	a5,-128(s0)
80000530:	00100793 	li	a5,1
80000534:	fef42423 	sw	a5,-24(s0)
80000538:	0640006f 	j	8000059c <dtw_dynamicTimeWarping+0xac>
8000053c:	fe842783 	lw	a5,-24(s0)
80000540:	fff78793 	addi	a5,a5,-1
80000544:	00279793 	slli	a5,a5,0x2
80000548:	ff040713 	addi	a4,s0,-16
8000054c:	00f707b3 	add	a5,a4,a5
80000550:	f907a483 	lw	s1,-112(a5)
80000554:	fe842703 	lw	a4,-24(s0)
80000558:	02c00793 	li	a5,44
8000055c:	02f707b3 	mul	a5,a4,a5
80000560:	f4842703 	lw	a4,-184(s0)
80000564:	00f707b3 	add	a5,a4,a5
80000568:	00078593 	mv	a1,a5
8000056c:	f4c42503 	lw	a0,-180(s0)
80000570:	eadff0ef 	jal	ra,8000041c <dtw_euclideanDistance>
80000574:	00050793 	mv	a5,a0
80000578:	00f48733 	add	a4,s1,a5
8000057c:	fe842783 	lw	a5,-24(s0)
80000580:	00279793 	slli	a5,a5,0x2
80000584:	ff040693 	addi	a3,s0,-16
80000588:	00f687b3 	add	a5,a3,a5
8000058c:	f8e7a823 	sw	a4,-112(a5)
80000590:	fe842783 	lw	a5,-24(s0)
80000594:	00178793 	addi	a5,a5,1
80000598:	fef42423 	sw	a5,-24(s0)
8000059c:	fe842703 	lw	a4,-24(s0)
800005a0:	fdc42783 	lw	a5,-36(s0)
800005a4:	f8e7dce3 	ble	a4,a5,8000053c <dtw_dynamicTimeWarping+0x4c>
800005a8:	00100793 	li	a5,1
800005ac:	fef42623 	sw	a5,-20(s0)
800005b0:	1f40006f 	j	800007a4 <dtw_dynamicTimeWarping+0x2b4>
800005b4:	fe042223 	sw	zero,-28(s0)
800005b8:	0380006f 	j	800005f0 <dtw_dynamicTimeWarping+0x100>
800005bc:	fe442783 	lw	a5,-28(s0)
800005c0:	00279793 	slli	a5,a5,0x2
800005c4:	ff040713 	addi	a4,s0,-16
800005c8:	00f707b3 	add	a5,a4,a5
800005cc:	fbc7a703 	lw	a4,-68(a5)
800005d0:	fe442783 	lw	a5,-28(s0)
800005d4:	00279793 	slli	a5,a5,0x2
800005d8:	ff040693 	addi	a3,s0,-16
800005dc:	00f687b3 	add	a5,a3,a5
800005e0:	f6e7a223 	sw	a4,-156(a5)
800005e4:	fe442783 	lw	a5,-28(s0)
800005e8:	00178793 	addi	a5,a5,1
800005ec:	fef42223 	sw	a5,-28(s0)
800005f0:	fe442703 	lw	a4,-28(s0)
800005f4:	00a00793 	li	a5,10
800005f8:	fce7d2e3 	ble	a4,a5,800005bc <dtw_dynamicTimeWarping+0xcc>
800005fc:	fe042223 	sw	zero,-28(s0)
80000600:	0380006f 	j	80000638 <dtw_dynamicTimeWarping+0x148>
80000604:	fe442783 	lw	a5,-28(s0)
80000608:	00279793 	slli	a5,a5,0x2
8000060c:	ff040713 	addi	a4,s0,-16
80000610:	00f707b3 	add	a5,a4,a5
80000614:	f907a703 	lw	a4,-112(a5)
80000618:	fe442783 	lw	a5,-28(s0)
8000061c:	00279793 	slli	a5,a5,0x2
80000620:	ff040693 	addi	a3,s0,-16
80000624:	00f687b3 	add	a5,a3,a5
80000628:	fae7ae23 	sw	a4,-68(a5)
8000062c:	fe442783 	lw	a5,-28(s0)
80000630:	00178793 	addi	a5,a5,1
80000634:	fef42223 	sw	a5,-28(s0)
80000638:	fe442703 	lw	a4,-28(s0)
8000063c:	00a00793 	li	a5,10
80000640:	fce7d2e3 	ble	a4,a5,80000604 <dtw_dynamicTimeWarping+0x114>
80000644:	fe042223 	sw	zero,-28(s0)
80000648:	0380006f 	j	80000680 <dtw_dynamicTimeWarping+0x190>
8000064c:	fe442783 	lw	a5,-28(s0)
80000650:	00279793 	slli	a5,a5,0x2
80000654:	ff040713 	addi	a4,s0,-16
80000658:	00f707b3 	add	a5,a4,a5
8000065c:	f907a703 	lw	a4,-112(a5)
80000660:	fe442783 	lw	a5,-28(s0)
80000664:	00279793 	slli	a5,a5,0x2
80000668:	ff040693 	addi	a3,s0,-16
8000066c:	00f687b3 	add	a5,a3,a5
80000670:	f8e7a823 	sw	a4,-112(a5)
80000674:	fe442783 	lw	a5,-28(s0)
80000678:	00178793 	addi	a5,a5,1
8000067c:	fef42223 	sw	a5,-28(s0)
80000680:	fe442703 	lw	a4,-28(s0)
80000684:	00a00793 	li	a5,10
80000688:	fce7d2e3 	ble	a4,a5,8000064c <dtw_dynamicTimeWarping+0x15c>
8000068c:	fac42483 	lw	s1,-84(s0)
80000690:	fec42703 	lw	a4,-20(s0)
80000694:	02c00793 	li	a5,44
80000698:	02f707b3 	mul	a5,a4,a5
8000069c:	f4c42703 	lw	a4,-180(s0)
800006a0:	00f707b3 	add	a5,a4,a5
800006a4:	f4842583 	lw	a1,-184(s0)
800006a8:	00078513 	mv	a0,a5
800006ac:	d71ff0ef 	jal	ra,8000041c <dtw_euclideanDistance>
800006b0:	00050793 	mv	a5,a0
800006b4:	00f487b3 	add	a5,s1,a5
800006b8:	f8f42023 	sw	a5,-128(s0)
800006bc:	00100793 	li	a5,1
800006c0:	fef42423 	sw	a5,-24(s0)
800006c4:	0c80006f 	j	8000078c <dtw_dynamicTimeWarping+0x29c>
800006c8:	fe842783 	lw	a5,-24(s0)
800006cc:	00279793 	slli	a5,a5,0x2
800006d0:	ff040713 	addi	a4,s0,-16
800006d4:	00f707b3 	add	a5,a4,a5
800006d8:	fbc7a483 	lw	s1,-68(a5)
800006dc:	fe842783 	lw	a5,-24(s0)
800006e0:	fff78793 	addi	a5,a5,-1
800006e4:	00279793 	slli	a5,a5,0x2
800006e8:	ff040713 	addi	a4,s0,-16
800006ec:	00f707b3 	add	a5,a4,a5
800006f0:	fbc7a703 	lw	a4,-68(a5)
800006f4:	fe842783 	lw	a5,-24(s0)
800006f8:	fff78793 	addi	a5,a5,-1
800006fc:	00279793 	slli	a5,a5,0x2
80000700:	ff040693 	addi	a3,s0,-16
80000704:	00f687b3 	add	a5,a3,a5
80000708:	f907a783 	lw	a5,-112(a5)
8000070c:	00078593 	mv	a1,a5
80000710:	00070513 	mv	a0,a4
80000714:	da1ff0ef 	jal	ra,800004b4 <dtw_min>
80000718:	00050793 	mv	a5,a0
8000071c:	00078593 	mv	a1,a5
80000720:	00048513 	mv	a0,s1
80000724:	d91ff0ef 	jal	ra,800004b4 <dtw_min>
80000728:	fca42c23 	sw	a0,-40(s0)
8000072c:	fec42703 	lw	a4,-20(s0)
80000730:	02c00793 	li	a5,44
80000734:	02f707b3 	mul	a5,a4,a5
80000738:	f4c42703 	lw	a4,-180(s0)
8000073c:	00f706b3 	add	a3,a4,a5
80000740:	fe842703 	lw	a4,-24(s0)
80000744:	02c00793 	li	a5,44
80000748:	02f707b3 	mul	a5,a4,a5
8000074c:	f4842703 	lw	a4,-184(s0)
80000750:	00f707b3 	add	a5,a4,a5
80000754:	00078593 	mv	a1,a5
80000758:	00068513 	mv	a0,a3
8000075c:	cc1ff0ef 	jal	ra,8000041c <dtw_euclideanDistance>
80000760:	00050713 	mv	a4,a0
80000764:	fd842783 	lw	a5,-40(s0)
80000768:	00f70733 	add	a4,a4,a5
8000076c:	fe842783 	lw	a5,-24(s0)
80000770:	00279793 	slli	a5,a5,0x2
80000774:	ff040693 	addi	a3,s0,-16
80000778:	00f687b3 	add	a5,a3,a5
8000077c:	f8e7a823 	sw	a4,-112(a5)
80000780:	fe842783 	lw	a5,-24(s0)
80000784:	00178793 	addi	a5,a5,1
80000788:	fef42423 	sw	a5,-24(s0)
8000078c:	fe842703 	lw	a4,-24(s0)
80000790:	fdc42783 	lw	a5,-36(s0)
80000794:	f2e7dae3 	ble	a4,a5,800006c8 <dtw_dynamicTimeWarping+0x1d8>
80000798:	fec42783 	lw	a5,-20(s0)
8000079c:	00178793 	addi	a5,a5,1
800007a0:	fef42623 	sw	a5,-20(s0)
800007a4:	fec42703 	lw	a4,-20(s0)
800007a8:	fe042783 	lw	a5,-32(s0)
800007ac:	e0e7d4e3 	ble	a4,a5,800005b4 <dtw_dynamicTimeWarping+0xc4>
800007b0:	fdc42783 	lw	a5,-36(s0)
800007b4:	00279793 	slli	a5,a5,0x2
800007b8:	ff040713 	addi	a4,s0,-16
800007bc:	00f707b3 	add	a5,a4,a5
800007c0:	f907a783 	lw	a5,-112(a5)
800007c4:	00078513 	mv	a0,a5
800007c8:	0bc12083 	lw	ra,188(sp)
800007cc:	0b812403 	lw	s0,184(sp)
800007d0:	0b412483 	lw	s1,180(sp)
800007d4:	0c010113 	addi	sp,sp,192
800007d8:	00008067 	ret

800007dc <dtw_memset>:
800007dc:	fd010113 	addi	sp,sp,-48
800007e0:	02812623 	sw	s0,44(sp)
800007e4:	03010413 	addi	s0,sp,48
800007e8:	fca42e23 	sw	a0,-36(s0)
800007ec:	fcb42c23 	sw	a1,-40(s0)
800007f0:	fcc42a23 	sw	a2,-44(s0)
800007f4:	fdc42783 	lw	a5,-36(s0)
800007f8:	fef42623 	sw	a5,-20(s0)
800007fc:	01c0006f 	j	80000818 <dtw_memset+0x3c>
80000800:	fec42783 	lw	a5,-20(s0)
80000804:	00178713 	addi	a4,a5,1
80000808:	fee42623 	sw	a4,-20(s0)
8000080c:	fd842703 	lw	a4,-40(s0)
80000810:	0ff77713 	andi	a4,a4,255
80000814:	00e78023 	sb	a4,0(a5)
80000818:	fd442783 	lw	a5,-44(s0)
8000081c:	fff78713 	addi	a4,a5,-1
80000820:	fce42a23 	sw	a4,-44(s0)
80000824:	fcf04ee3 	bgtz	a5,80000800 <dtw_memset+0x24>
80000828:	fdc42783 	lw	a5,-36(s0)
8000082c:	00078513 	mv	a0,a5
80000830:	02c12403 	lw	s0,44(sp)
80000834:	03010113 	addi	sp,sp,48
80000838:	00008067 	ret

8000083c <dtw_memcpy>:
8000083c:	fd010113 	addi	sp,sp,-48
80000840:	02812623 	sw	s0,44(sp)
80000844:	03010413 	addi	s0,sp,48
80000848:	fca42e23 	sw	a0,-36(s0)
8000084c:	fcb42c23 	sw	a1,-40(s0)
80000850:	fcc42a23 	sw	a2,-44(s0)
80000854:	fd442783 	lw	a5,-44(s0)
80000858:	41f7d713 	srai	a4,a5,0x1f
8000085c:	00377713 	andi	a4,a4,3
80000860:	00f707b3 	add	a5,a4,a5
80000864:	4027d793 	srai	a5,a5,0x2
80000868:	fcf42a23 	sw	a5,-44(s0)
8000086c:	fd842783 	lw	a5,-40(s0)
80000870:	fef42423 	sw	a5,-24(s0)
80000874:	fdc42783 	lw	a5,-36(s0)
80000878:	fef42223 	sw	a5,-28(s0)
8000087c:	fe042623 	sw	zero,-20(s0)
80000880:	0380006f 	j	800008b8 <dtw_memcpy+0x7c>
80000884:	fec42783 	lw	a5,-20(s0)
80000888:	00279793 	slli	a5,a5,0x2
8000088c:	fe842703 	lw	a4,-24(s0)
80000890:	00f70733 	add	a4,a4,a5
80000894:	fec42783 	lw	a5,-20(s0)
80000898:	00279793 	slli	a5,a5,0x2
8000089c:	fe442683 	lw	a3,-28(s0)
800008a0:	00f687b3 	add	a5,a3,a5
800008a4:	00072703 	lw	a4,0(a4)
800008a8:	00e7a023 	sw	a4,0(a5)
800008ac:	fec42783 	lw	a5,-20(s0)
800008b0:	00178793 	addi	a5,a5,1
800008b4:	fef42623 	sw	a5,-20(s0)
800008b8:	fec42703 	lw	a4,-20(s0)
800008bc:	fd442783 	lw	a5,-44(s0)
800008c0:	fcf742e3 	blt	a4,a5,80000884 <dtw_memcpy+0x48>
800008c4:	00000013 	nop
800008c8:	02c12403 	lw	s0,44(sp)
800008cc:	03010113 	addi	sp,sp,48
800008d0:	00008067 	ret

800008d4 <main>:
800008d4:	fe010113 	addi	sp,sp,-32
800008d8:	00112e23 	sw	ra,28(sp)
800008dc:	00812c23 	sw	s0,24(sp)
800008e0:	02010413 	addi	s0,sp,32
800008e4:	00000797 	auipc	a5,0x0
800008e8:	3b078793 	addi	a5,a5,944 # 80000c94 <msg>
800008ec:	07900713 	li	a4,121
800008f0:	00e7a023 	sw	a4,0(a5)
800008f4:	00000797 	auipc	a5,0x0
800008f8:	34478793 	addi	a5,a5,836 # 80000c38 <start_print>
800008fc:	00078513 	mv	a0,a5
80000900:	845ff0ef 	jal	ra,80000144 <sys_Prints>
80000904:	1e400613 	li	a2,484
80000908:	00000597 	auipc	a1,0x0
8000090c:	13c58593 	addi	a1,a1,316 # 80000a44 <test.1109>
80000910:	00000517 	auipc	a0,0x0
80000914:	38850513 	addi	a0,a0,904 # 80000c98 <msg+0x4>
80000918:	f25ff0ef 	jal	ra,8000083c <dtw_memcpy>
8000091c:	fe042623 	sw	zero,-20(s0)
80000920:	03c0006f 	j	8000095c <main+0x88>
80000924:	00000697 	auipc	a3,0x0
80000928:	37068693 	addi	a3,a3,880 # 80000c94 <msg>
8000092c:	00000717 	auipc	a4,0x0
80000930:	2fc70713 	addi	a4,a4,764 # 80000c28 <P>
80000934:	fec42783 	lw	a5,-20(s0)
80000938:	00279793 	slli	a5,a5,0x2
8000093c:	00f707b3 	add	a5,a4,a5
80000940:	0007a783 	lw	a5,0(a5)
80000944:	00078593 	mv	a1,a5
80000948:	00068513 	mv	a0,a3
8000094c:	f5cff0ef 	jal	ra,800000a8 <sys_Send>
80000950:	fec42783 	lw	a5,-20(s0)
80000954:	00178793 	addi	a5,a5,1
80000958:	fef42623 	sw	a5,-20(s0)
8000095c:	fec42703 	lw	a4,-20(s0)
80000960:	00300793 	li	a5,3
80000964:	fce7d0e3 	ble	a4,a5,80000924 <main+0x50>
80000968:	00000797 	auipc	a5,0x0
8000096c:	2fc78793 	addi	a5,a5,764 # 80000c64 <warning_print>
80000970:	00078513 	mv	a0,a5
80000974:	fd0ff0ef 	jal	ra,80000144 <sys_Prints>
80000978:	fe042423 	sw	zero,-24(s0)
8000097c:	0900006f 	j	80000a0c <main+0x138>
80000980:	fe042623 	sw	zero,-20(s0)
80000984:	03c0006f 	j	800009c0 <main+0xec>
80000988:	00000697 	auipc	a3,0x0
8000098c:	30c68693 	addi	a3,a3,780 # 80000c94 <msg>
80000990:	00000717 	auipc	a4,0x0
80000994:	29870713 	addi	a4,a4,664 # 80000c28 <P>
80000998:	fec42783 	lw	a5,-20(s0)
8000099c:	00279793 	slli	a5,a5,0x2
800009a0:	00f707b3 	add	a5,a4,a5
800009a4:	0007a783 	lw	a5,0(a5)
800009a8:	00078593 	mv	a1,a5
800009ac:	00068513 	mv	a0,a3
800009b0:	ea8ff0ef 	jal	ra,80000058 <sys_Receive>
800009b4:	fec42783 	lw	a5,-20(s0)
800009b8:	00178793 	addi	a5,a5,1
800009bc:	fef42623 	sw	a5,-20(s0)
800009c0:	fec42703 	lw	a4,-20(s0)
800009c4:	00300793 	li	a5,3
800009c8:	fce7d0e3 	ble	a4,a5,80000988 <main+0xb4>
800009cc:	fe842783 	lw	a5,-24(s0)
800009d0:	00078513 	mv	a0,a5
800009d4:	f24ff0ef 	jal	ra,800000f8 <sys_Printi>
800009d8:	00000797 	auipc	a5,0x0
800009dc:	2ac78793 	addi	a5,a5,684 # 80000c84 <progress_print>
800009e0:	00078513 	mv	a0,a5
800009e4:	f60ff0ef 	jal	ra,80000144 <sys_Prints>
800009e8:	03200513 	li	a0,50
800009ec:	f0cff0ef 	jal	ra,800000f8 <sys_Printi>
800009f0:	00000797 	auipc	a5,0x0
800009f4:	29c78793 	addi	a5,a5,668 # 80000c8c <progress2_print>
800009f8:	00078513 	mv	a0,a5
800009fc:	f48ff0ef 	jal	ra,80000144 <sys_Prints>
80000a00:	fe842783 	lw	a5,-24(s0)
80000a04:	00178793 	addi	a5,a5,1
80000a08:	fef42423 	sw	a5,-24(s0)
80000a0c:	fe842703 	lw	a4,-24(s0)
80000a10:	03100793 	li	a5,49
80000a14:	f6e7d6e3 	ble	a4,a5,80000980 <main+0xac>
80000a18:	00000797 	auipc	a5,0x0
80000a1c:	23478793 	addi	a5,a5,564 # 80000c4c <finish_print>
80000a20:	00078513 	mv	a0,a5
80000a24:	f20ff0ef 	jal	ra,80000144 <sys_Prints>
80000a28:	f68ff0ef 	jal	ra,80000190 <sys_Finish>
80000a2c:	00000793 	li	a5,0
80000a30:	00078513 	mv	a0,a5
80000a34:	01c12083 	lw	ra,28(sp)
80000a38:	01812403 	lw	s0,24(sp)
80000a3c:	02010113 	addi	sp,sp,32
80000a40:	00008067 	ret

Disassembly of section .rodata:

80000a44 <test.1109>:
80000a44:	00000000     ....
80000a48:	00000001     ....
80000a4c:	00000002     ....
80000a50:	00000003     ....
80000a54:	00000004     ....
80000a58:	00000005     ....
80000a5c:	00000006     ....
80000a60:	00000007     ....
80000a64:	00000008     ....
80000a68:	00000009     ....
80000a6c:	00000000     ....
80000a70:	00000000     ....
80000a74:	00000001     ....
80000a78:	00000002     ....
80000a7c:	00000003     ....
80000a80:	00000004     ....
80000a84:	00000005     ....
80000a88:	00000006     ....
80000a8c:	00000007     ....
80000a90:	00000008     ....
80000a94:	00000009     ....
80000a98:	00000000     ....
80000a9c:	00000000     ....
80000aa0:	00000001     ....
80000aa4:	00000002     ....
80000aa8:	00000003     ....
80000aac:	00000004     ....
80000ab0:	00000005     ....
80000ab4:	00000006     ....
80000ab8:	00000007     ....
80000abc:	00000008     ....
80000ac0:	00000009     ....
80000ac4:	00000000     ....
80000ac8:	00000000     ....
80000acc:	00000001     ....
80000ad0:	00000002     ....
80000ad4:	00000003     ....
80000ad8:	00000004     ....
80000adc:	00000005     ....
80000ae0:	00000006     ....
80000ae4:	00000007     ....
80000ae8:	00000008     ....
80000aec:	00000009     ....
80000af0:	00000000     ....
80000af4:	00000000     ....
80000af8:	00000001     ....
80000afc:	00000002     ....
80000b00:	00000003     ....
80000b04:	00000004     ....
80000b08:	00000005     ....
80000b0c:	00000006     ....
80000b10:	00000007     ....
80000b14:	00000008     ....
80000b18:	00000009     ....
80000b1c:	00000000     ....
80000b20:	00000000     ....
80000b24:	00000001     ....
80000b28:	00000002     ....
80000b2c:	00000003     ....
80000b30:	00000004     ....
80000b34:	00000005     ....
80000b38:	00000006     ....
80000b3c:	00000007     ....
80000b40:	00000008     ....
80000b44:	00000009     ....
80000b48:	00000000     ....
80000b4c:	00000000     ....
80000b50:	00000001     ....
80000b54:	00000002     ....
80000b58:	00000003     ....
80000b5c:	00000004     ....
80000b60:	00000005     ....
80000b64:	00000006     ....
80000b68:	00000007     ....
80000b6c:	00000008     ....
80000b70:	00000009     ....
80000b74:	00000000     ....
80000b78:	00000000     ....
80000b7c:	00000001     ....
80000b80:	00000002     ....
80000b84:	00000003     ....
80000b88:	00000004     ....
80000b8c:	00000005     ....
80000b90:	00000006     ....
80000b94:	00000007     ....
80000b98:	00000008     ....
80000b9c:	00000009     ....
80000ba0:	00000000     ....
80000ba4:	00000000     ....
80000ba8:	00000001     ....
80000bac:	00000002     ....
80000bb0:	00000003     ....
80000bb4:	00000004     ....
80000bb8:	00000005     ....
80000bbc:	00000006     ....
80000bc0:	00000007     ....
80000bc4:	00000008     ....
80000bc8:	00000009     ....
80000bcc:	00000000     ....
80000bd0:	00000000     ....
80000bd4:	00000001     ....
80000bd8:	00000002     ....
80000bdc:	00000003     ....
80000be0:	00000004     ....
80000be4:	00000005     ....
80000be8:	00000006     ....
80000bec:	00000007     ....
80000bf0:	00000008     ....
80000bf4:	00000009     ....
80000bf8:	00000000     ....
80000bfc:	00000000     ....
80000c00:	00000001     ....
80000c04:	00000002     ....
80000c08:	00000003     ....
80000c0c:	00000004     ....
80000c10:	00000005     ....
80000c14:	00000006     ....
80000c18:	00000007     ....
80000c1c:	00000008     ....
80000c20:	00000009     ....
80000c24:	00000000     ....

Disassembly of section .data:

80000c28 <P>:
80000c28:	00000001     ....
80000c2c:	00000002     ....
80000c30:	00000003     ....
80000c34:	00000004     ....

80000c38 <start_print>:
80000c38:	6f636552     Reco
80000c3c:	7a696e67     gniz
80000c40:	49207265     er I
80000c44:	0a54494e     NIT.
80000c48:	00000000     ....

80000c4c <finish_print>:
80000c4c:	6f636552     Reco
80000c50:	7a696e67     gniz
80000c54:	46207265     er F
80000c58:	53494e49     INIS
80000c5c:	0a444548     HED.
80000c60:	00000000     ....

80000c64 <warning_print>:
80000c64:	74736554     Test
80000c68:	73797320      sys
80000c6c:	6e65535f     _Sen
80000c70:	64646564     dedd
80000c74:	206f7420      to 
80000c78:	206c6c61     all 
80000c7c:	6b736174     task
80000c80:	00000a73     s...

80000c84 <progress_print>:
80000c84:	20666f20      of 
80000c88:	00000000     ....

80000c8c <progress2_print>:
80000c8c:	2e2e2e20      ...
80000c90:	000a3b20      ;..

Disassembly of section .bss:

80000c94 <msg>:
80000c94:	00000000     ....
80000c98:	00000000     ....
80000c9c:	00000000     ....
80000ca0:	00000000     ....
80000ca4:	00000000     ....
80000ca8:	00000000     ....
80000cac:	00000000     ....
80000cb0:	00000000     ....
80000cb4:	00000000     ....
80000cb8:	00000000     ....
80000cbc:	00000000     ....
80000cc0:	00000000     ....
80000cc4:	00000000     ....
80000cc8:	00000000     ....
80000ccc:	00000000     ....
80000cd0:	00000000     ....
80000cd4:	00000000     ....
80000cd8:	00000000     ....
80000cdc:	00000000     ....
80000ce0:	00000000     ....
80000ce4:	00000000     ....
80000ce8:	00000000     ....
80000cec:	00000000     ....
80000cf0:	00000000     ....
80000cf4:	00000000     ....
80000cf8:	00000000     ....
80000cfc:	00000000     ....
80000d00:	00000000     ....
80000d04:	00000000     ....
80000d08:	00000000     ....
80000d0c:	00000000     ....
80000d10:	00000000     ....
80000d14:	00000000     ....
80000d18:	00000000     ....
80000d1c:	00000000     ....
80000d20:	00000000     ....
80000d24:	00000000     ....
80000d28:	00000000     ....
80000d2c:	00000000     ....
80000d30:	00000000     ....
80000d34:	00000000     ....
80000d38:	00000000     ....
80000d3c:	00000000     ....
80000d40:	00000000     ....
80000d44:	00000000     ....
80000d48:	00000000     ....
80000d4c:	00000000     ....
80000d50:	00000000     ....
80000d54:	00000000     ....
80000d58:	00000000     ....
80000d5c:	00000000     ....
80000d60:	00000000     ....
80000d64:	00000000     ....
80000d68:	00000000     ....
80000d6c:	00000000     ....
80000d70:	00000000     ....
80000d74:	00000000     ....
80000d78:	00000000     ....
80000d7c:	00000000     ....
80000d80:	00000000     ....
80000d84:	00000000     ....
80000d88:	00000000     ....
80000d8c:	00000000     ....
80000d90:	00000000     ....
80000d94:	00000000     ....
80000d98:	00000000     ....
80000d9c:	00000000     ....
80000da0:	00000000     ....
80000da4:	00000000     ....
80000da8:	00000000     ....
80000dac:	00000000     ....
80000db0:	00000000     ....
80000db4:	00000000     ....
80000db8:	00000000     ....
80000dbc:	00000000     ....
80000dc0:	00000000     ....
80000dc4:	00000000     ....
80000dc8:	00000000     ....
80000dcc:	00000000     ....
80000dd0:	00000000     ....
80000dd4:	00000000     ....
80000dd8:	00000000     ....
80000ddc:	00000000     ....
80000de0:	00000000     ....
80000de4:	00000000     ....
80000de8:	00000000     ....
80000dec:	00000000     ....
80000df0:	00000000     ....
80000df4:	00000000     ....
80000df8:	00000000     ....
80000dfc:	00000000     ....
80000e00:	00000000     ....
80000e04:	00000000     ....
80000e08:	00000000     ....
80000e0c:	00000000     ....
80000e10:	00000000     ....
80000e14:	00000000     ....
80000e18:	00000000     ....
80000e1c:	00000000     ....
80000e20:	00000000     ....
80000e24:	00000000     ....
80000e28:	00000000     ....
80000e2c:	00000000     ....
80000e30:	00000000     ....
80000e34:	00000000     ....
80000e38:	00000000     ....
80000e3c:	00000000     ....
80000e40:	00000000     ....
80000e44:	00000000     ....
80000e48:	00000000     ....
80000e4c:	00000000     ....
80000e50:	00000000     ....
80000e54:	00000000     ....
80000e58:	00000000     ....
80000e5c:	00000000     ....
80000e60:	00000000     ....
80000e64:	00000000     ....
80000e68:	00000000     ....
80000e6c:	00000000     ....
80000e70:	00000000     ....
80000e74:	00000000     ....
80000e78:	00000000     ....
80000e7c:	00000000     ....
80000e80:	00000000     ....
80000e84:	00000000     ....
80000e88:	00000000     ....
80000e8c:	00000000     ....
80000e90:	00000000     ....
80000e94:	00000000     ....
