
dijkstra_3.elf:     file format elf32-littleriscv


Disassembly of section .text:

80000000 <__internal_syscall>:
80000000:	fd010113 	addi	sp,sp,-48
80000004:	02812623 	sw	s0,44(sp)
80000008:	03010413 	addi	s0,sp,48
8000000c:	fea42623 	sw	a0,-20(s0)
80000010:	feb42423 	sw	a1,-24(s0)
80000014:	fec42223 	sw	a2,-28(s0)
80000018:	fed42023 	sw	a3,-32(s0)
8000001c:	fce42e23 	sw	a4,-36(s0)
80000020:	fcf42c23 	sw	a5,-40(s0)
80000024:	fd042a23 	sw	a6,-44(s0)
80000028:	fe842503 	lw	a0,-24(s0)
8000002c:	fe442583 	lw	a1,-28(s0)
80000030:	fe042603 	lw	a2,-32(s0)
80000034:	fdc42683 	lw	a3,-36(s0)
80000038:	fd842703 	lw	a4,-40(s0)
8000003c:	fd442783 	lw	a5,-44(s0)
80000040:	fec42883 	lw	a7,-20(s0)
80000044:	00000073 	ecall
80000048:	00000013 	nop
8000004c:	02c12403 	lw	s0,44(sp)
80000050:	03010113 	addi	sp,sp,48
80000054:	00008067 	ret

80000058 <sys_Receive>:
80000058:	fe010113 	addi	sp,sp,-32
8000005c:	00112e23 	sw	ra,28(sp)
80000060:	00812c23 	sw	s0,24(sp)
80000064:	02010413 	addi	s0,sp,32
80000068:	fea42623 	sw	a0,-20(s0)
8000006c:	feb42423 	sw	a1,-24(s0)
80000070:	fec42583 	lw	a1,-20(s0)
80000074:	fe842603 	lw	a2,-24(s0)
80000078:	00000813 	li	a6,0
8000007c:	00000793 	li	a5,0
80000080:	00000713 	li	a4,0
80000084:	00000693 	li	a3,0
80000088:	01e00513 	li	a0,30
8000008c:	f75ff0ef 	jal	ra,80000000 <__internal_syscall>
80000090:	00100793 	li	a5,1
80000094:	00078513 	mv	a0,a5
80000098:	01c12083 	lw	ra,28(sp)
8000009c:	01812403 	lw	s0,24(sp)
800000a0:	02010113 	addi	sp,sp,32
800000a4:	00008067 	ret

800000a8 <sys_Send>:
800000a8:	fe010113 	addi	sp,sp,-32
800000ac:	00112e23 	sw	ra,28(sp)
800000b0:	00812c23 	sw	s0,24(sp)
800000b4:	02010413 	addi	s0,sp,32
800000b8:	fea42623 	sw	a0,-20(s0)
800000bc:	feb42423 	sw	a1,-24(s0)
800000c0:	fec42583 	lw	a1,-20(s0)
800000c4:	fe842603 	lw	a2,-24(s0)
800000c8:	00000813 	li	a6,0
800000cc:	00000793 	li	a5,0
800000d0:	00000713 	li	a4,0
800000d4:	00000693 	li	a3,0
800000d8:	01400513 	li	a0,20
800000dc:	f25ff0ef 	jal	ra,80000000 <__internal_syscall>
800000e0:	00100793 	li	a5,1
800000e4:	00078513 	mv	a0,a5
800000e8:	01c12083 	lw	ra,28(sp)
800000ec:	01812403 	lw	s0,24(sp)
800000f0:	02010113 	addi	sp,sp,32
800000f4:	00008067 	ret

800000f8 <sys_Printi>:
800000f8:	fe010113 	addi	sp,sp,-32
800000fc:	00112e23 	sw	ra,28(sp)
80000100:	00812c23 	sw	s0,24(sp)
80000104:	02010413 	addi	s0,sp,32
80000108:	fea42623 	sw	a0,-20(s0)
8000010c:	fec42583 	lw	a1,-20(s0)
80000110:	00000813 	li	a6,0
80000114:	00000793 	li	a5,0
80000118:	00000713 	li	a4,0
8000011c:	00000693 	li	a3,0
80000120:	00000613 	li	a2,0
80000124:	02800513 	li	a0,40
80000128:	ed9ff0ef 	jal	ra,80000000 <__internal_syscall>
8000012c:	00100793 	li	a5,1
80000130:	00078513 	mv	a0,a5
80000134:	01c12083 	lw	ra,28(sp)
80000138:	01812403 	lw	s0,24(sp)
8000013c:	02010113 	addi	sp,sp,32
80000140:	00008067 	ret

80000144 <sys_Prints>:
80000144:	fe010113 	addi	sp,sp,-32
80000148:	00112e23 	sw	ra,28(sp)
8000014c:	00812c23 	sw	s0,24(sp)
80000150:	02010413 	addi	s0,sp,32
80000154:	fea42623 	sw	a0,-20(s0)
80000158:	fec42583 	lw	a1,-20(s0)
8000015c:	00000813 	li	a6,0
80000160:	00000793 	li	a5,0
80000164:	00000713 	li	a4,0
80000168:	00000693 	li	a3,0
8000016c:	00000613 	li	a2,0
80000170:	03200513 	li	a0,50
80000174:	e8dff0ef 	jal	ra,80000000 <__internal_syscall>
80000178:	00100793 	li	a5,1
8000017c:	00078513 	mv	a0,a5
80000180:	01c12083 	lw	ra,28(sp)
80000184:	01812403 	lw	s0,24(sp)
80000188:	02010113 	addi	sp,sp,32
8000018c:	00008067 	ret

80000190 <sys_Finish>:
80000190:	ff010113 	addi	sp,sp,-16
80000194:	00112623 	sw	ra,12(sp)
80000198:	00812423 	sw	s0,8(sp)
8000019c:	01010413 	addi	s0,sp,16
800001a0:	00000813 	li	a6,0
800001a4:	00000793 	li	a5,0
800001a8:	00000713 	li	a4,0
800001ac:	00000693 	li	a3,0
800001b0:	00000613 	li	a2,0
800001b4:	00000593 	li	a1,0
800001b8:	00a00513 	li	a0,10
800001bc:	e45ff0ef 	jal	ra,80000000 <__internal_syscall>
800001c0:	00100793 	li	a5,1
800001c4:	00078513 	mv	a0,a5
800001c8:	00c12083 	lw	ra,12(sp)
800001cc:	00812403 	lw	s0,8(sp)
800001d0:	01010113 	addi	sp,sp,16
800001d4:	00008067 	ret

800001d8 <sys_Testing>:
800001d8:	fd010113 	addi	sp,sp,-48
800001dc:	02112623 	sw	ra,44(sp)
800001e0:	02812423 	sw	s0,40(sp)
800001e4:	03010413 	addi	s0,sp,48
800001e8:	fea42623 	sw	a0,-20(s0)
800001ec:	feb42423 	sw	a1,-24(s0)
800001f0:	fec42223 	sw	a2,-28(s0)
800001f4:	fed42023 	sw	a3,-32(s0)
800001f8:	fce42e23 	sw	a4,-36(s0)
800001fc:	fcf42c23 	sw	a5,-40(s0)
80000200:	fec42583 	lw	a1,-20(s0)
80000204:	fe842603 	lw	a2,-24(s0)
80000208:	fe442683 	lw	a3,-28(s0)
8000020c:	fe042703 	lw	a4,-32(s0)
80000210:	fdc42783 	lw	a5,-36(s0)
80000214:	fd842503 	lw	a0,-40(s0)
80000218:	00050813 	mv	a6,a0
8000021c:	04200513 	li	a0,66
80000220:	de1ff0ef 	jal	ra,80000000 <__internal_syscall>
80000224:	00100793 	li	a5,1
80000228:	00078513 	mv	a0,a5
8000022c:	02c12083 	lw	ra,44(sp)
80000230:	02812403 	lw	s0,40(sp)
80000234:	03010113 	addi	sp,sp,48
80000238:	00008067 	ret

8000023c <memcpy>:
8000023c:	fd010113 	addi	sp,sp,-48
80000240:	02812623 	sw	s0,44(sp)
80000244:	03010413 	addi	s0,sp,48
80000248:	fca42e23 	sw	a0,-36(s0)
8000024c:	fcb42c23 	sw	a1,-40(s0)
80000250:	fcc42a23 	sw	a2,-44(s0)
80000254:	fd842783 	lw	a5,-40(s0)
80000258:	fef42423 	sw	a5,-24(s0)
8000025c:	fdc42783 	lw	a5,-36(s0)
80000260:	fef42223 	sw	a5,-28(s0)
80000264:	fe042623 	sw	zero,-20(s0)
80000268:	0300006f 	j	80000298 <memcpy+0x5c>
8000026c:	fec42783 	lw	a5,-20(s0)
80000270:	fe842703 	lw	a4,-24(s0)
80000274:	00f70733 	add	a4,a4,a5
80000278:	fec42783 	lw	a5,-20(s0)
8000027c:	fe442683 	lw	a3,-28(s0)
80000280:	00f687b3 	add	a5,a3,a5
80000284:	00074703 	lbu	a4,0(a4)
80000288:	00e78023 	sb	a4,0(a5)
8000028c:	fec42783 	lw	a5,-20(s0)
80000290:	00178793 	addi	a5,a5,1
80000294:	fef42623 	sw	a5,-20(s0)
80000298:	fec42783 	lw	a5,-20(s0)
8000029c:	fd442703 	lw	a4,-44(s0)
800002a0:	fce7e6e3 	bltu	a5,a4,8000026c <memcpy+0x30>
800002a4:	00000013 	nop
800002a8:	02c12403 	lw	s0,44(sp)
800002ac:	03010113 	addi	sp,sp,48
800002b0:	00008067 	ret

800002b4 <main>:
800002b4:	b1010113 	addi	sp,sp,-1264
800002b8:	4e112623 	sw	ra,1260(sp)
800002bc:	4e812423 	sw	s0,1256(sp)
800002c0:	4f010413 	addi	s0,sp,1264
800002c4:	fc042c23 	sw	zero,-40(s0)
800002c8:	fc042a23 	sw	zero,-44(s0)
800002cc:	00000797 	auipc	a5,0x0
800002d0:	41878793 	addi	a5,a5,1048 # 800006e4 <start_print>
800002d4:	00078513 	mv	a0,a5
800002d8:	e6dff0ef 	jal	ra,80000144 <sys_Prints>
800002dc:	00000797 	auipc	a5,0x0
800002e0:	42078793 	addi	a5,a5,1056 # 800006fc <msg>
800002e4:	01000713 	li	a4,16
800002e8:	00e7a023 	sw	a4,0(a5)
800002ec:	fe042623 	sw	zero,-20(s0)
800002f0:	0800006f 	j	80000370 <main+0xbc>
800002f4:	00000797 	auipc	a5,0x0
800002f8:	40878793 	addi	a5,a5,1032 # 800006fc <msg>
800002fc:	00600593 	li	a1,6
80000300:	00078513 	mv	a0,a5
80000304:	d55ff0ef 	jal	ra,80000058 <sys_Receive>
80000308:	fe042423 	sw	zero,-24(s0)
8000030c:	04c0006f 	j	80000358 <main+0xa4>
80000310:	00000717 	auipc	a4,0x0
80000314:	3ec70713 	addi	a4,a4,1004 # 800006fc <msg>
80000318:	fe842783 	lw	a5,-24(s0)
8000031c:	00279793 	slli	a5,a5,0x2
80000320:	00f707b3 	add	a5,a4,a5
80000324:	0047a783 	lw	a5,4(a5)
80000328:	00078693 	mv	a3,a5
8000032c:	fec42783 	lw	a5,-20(s0)
80000330:	00479713 	slli	a4,a5,0x4
80000334:	fe842783 	lw	a5,-24(s0)
80000338:	00f707b3 	add	a5,a4,a5
8000033c:	00279793 	slli	a5,a5,0x2
80000340:	ff040713 	addi	a4,s0,-16
80000344:	00f707b3 	add	a5,a4,a5
80000348:	b2d7a023 	sw	a3,-1248(a5)
8000034c:	fe842783 	lw	a5,-24(s0)
80000350:	00178793 	addi	a5,a5,1
80000354:	fef42423 	sw	a5,-24(s0)
80000358:	fe842703 	lw	a4,-24(s0)
8000035c:	00f00793 	li	a5,15
80000360:	fae7d8e3 	ble	a4,a5,80000310 <main+0x5c>
80000364:	fec42783 	lw	a5,-20(s0)
80000368:	00178793 	addi	a5,a5,1
8000036c:	fef42623 	sw	a5,-20(s0)
80000370:	fec42703 	lw	a4,-20(s0)
80000374:	00f00793 	li	a5,15
80000378:	f6e7dee3 	ble	a4,a5,800002f4 <main+0x40>
8000037c:	b1042783 	lw	a5,-1264(s0)
80000380:	fcf42a23 	sw	a5,-44(s0)
80000384:	fd442703 	lw	a4,-44(s0)
80000388:	000187b7 	lui	a5,0x18
8000038c:	69f78793 	addi	a5,a5,1695 # 1869f <__internal_syscall-0x7ffe7961>
80000390:	24f70263 	beq	a4,a5,800005d4 <main+0x320>
80000394:	fe042623 	sw	zero,-20(s0)
80000398:	0600006f 	j	800003f8 <main+0x144>
8000039c:	fec42783 	lw	a5,-20(s0)
800003a0:	00279793 	slli	a5,a5,0x2
800003a4:	ff040713 	addi	a4,s0,-16
800003a8:	00f707b3 	add	a5,a4,a5
800003ac:	00002737 	lui	a4,0x2
800003b0:	70f70713 	addi	a4,a4,1807 # 270f <__internal_syscall-0x7fffd8f1>
800003b4:	f6e7a023 	sw	a4,-160(a5)
800003b8:	fec42783 	lw	a5,-20(s0)
800003bc:	00279793 	slli	a5,a5,0x2
800003c0:	ff040713 	addi	a4,s0,-16
800003c4:	00f707b3 	add	a5,a4,a5
800003c8:	00002737 	lui	a4,0x2
800003cc:	70f70713 	addi	a4,a4,1807 # 270f <__internal_syscall-0x7fffd8f1>
800003d0:	f2e7a023 	sw	a4,-224(a5)
800003d4:	fec42783 	lw	a5,-20(s0)
800003d8:	00279793 	slli	a5,a5,0x2
800003dc:	ff040713 	addi	a4,s0,-16
800003e0:	00f707b3 	add	a5,a4,a5
800003e4:	fec42703 	lw	a4,-20(s0)
800003e8:	fae7a023 	sw	a4,-96(a5)
800003ec:	fec42783 	lw	a5,-20(s0)
800003f0:	00178793 	addi	a5,a5,1
800003f4:	fef42623 	sw	a5,-20(s0)
800003f8:	fec42703 	lw	a4,-20(s0)
800003fc:	00f00793 	li	a5,15
80000400:	f8e7dee3 	ble	a4,a5,8000039c <main+0xe8>
80000404:	fd842783 	lw	a5,-40(s0)
80000408:	00279793 	slli	a5,a5,0x2
8000040c:	ff040713 	addi	a4,s0,-16
80000410:	00f707b3 	add	a5,a4,a5
80000414:	f607a023 	sw	zero,-160(a5)
80000418:	fe042623 	sw	zero,-20(s0)
8000041c:	1a80006f 	j	800005c4 <main+0x310>
80000420:	000027b7 	lui	a5,0x2
80000424:	70f78793 	addi	a5,a5,1807 # 270f <__internal_syscall-0x7fffd8f1>
80000428:	fef42023 	sw	a5,-32(s0)
8000042c:	fe042423 	sw	zero,-24(s0)
80000430:	06c0006f 	j	8000049c <main+0x1e8>
80000434:	fe842783 	lw	a5,-24(s0)
80000438:	00279793 	slli	a5,a5,0x2
8000043c:	ff040713 	addi	a4,s0,-16
80000440:	00f707b3 	add	a5,a4,a5
80000444:	f607a783 	lw	a5,-160(a5)
80000448:	fe042703 	lw	a4,-32(s0)
8000044c:	04e7d263 	ble	a4,a5,80000490 <main+0x1dc>
80000450:	fe842783 	lw	a5,-24(s0)
80000454:	00279793 	slli	a5,a5,0x2
80000458:	ff040713 	addi	a4,s0,-16
8000045c:	00f707b3 	add	a5,a4,a5
80000460:	fa07a703 	lw	a4,-96(a5)
80000464:	000027b7 	lui	a5,0x2
80000468:	70f78793 	addi	a5,a5,1807 # 270f <__internal_syscall-0x7fffd8f1>
8000046c:	02f70263 	beq	a4,a5,80000490 <main+0x1dc>
80000470:	fe842783 	lw	a5,-24(s0)
80000474:	00279793 	slli	a5,a5,0x2
80000478:	ff040713 	addi	a4,s0,-16
8000047c:	00f707b3 	add	a5,a4,a5
80000480:	f607a783 	lw	a5,-160(a5)
80000484:	fef42023 	sw	a5,-32(s0)
80000488:	fe842783 	lw	a5,-24(s0)
8000048c:	fcf42e23 	sw	a5,-36(s0)
80000490:	fe842783 	lw	a5,-24(s0)
80000494:	00178793 	addi	a5,a5,1
80000498:	fef42423 	sw	a5,-24(s0)
8000049c:	fe842703 	lw	a4,-24(s0)
800004a0:	00f00793 	li	a5,15
800004a4:	f8e7d8e3 	ble	a4,a5,80000434 <main+0x180>
800004a8:	fdc42783 	lw	a5,-36(s0)
800004ac:	00279793 	slli	a5,a5,0x2
800004b0:	ff040713 	addi	a4,s0,-16
800004b4:	00f707b3 	add	a5,a4,a5
800004b8:	00002737 	lui	a4,0x2
800004bc:	70f70713 	addi	a4,a4,1807 # 270f <__internal_syscall-0x7fffd8f1>
800004c0:	fae7a023 	sw	a4,-96(a5)
800004c4:	fe042223 	sw	zero,-28(s0)
800004c8:	0e40006f 	j	800005ac <main+0x2f8>
800004cc:	fe442783 	lw	a5,-28(s0)
800004d0:	00279793 	slli	a5,a5,0x2
800004d4:	ff040713 	addi	a4,s0,-16
800004d8:	00f707b3 	add	a5,a4,a5
800004dc:	fa07a703 	lw	a4,-96(a5)
800004e0:	000027b7 	lui	a5,0x2
800004e4:	70f78793 	addi	a5,a5,1807 # 270f <__internal_syscall-0x7fffd8f1>
800004e8:	0af70c63 	beq	a4,a5,800005a0 <main+0x2ec>
800004ec:	fdc42783 	lw	a5,-36(s0)
800004f0:	00479713 	slli	a4,a5,0x4
800004f4:	fe442783 	lw	a5,-28(s0)
800004f8:	00f707b3 	add	a5,a4,a5
800004fc:	00279793 	slli	a5,a5,0x2
80000500:	ff040713 	addi	a4,s0,-16
80000504:	00f707b3 	add	a5,a4,a5
80000508:	b207a703 	lw	a4,-1248(a5)
8000050c:	000027b7 	lui	a5,0x2
80000510:	70f78793 	addi	a5,a5,1807 # 270f <__internal_syscall-0x7fffd8f1>
80000514:	08f70663 	beq	a4,a5,800005a0 <main+0x2ec>
80000518:	fdc42783 	lw	a5,-36(s0)
8000051c:	00279793 	slli	a5,a5,0x2
80000520:	ff040713 	addi	a4,s0,-16
80000524:	00f707b3 	add	a5,a4,a5
80000528:	f607a703 	lw	a4,-160(a5)
8000052c:	fdc42783 	lw	a5,-36(s0)
80000530:	00479693 	slli	a3,a5,0x4
80000534:	fe442783 	lw	a5,-28(s0)
80000538:	00f687b3 	add	a5,a3,a5
8000053c:	00279793 	slli	a5,a5,0x2
80000540:	ff040693 	addi	a3,s0,-16
80000544:	00f687b3 	add	a5,a3,a5
80000548:	b207a783 	lw	a5,-1248(a5)
8000054c:	00f707b3 	add	a5,a4,a5
80000550:	fcf42823 	sw	a5,-48(s0)
80000554:	fe442783 	lw	a5,-28(s0)
80000558:	00279793 	slli	a5,a5,0x2
8000055c:	ff040713 	addi	a4,s0,-16
80000560:	00f707b3 	add	a5,a4,a5
80000564:	f607a783 	lw	a5,-160(a5)
80000568:	fd042703 	lw	a4,-48(s0)
8000056c:	02f75a63 	ble	a5,a4,800005a0 <main+0x2ec>
80000570:	fe442783 	lw	a5,-28(s0)
80000574:	00279793 	slli	a5,a5,0x2
80000578:	ff040713 	addi	a4,s0,-16
8000057c:	00f707b3 	add	a5,a4,a5
80000580:	fd042703 	lw	a4,-48(s0)
80000584:	f6e7a023 	sw	a4,-160(a5)
80000588:	fe442783 	lw	a5,-28(s0)
8000058c:	00279793 	slli	a5,a5,0x2
80000590:	ff040713 	addi	a4,s0,-16
80000594:	00f707b3 	add	a5,a4,a5
80000598:	fdc42703 	lw	a4,-36(s0)
8000059c:	f2e7a023 	sw	a4,-224(a5)
800005a0:	fe442783 	lw	a5,-28(s0)
800005a4:	00178793 	addi	a5,a5,1
800005a8:	fef42223 	sw	a5,-28(s0)
800005ac:	fe442703 	lw	a4,-28(s0)
800005b0:	00f00793 	li	a5,15
800005b4:	f0e7dce3 	ble	a4,a5,800004cc <main+0x218>
800005b8:	fec42783 	lw	a5,-20(s0)
800005bc:	00178793 	addi	a5,a5,1
800005c0:	fef42623 	sw	a5,-20(s0)
800005c4:	fec42703 	lw	a4,-20(s0)
800005c8:	00f00793 	li	a5,15
800005cc:	e4e7dae3 	ble	a4,a5,80000420 <main+0x16c>
800005d0:	d0dff06f 	j	800002dc <main+0x28>
800005d4:	00000013 	nop
800005d8:	00000797 	auipc	a5,0x0
800005dc:	12478793 	addi	a5,a5,292 # 800006fc <msg>
800005e0:	02000713 	li	a4,32
800005e4:	00e7a023 	sw	a4,0(a5)
800005e8:	fe042623 	sw	zero,-20(s0)
800005ec:	0400006f 	j	8000062c <main+0x378>
800005f0:	fec42783 	lw	a5,-20(s0)
800005f4:	00279793 	slli	a5,a5,0x2
800005f8:	ff040713 	addi	a4,s0,-16
800005fc:	00f707b3 	add	a5,a4,a5
80000600:	f607a783 	lw	a5,-160(a5)
80000604:	00078693 	mv	a3,a5
80000608:	00000717 	auipc	a4,0x0
8000060c:	0f470713 	addi	a4,a4,244 # 800006fc <msg>
80000610:	fec42783 	lw	a5,-20(s0)
80000614:	00279793 	slli	a5,a5,0x2
80000618:	00f707b3 	add	a5,a4,a5
8000061c:	00d7a223 	sw	a3,4(a5)
80000620:	fec42783 	lw	a5,-20(s0)
80000624:	00178793 	addi	a5,a5,1
80000628:	fef42623 	sw	a5,-20(s0)
8000062c:	fec42703 	lw	a4,-20(s0)
80000630:	00f00793 	li	a5,15
80000634:	fae7dee3 	ble	a4,a5,800005f0 <main+0x33c>
80000638:	fe042623 	sw	zero,-20(s0)
8000063c:	0440006f 	j	80000680 <main+0x3cc>
80000640:	fec42783 	lw	a5,-20(s0)
80000644:	00279793 	slli	a5,a5,0x2
80000648:	ff040713 	addi	a4,s0,-16
8000064c:	00f707b3 	add	a5,a4,a5
80000650:	f207a703 	lw	a4,-224(a5)
80000654:	fec42783 	lw	a5,-20(s0)
80000658:	01078793 	addi	a5,a5,16
8000065c:	00070693 	mv	a3,a4
80000660:	00000717 	auipc	a4,0x0
80000664:	09c70713 	addi	a4,a4,156 # 800006fc <msg>
80000668:	00279793 	slli	a5,a5,0x2
8000066c:	00f707b3 	add	a5,a4,a5
80000670:	00d7a223 	sw	a3,4(a5)
80000674:	fec42783 	lw	a5,-20(s0)
80000678:	00178793 	addi	a5,a5,1
8000067c:	fef42623 	sw	a5,-20(s0)
80000680:	fec42703 	lw	a4,-20(s0)
80000684:	00f00793 	li	a5,15
80000688:	fae7dce3 	ble	a4,a5,80000640 <main+0x38c>
8000068c:	00000797 	auipc	a5,0x0
80000690:	07078793 	addi	a5,a5,112 # 800006fc <msg>
80000694:	00500593 	li	a1,5
80000698:	00078513 	mv	a0,a5
8000069c:	a0dff0ef 	jal	ra,800000a8 <sys_Send>
800006a0:	00000797 	auipc	a5,0x0
800006a4:	02c78793 	addi	a5,a5,44 # 800006cc <end_print>
800006a8:	00078513 	mv	a0,a5
800006ac:	a99ff0ef 	jal	ra,80000144 <sys_Prints>
800006b0:	ae1ff0ef 	jal	ra,80000190 <sys_Finish>
800006b4:	00000793 	li	a5,0
800006b8:	00078513 	mv	a0,a5
800006bc:	4ec12083 	lw	ra,1260(sp)
800006c0:	4e812403 	lw	s0,1256(sp)
800006c4:	4f010113 	addi	sp,sp,1264
800006c8:	00008067 	ret

Disassembly of section .data:

800006cc <end_print>:
800006cc:	6b6a6944     Dijk
800006d0:	61727473     stra
800006d4:	6620335f     _3 f
800006d8:	73696e69     inis
800006dc:	2e646568     hed.
800006e0:	0000000a     ....

800006e4 <start_print>:
800006e4:	72617453     Star
800006e8:	676e6974     ting
800006ec:	6a694420      Dij
800006f0:	7274736b     kstr
800006f4:	2e335f61     a_3.
800006f8:	              ..

Disassembly of section .bss:

800006fc <msg>:
800006fc:	00000000     ....
80000700:	00000000     ....
80000704:	00000000     ....
80000708:	00000000     ....
8000070c:	00000000     ....
80000710:	00000000     ....
80000714:	00000000     ....
80000718:	00000000     ....
8000071c:	00000000     ....
80000720:	00000000     ....
80000724:	00000000     ....
80000728:	00000000     ....
8000072c:	00000000     ....
80000730:	00000000     ....
80000734:	00000000     ....
80000738:	00000000     ....
8000073c:	00000000     ....
80000740:	00000000     ....
80000744:	00000000     ....
80000748:	00000000     ....
8000074c:	00000000     ....
80000750:	00000000     ....
80000754:	00000000     ....
80000758:	00000000     ....
8000075c:	00000000     ....
80000760:	00000000     ....
80000764:	00000000     ....
80000768:	00000000     ....
8000076c:	00000000     ....
80000770:	00000000     ....
80000774:	00000000     ....
80000778:	00000000     ....
8000077c:	00000000     ....
80000780:	00000000     ....
80000784:	00000000     ....
80000788:	00000000     ....
8000078c:	00000000     ....
80000790:	00000000     ....
80000794:	00000000     ....
80000798:	00000000     ....
8000079c:	00000000     ....
800007a0:	00000000     ....
800007a4:	00000000     ....
800007a8:	00000000     ....
800007ac:	00000000     ....
800007b0:	00000000     ....
800007b4:	00000000     ....
800007b8:	00000000     ....
800007bc:	00000000     ....
800007c0:	00000000     ....
800007c4:	00000000     ....
800007c8:	00000000     ....
800007cc:	00000000     ....
800007d0:	00000000     ....
800007d4:	00000000     ....
800007d8:	00000000     ....
800007dc:	00000000     ....
800007e0:	00000000     ....
800007e4:	00000000     ....
800007e8:	00000000     ....
800007ec:	00000000     ....
800007f0:	00000000     ....
800007f4:	00000000     ....
800007f8:	00000000     ....
800007fc:	00000000     ....
80000800:	00000000     ....
80000804:	00000000     ....
80000808:	00000000     ....
8000080c:	00000000     ....
80000810:	00000000     ....
80000814:	00000000     ....
80000818:	00000000     ....
8000081c:	00000000     ....
80000820:	00000000     ....
80000824:	00000000     ....
80000828:	00000000     ....
8000082c:	00000000     ....
80000830:	00000000     ....
80000834:	00000000     ....
80000838:	00000000     ....
8000083c:	00000000     ....
80000840:	00000000     ....
80000844:	00000000     ....
80000848:	00000000     ....
8000084c:	00000000     ....
80000850:	00000000     ....
80000854:	00000000     ....
80000858:	00000000     ....
8000085c:	00000000     ....
80000860:	00000000     ....
80000864:	00000000     ....
80000868:	00000000     ....
8000086c:	00000000     ....
80000870:	00000000     ....
80000874:	00000000     ....
80000878:	00000000     ....
8000087c:	00000000     ....
80000880:	00000000     ....
80000884:	00000000     ....
80000888:	00000000     ....
8000088c:	00000000     ....
80000890:	00000000     ....
80000894:	00000000     ....
80000898:	00000000     ....
8000089c:	00000000     ....
800008a0:	00000000     ....
800008a4:	00000000     ....
800008a8:	00000000     ....
800008ac:	00000000     ....
800008b0:	00000000     ....
800008b4:	00000000     ....
800008b8:	00000000     ....
800008bc:	00000000     ....
800008c0:	00000000     ....
800008c4:	00000000     ....
800008c8:	00000000     ....
800008cc:	00000000     ....
800008d0:	00000000     ....
800008d4:	00000000     ....
800008d8:	00000000     ....
800008dc:	00000000     ....
800008e0:	00000000     ....
800008e4:	00000000     ....
800008e8:	00000000     ....
800008ec:	00000000     ....
800008f0:	00000000     ....
800008f4:	00000000     ....
800008f8:	00000000     ....
800008fc:	00000000     ....
