
cons.elf:     file format elf32-littleriscv


Disassembly of section .text:

00010074 <__internal_syscall>:
   10074:	fd010113 	addi	sp,sp,-48
   10078:	02812623 	sw	s0,44(sp)
   1007c:	03010413 	addi	s0,sp,48
   10080:	fea42623 	sw	a0,-20(s0)
   10084:	feb42423 	sw	a1,-24(s0)
   10088:	fec42223 	sw	a2,-28(s0)
   1008c:	fed42023 	sw	a3,-32(s0)
   10090:	fce42e23 	sw	a4,-36(s0)
   10094:	fcf42c23 	sw	a5,-40(s0)
   10098:	fd042a23 	sw	a6,-44(s0)
   1009c:	fe842503 	lw	a0,-24(s0)
   100a0:	fe442583 	lw	a1,-28(s0)
   100a4:	fe042603 	lw	a2,-32(s0)
   100a8:	fdc42683 	lw	a3,-36(s0)
   100ac:	fd842703 	lw	a4,-40(s0)
   100b0:	fd442783 	lw	a5,-44(s0)
   100b4:	fec42883 	lw	a7,-20(s0)
   100b8:	00000073 	ecall
   100bc:	00000013 	nop
   100c0:	02c12403 	lw	s0,44(sp)
   100c4:	03010113 	addi	sp,sp,48
   100c8:	00008067 	ret

000100cc <sys_Receive>:
   100cc:	fe010113 	addi	sp,sp,-32
   100d0:	00112e23 	sw	ra,28(sp)
   100d4:	00812c23 	sw	s0,24(sp)
   100d8:	02010413 	addi	s0,sp,32
   100dc:	fea42623 	sw	a0,-20(s0)
   100e0:	feb42423 	sw	a1,-24(s0)
   100e4:	fec42583 	lw	a1,-20(s0)
   100e8:	fe842603 	lw	a2,-24(s0)
   100ec:	00000813 	li	a6,0
   100f0:	00000793 	li	a5,0
   100f4:	00000713 	li	a4,0
   100f8:	00000693 	li	a3,0
   100fc:	01e00513 	li	a0,30
   10100:	f75ff0ef 	jal	ra,10074 <__internal_syscall>
   10104:	00100793 	li	a5,1
   10108:	00078513 	mv	a0,a5
   1010c:	01c12083 	lw	ra,28(sp)
   10110:	01812403 	lw	s0,24(sp)
   10114:	02010113 	addi	sp,sp,32
   10118:	00008067 	ret

0001011c <sys_Send>:
   1011c:	fe010113 	addi	sp,sp,-32
   10120:	00112e23 	sw	ra,28(sp)
   10124:	00812c23 	sw	s0,24(sp)
   10128:	02010413 	addi	s0,sp,32
   1012c:	fea42623 	sw	a0,-20(s0)
   10130:	feb42423 	sw	a1,-24(s0)
   10134:	fec42583 	lw	a1,-20(s0)
   10138:	fe842603 	lw	a2,-24(s0)
   1013c:	00000813 	li	a6,0
   10140:	00000793 	li	a5,0
   10144:	00000713 	li	a4,0
   10148:	00000693 	li	a3,0
   1014c:	01400513 	li	a0,20
   10150:	f25ff0ef 	jal	ra,10074 <__internal_syscall>
   10154:	00100793 	li	a5,1
   10158:	00078513 	mv	a0,a5
   1015c:	01c12083 	lw	ra,28(sp)
   10160:	01812403 	lw	s0,24(sp)
   10164:	02010113 	addi	sp,sp,32
   10168:	00008067 	ret

0001016c <sys_Exit>:
   1016c:	ff010113 	addi	sp,sp,-16
   10170:	00112623 	sw	ra,12(sp)
   10174:	00812423 	sw	s0,8(sp)
   10178:	01010413 	addi	s0,sp,16
   1017c:	00000813 	li	a6,0
   10180:	00000793 	li	a5,0
   10184:	00000713 	li	a4,0
   10188:	00000693 	li	a3,0
   1018c:	00000613 	li	a2,0
   10190:	00000593 	li	a1,0
   10194:	00a00513 	li	a0,10
   10198:	eddff0ef 	jal	ra,10074 <__internal_syscall>
   1019c:	00100793 	li	a5,1
   101a0:	00078513 	mv	a0,a5
   101a4:	00c12083 	lw	ra,12(sp)
   101a8:	00812403 	lw	s0,8(sp)
   101ac:	01010113 	addi	sp,sp,16
   101b0:	00008067 	ret

000101b4 <sys_Printi>:
   101b4:	fe010113 	addi	sp,sp,-32
   101b8:	00112e23 	sw	ra,28(sp)
   101bc:	00812c23 	sw	s0,24(sp)
   101c0:	02010413 	addi	s0,sp,32
   101c4:	fea42623 	sw	a0,-20(s0)
   101c8:	fec42583 	lw	a1,-20(s0)
   101cc:	00000813 	li	a6,0
   101d0:	00000793 	li	a5,0
   101d4:	00000713 	li	a4,0
   101d8:	00000693 	li	a3,0
   101dc:	00000613 	li	a2,0
   101e0:	02800513 	li	a0,40
   101e4:	e91ff0ef 	jal	ra,10074 <__internal_syscall>
   101e8:	00100793 	li	a5,1
   101ec:	00078513 	mv	a0,a5
   101f0:	01c12083 	lw	ra,28(sp)
   101f4:	01812403 	lw	s0,24(sp)
   101f8:	02010113 	addi	sp,sp,32
   101fc:	00008067 	ret

00010200 <sys_Prints>:
   10200:	fe010113 	addi	sp,sp,-32
   10204:	00112e23 	sw	ra,28(sp)
   10208:	00812c23 	sw	s0,24(sp)
   1020c:	02010413 	addi	s0,sp,32
   10210:	fea42623 	sw	a0,-20(s0)
   10214:	fec42583 	lw	a1,-20(s0)
   10218:	00000813 	li	a6,0
   1021c:	00000793 	li	a5,0
   10220:	00000713 	li	a4,0
   10224:	00000693 	li	a3,0
   10228:	00000613 	li	a2,0
   1022c:	03200513 	li	a0,50
   10230:	e45ff0ef 	jal	ra,10074 <__internal_syscall>
   10234:	00100793 	li	a5,1
   10238:	00078513 	mv	a0,a5
   1023c:	01c12083 	lw	ra,28(sp)
   10240:	01812403 	lw	s0,24(sp)
   10244:	02010113 	addi	sp,sp,32
   10248:	00008067 	ret

0001024c <sys_Testing>:
   1024c:	fd010113 	addi	sp,sp,-48
   10250:	02112623 	sw	ra,44(sp)
   10254:	02812423 	sw	s0,40(sp)
   10258:	03010413 	addi	s0,sp,48
   1025c:	fea42623 	sw	a0,-20(s0)
   10260:	feb42423 	sw	a1,-24(s0)
   10264:	fec42223 	sw	a2,-28(s0)
   10268:	fed42023 	sw	a3,-32(s0)
   1026c:	fce42e23 	sw	a4,-36(s0)
   10270:	fcf42c23 	sw	a5,-40(s0)
   10274:	fec42583 	lw	a1,-20(s0)
   10278:	fe842603 	lw	a2,-24(s0)
   1027c:	fe442683 	lw	a3,-28(s0)
   10280:	fe042703 	lw	a4,-32(s0)
   10284:	fdc42783 	lw	a5,-36(s0)
   10288:	fd842503 	lw	a0,-40(s0)
   1028c:	00050813 	mv	a6,a0
   10290:	04200513 	li	a0,66
   10294:	de1ff0ef 	jal	ra,10074 <__internal_syscall>
   10298:	00100793 	li	a5,1
   1029c:	00078513 	mv	a0,a5
   102a0:	02c12083 	lw	ra,44(sp)
   102a4:	02812403 	lw	s0,40(sp)
   102a8:	03010113 	addi	sp,sp,48
   102ac:	00008067 	ret

000102b0 <main>:
   102b0:	fe010113 	addi	sp,sp,-32
   102b4:	00112e23 	sw	ra,28(sp)
   102b8:	00812c23 	sw	s0,24(sp)
   102bc:	02010413 	addi	s0,sp,32
   102c0:	00600793 	li	a5,6
   102c4:	00500713 	li	a4,5
   102c8:	00400693 	li	a3,4
   102cc:	00300613 	li	a2,3
   102d0:	00200593 	li	a1,2
   102d4:	00100513 	li	a0,1
   102d8:	f75ff0ef 	jal	ra,1024c <sys_Testing>
   102dc:	fe042623 	sw	zero,-20(s0)
   102e0:	02c0006f 	j	1030c <main+0x5c>
   102e4:	00600793 	li	a5,6
   102e8:	00500713 	li	a4,5
   102ec:	00400693 	li	a3,4
   102f0:	00300613 	li	a2,3
   102f4:	00200593 	li	a1,2
   102f8:	00100513 	li	a0,1
   102fc:	f51ff0ef 	jal	ra,1024c <sys_Testing>
   10300:	fec42783 	lw	a5,-20(s0)
   10304:	00178793 	addi	a5,a5,1
   10308:	fef42623 	sw	a5,-20(s0)
   1030c:	fec42703 	lw	a4,-20(s0)
   10310:	00900793 	li	a5,9
   10314:	fce7d8e3 	ble	a4,a5,102e4 <main+0x34>
   10318:	00000793 	li	a5,0
   1031c:	00078513 	mv	a0,a5
   10320:	01c12083 	lw	ra,28(sp)
   10324:	01812403 	lw	s0,24(sp)
   10328:	02010113 	addi	sp,sp,32
   1032c:	00008067 	ret

Disassembly of section .data:

00011330 <start_print>:
   11330:	534e4f43     CONS
   11334:	61745320      Sta
   11338:	00007472     rt..

0001133c <end_print>:
   1133c:	534e4f43     CONS
   11340:	646e4520      End
   11344:	              .

Disassembly of section .bss:

00011348 <msg>:
   11348:	00000000     ....
   1134c:	00000000     ....
   11350:	00000000     ....
   11354:	00000000     ....
   11358:	00000000     ....
   1135c:	00000000     ....
   11360:	00000000     ....
   11364:	00000000     ....
   11368:	00000000     ....
   1136c:	00000000     ....
   11370:	00000000     ....
   11374:	00000000     ....
   11378:	00000000     ....
   1137c:	00000000     ....
   11380:	00000000     ....
   11384:	00000000     ....
   11388:	00000000     ....
   1138c:	00000000     ....
   11390:	00000000     ....
   11394:	00000000     ....
   11398:	00000000     ....
   1139c:	00000000     ....
   113a0:	00000000     ....
   113a4:	00000000     ....
   113a8:	00000000     ....
   113ac:	00000000     ....
   113b0:	00000000     ....
   113b4:	00000000     ....
   113b8:	00000000     ....
   113bc:	00000000     ....
   113c0:	00000000     ....
   113c4:	00000000     ....
   113c8:	00000000     ....
   113cc:	00000000     ....
   113d0:	00000000     ....
   113d4:	00000000     ....
   113d8:	00000000     ....
   113dc:	00000000     ....
   113e0:	00000000     ....
   113e4:	00000000     ....
   113e8:	00000000     ....
   113ec:	00000000     ....
   113f0:	00000000     ....
   113f4:	00000000     ....
   113f8:	00000000     ....
   113fc:	00000000     ....
   11400:	00000000     ....
   11404:	00000000     ....
   11408:	00000000     ....
   1140c:	00000000     ....
   11410:	00000000     ....
   11414:	00000000     ....
   11418:	00000000     ....
   1141c:	00000000     ....
   11420:	00000000     ....
   11424:	00000000     ....
   11428:	00000000     ....
   1142c:	00000000     ....
   11430:	00000000     ....
   11434:	00000000     ....
   11438:	00000000     ....
   1143c:	00000000     ....
   11440:	00000000     ....
   11444:	00000000     ....
   11448:	00000000     ....
   1144c:	00000000     ....
   11450:	00000000     ....
   11454:	00000000     ....
   11458:	00000000     ....
   1145c:	00000000     ....
   11460:	00000000     ....
   11464:	00000000     ....
   11468:	00000000     ....
   1146c:	00000000     ....
   11470:	00000000     ....
   11474:	00000000     ....
   11478:	00000000     ....
   1147c:	00000000     ....
   11480:	00000000     ....
   11484:	00000000     ....
   11488:	00000000     ....
   1148c:	00000000     ....
   11490:	00000000     ....
   11494:	00000000     ....
   11498:	00000000     ....
   1149c:	00000000     ....
   114a0:	00000000     ....
   114a4:	00000000     ....
   114a8:	00000000     ....
   114ac:	00000000     ....
   114b0:	00000000     ....
   114b4:	00000000     ....
   114b8:	00000000     ....
   114bc:	00000000     ....
   114c0:	00000000     ....
   114c4:	00000000     ....
   114c8:	00000000     ....
   114cc:	00000000     ....
   114d0:	00000000     ....
   114d4:	00000000     ....
   114d8:	00000000     ....
   114dc:	00000000     ....
   114e0:	00000000     ....
   114e4:	00000000     ....
   114e8:	00000000     ....
   114ec:	00000000     ....
   114f0:	00000000     ....
   114f4:	00000000     ....
   114f8:	00000000     ....
   114fc:	00000000     ....
   11500:	00000000     ....
   11504:	00000000     ....
   11508:	00000000     ....
   1150c:	00000000     ....
   11510:	00000000     ....
   11514:	00000000     ....
   11518:	00000000     ....
   1151c:	00000000     ....
   11520:	00000000     ....
   11524:	00000000     ....
   11528:	00000000     ....
   1152c:	00000000     ....
   11530:	00000000     ....
   11534:	00000000     ....
   11538:	00000000     ....
   1153c:	00000000     ....
   11540:	00000000     ....
   11544:	00000000     ....
   11548:	00000000     ....
   1154c:	00000000     ....
   11550:	00000000     ....
   11554:	00000000     ....
   11558:	00000000     ....
   1155c:	00000000     ....
   11560:	00000000     ....
   11564:	00000000     ....
   11568:	00000000     ....
   1156c:	00000000     ....
   11570:	00000000     ....
   11574:	00000000     ....
   11578:	00000000     ....
   1157c:	00000000     ....
   11580:	00000000     ....
   11584:	00000000     ....
   11588:	00000000     ....
   1158c:	00000000     ....
   11590:	00000000     ....
   11594:	00000000     ....
   11598:	00000000     ....
   1159c:	00000000     ....
   115a0:	00000000     ....
   115a4:	00000000     ....
   115a8:	00000000     ....
   115ac:	00000000     ....
   115b0:	00000000     ....
   115b4:	00000000     ....
   115b8:	00000000     ....
   115bc:	00000000     ....
   115c0:	00000000     ....
   115c4:	00000000     ....
   115c8:	00000000     ....
   115cc:	00000000     ....
   115d0:	00000000     ....
   115d4:	00000000     ....
   115d8:	00000000     ....
   115dc:	00000000     ....
   115e0:	00000000     ....
   115e4:	00000000     ....
   115e8:	00000000     ....
   115ec:	00000000     ....
   115f0:	00000000     ....
   115f4:	00000000     ....
   115f8:	00000000     ....
   115fc:	00000000     ....
   11600:	00000000     ....
   11604:	00000000     ....
   11608:	00000000     ....
   1160c:	00000000     ....
   11610:	00000000     ....
   11614:	00000000     ....
   11618:	00000000     ....
   1161c:	00000000     ....
   11620:	00000000     ....
   11624:	00000000     ....
   11628:	00000000     ....
   1162c:	00000000     ....
   11630:	00000000     ....
   11634:	00000000     ....
   11638:	00000000     ....
   1163c:	00000000     ....
   11640:	00000000     ....
   11644:	00000000     ....
   11648:	00000000     ....
   1164c:	00000000     ....
   11650:	00000000     ....
   11654:	00000000     ....
   11658:	00000000     ....
   1165c:	00000000     ....
   11660:	00000000     ....
   11664:	00000000     ....
   11668:	00000000     ....
   1166c:	00000000     ....
   11670:	00000000     ....
   11674:	00000000     ....
   11678:	00000000     ....
   1167c:	00000000     ....
   11680:	00000000     ....
   11684:	00000000     ....
   11688:	00000000     ....
   1168c:	00000000     ....
   11690:	00000000     ....
   11694:	00000000     ....
   11698:	00000000     ....
   1169c:	00000000     ....
   116a0:	00000000     ....
   116a4:	00000000     ....
   116a8:	00000000     ....
   116ac:	00000000     ....
   116b0:	00000000     ....
   116b4:	00000000     ....
   116b8:	00000000     ....
   116bc:	00000000     ....
   116c0:	00000000     ....
   116c4:	00000000     ....
   116c8:	00000000     ....
   116cc:	00000000     ....
   116d0:	00000000     ....
   116d4:	00000000     ....
   116d8:	00000000     ....
   116dc:	00000000     ....
   116e0:	00000000     ....
   116e4:	00000000     ....
   116e8:	00000000     ....
   116ec:	00000000     ....
   116f0:	00000000     ....
   116f4:	00000000     ....
   116f8:	00000000     ....
   116fc:	00000000     ....
   11700:	00000000     ....
   11704:	00000000     ....
   11708:	00000000     ....
   1170c:	00000000     ....
   11710:	00000000     ....
   11714:	00000000     ....
   11718:	00000000     ....
   1171c:	00000000     ....
   11720:	00000000     ....
   11724:	00000000     ....
   11728:	00000000     ....
   1172c:	00000000     ....
   11730:	00000000     ....
   11734:	00000000     ....
   11738:	00000000     ....
   1173c:	00000000     ....
   11740:	00000000     ....
   11744:	00000000     ....
   11748:	00000000     ....
